 paste

 Timestamp is 5acfaf1f (Thu Apr 12 21:10:23 2018)

 Preferred load address is 10000000

 Start         Length     Name                   Class
 0001:00000000 00014d30H .text$di                CODE
 0001:00014d30 000873f0H .text$mn                CODE
 0001:0009c120 000028b0H .text$x                 CODE
 0001:0009e9d0 0000060cH .text$yd                CODE
 0002:00000000 000001d4H .idata$5                DATA
 0002:000001d4 00000004H .00cfg                  DATA
 0002:000001d8 00000004H .CRT$XCA                DATA
 0002:000001dc 0000000cH .CRT$XCC                DATA
 0002:000001e8 00000008H .CRT$XCL                DATA
 0002:000001f0 000000c4H .CRT$XCU                DATA
 0002:000002b4 00000004H .CRT$XCZ                DATA
 0002:000002b8 00000004H .CRT$XIA                DATA
 0002:000002bc 00000018H .CRT$XIC                DATA
 0002:000002d4 00000004H .CRT$XIZ                DATA
 0002:000002d8 00000004H .CRT$XLA                DATA
 0002:000002dc 00000004H .CRT$XLZ                DATA
 0002:000002e0 00000004H .CRT$XPA                DATA
 0002:000002e4 00000008H .CRT$XPX                DATA
 0002:000002ec 00000004H .CRT$XPXA               DATA
 0002:000002f0 00000004H .CRT$XPZ                DATA
 0002:000002f4 00000004H .CRT$XTA                DATA
 0002:000002f8 00000008H .CRT$XTZ                DATA
 0002:000002fc 00000000H .gfids$y                DATA
 0002:00000300 0001c1b8H .rdata                  DATA
 0002:0001c4b8 00000018H .rdata$T                DATA
 0002:0001c4d0 00000d10H .rdata$r                DATA
 0002:0001d1e0 000001e4H .rdata$sxdata           DATA
 0002:0001d3c4 000003dcH .rdata$zzzdbg           DATA
 0002:0001d7a0 00000004H .rtc$IAA                DATA
 0002:0001d7a4 00000004H .rtc$IZZ                DATA
 0002:0001d7a8 00000004H .rtc$TAA                DATA
 0002:0001d7ac 00000004H .rtc$TZZ                DATA
 0002:0001d7b0 00000004H .tls                    DATA
 0002:0001d7b4 00000004H .tls$                   DATA
 0002:0001d7b8 00000008H .tls$ZZZ                DATA
 0002:0001d7c0 000031d4H .xdata$x                DATA
 0002:00020994 00000000H .edata                  DATA
 0002:00020994 00000064H .idata$2                DATA
 0002:000209f8 00000014H .idata$3                DATA
 0002:00020a0c 000001d4H .idata$4                DATA
 0002:00020be0 00000858H .idata$6                DATA
 0003:00000000 000da7b0H .data                   DATA
 0003:000da7b0 00000688H .data$r                 DATA
 0003:000dae38 00441c18H .bss                    DATA
 0004:00000000 000007e0H _RDATA                  DATA
 0005:00000000 00000060H .rsrc$01                DATA
 0005:00000060 00000180H .rsrc$02                DATA

  Address         Publics by Value              Rva+Base       Lib:Object

 0000:00000000       ___enclave_config          00000000     <absolute>
 0000:00000000       ___guard_longjmp_count     00000000     <absolute>
 0000:00000000       __except_list              00000000     <absolute>
 0000:00000000       ___guard_fids_count        00000000     <absolute>
 0000:00000000       ___guard_fids_table        00000000     <absolute>
 0000:00000000       ___hybrid_code_map         00000000     <absolute>
 0000:00000000       ___guard_longjmp_table     00000000     <absolute>
 0000:00000000       ___guard_iat_table         00000000     <absolute>
 0000:00000000       ___guard_iat_count         00000000     <absolute>
 0000:00000000       ___hybrid_auxiliary_iat    00000000     <absolute>
 0000:00000000       ___dynamic_value_reloc_table 00000000     <absolute>
 0000:00000000       ___hybrid_code_map_count   00000000     <absolute>
 0000:0000002c       __tls_array                0000002c     <absolute>
 0000:00000079       ___safe_se_handler_count   00000079     <absolute>
 0000:00000100       ___guard_flags             00000100     <absolute>
 0000:00000000       ___ImageBase               10000000     <linker-defined>
 0001:00014d30       ?MyColorEdit3@ImGui@@YA_NPBDQAMH@Z 10015d30 f   imguicolorpicker.obj
 0001:00014dc0       ?MyColorEdit4@ImGui@@YA_NPBDQAMH@Z 10015dc0 f   imguicolorpicker.obj
 0001:000155b0       ?MyColorPicker4@ImGui@@YA_NPBDQAMH@Z 100165b0 f   imguicolorpicker.obj
 0001:00015ed0       ___local_stdio_scanf_options 10016ed0 f i imguicolorpicker.obj
 0001:00015ee0       _sscanf_s                  10016ee0 f i imguicolorpicker.obj
 0001:00015f10       ??$_Construct@PA_S@?$basic_string@DU?$char_traits@D@std@@V?$allocator@D@2@@std@@QAEXPA_SQA_SUinput_iterator_tag@1@@Z 10016f10 f i Parser.obj
 0001:000160e0       ??$_Unfancy@V?$shared_ptr@VNode@valve_parser@@@std@@@std@@YAPAV?$shared_ptr@VNode@valve_parser@@@0@PAV10@@Z 100170e0 f i Parser.obj
 0001:000160f0       ??$_Uninitialized_move_al_unchecked@PAV?$shared_ptr@VNode@valve_parser@@@std@@PAV12@V?$allocator@V?$shared_ptr@VNode@valve_parser@@@std@@@2@@std@@YAPAV?$shared_ptr@VNode@valve_parser@@@0@PAV10@00AAV?$allocator@V?$shared_ptr@VNode@valve_parser@@@std@@@0@U_General_ptr_iterator_tag@0@U_Unused_parameter@0@@Z 100170f0 f i Parser.obj
 0001:00016150       ??$destroy@V?$shared_ptr@VNode@valve_parser@@@std@@@?$_Default_allocator_traits@V?$allocator@V?$shared_ptr@VNode@valve_parser@@@std@@@std@@@std@@SAXAAV?$allocator@V?$shared_ptr@VNode@valve_parser@@@std@@@1@QAV?$shared_ptr@VNode@valve_parser@@@1@@Z 10017150 f i Parser.obj
 0001:00016190       ??$emplace_back@ABV?$shared_ptr@VNode@valve_parser@@@std@@@?$vector@V?$shared_ptr@VNode@valve_parser@@@std@@V?$allocator@V?$shared_ptr@VNode@valve_parser@@@std@@@2@@std@@QAEXABV?$shared_ptr@VNode@valve_parser@@@1@@Z 10017190 f i Parser.obj
 0001:00016390       ??$emplace_back@AB_S@?$vector@_SV?$allocator@_S@std@@@std@@QAEXAB_S@Z 10017390 f i Parser.obj
 0001:00016480       ??1?$basic_string@DU?$char_traits@D@std@@V?$allocator@D@2@@std@@QAE@XZ 10017480 f i Parser.obj
 0001:00016480       ?_Tidy_deallocate@?$basic_string@DU?$char_traits@D@std@@V?$allocator@D@2@@std@@QAEXXZ 10017480 f i Parser.obj
 0001:000164d0       ??1?$shared_ptr@VNode@valve_parser@@@std@@QAE@XZ 100174d0 f i Parser.obj
 0001:00016500       ??1?$vector@_SV?$allocator@_S@std@@@std@@QAE@XZ 10017500 f i Parser.obj
 0001:00016560       ??_G?$_Ref_count_obj@VKeyValue@valve_parser@@@std@@UAEPAXI@Z 10017560 f i Parser.obj
 0001:00016560       ??_E?$_Ref_count_obj@VKeyValue@valve_parser@@@std@@UAEPAXI@Z 10017560 f i Parser.obj
 0001:00016590       ??_E?$_Ref_count_obj@VObject@valve_parser@@@std@@UAEPAXI@Z 10017590 f i Parser.obj
 0001:00016590       ??_G?$_Ref_count_obj@VObject@valve_parser@@@std@@UAEPAXI@Z 10017590 f i Parser.obj
 0001:000165c0       ??_E_Ref_count_base@std@@UAEPAXI@Z 100175c0 f i Parser.obj
 0001:000165c0       ??_G_Ref_count_base@std@@UAEPAXI@Z 100175c0 f i Parser.obj
 0001:000165f0       ?EndReached@Str@valve_parser@@SAPA_UPA_U_U@Z 100175f0 f i Parser.obj
 0001:00016680       ?GetKeyByName@Object@valve_parser@@QAE?AV?$shared_ptr@VNode@valve_parser@@@std@@PAD@Z 10017680 f   Parser.obj
 0001:000168b0       ?Parse@Node@valve_parser@@UAE_NXZ 100178b0 f   Parser.obj
 0001:000169e0       ?Parse@Object@valve_parser@@UAE_NXZ 100179e0 f   Parser.obj
 0001:00016b90       ?ParseTextExpectedTag@Str@valve_parser@@SAPA_UPA_U_U_N@Z 10017b90 f i Parser.obj
 0001:00016c20       ?ToObject@Object@valve_parser@@UAEPAV12@XZ 10017c20 f i Parser.obj
 0001:00016c20       ?_Getal@?$_Vector_alloc@U?$_Vec_base_types@V?$_List_unchecked_iterator@V?$_List_val@U?$_List_simple_types@U?$pair@$$CBV?$basic_string@DU?$char_traits@D@std@@V?$allocator@D@2@@std@@V12@@std@@@std@@@std@@@std@@V?$allocator@V?$_List_unchecked_iterator@V?$_List_val@U?$_List_simple_types@U?$pair@$$CBV?$basic_string@DU?$char_traits@D@std@@V?$allocator@D@2@@std@@V12@@std@@@std@@@std@@@std@@@2@@std@@@std@@QAEAAV?$allocator@V?$_List_unchecked_iterator@V?$_List_val@U?$_List_simple_types@U?$pair@$$CBV?$basic_string@DU?$char_traits@D@std@@V?$allocator@D@2@@std@@V12@@std@@@std@@@std@@@std@@@2@XZ 10017c20 f i Configuration.obj
 0001:00016c20       ?_Getal@?$_Vector_alloc@U?$_Vec_base_types@V?$_List_unchecked_iterator@V?$_List_val@U?$_List_simple_types@U?$pair@$$CBV?$basic_string@DU?$char_traits@D@std@@V?$allocator@D@2@@std@@V?$set@V?$basic_string@DU?$char_traits@D@std@@V?$allocator@D@2@@std@@U?$less@V?$basic_string@DU?$char_traits@D@std@@V?$allocator@D@2@@std@@@2@V?$allocator@V?$basic_string@DU?$char_traits@D@std@@V?$allocator@D@2@@std@@@2@@2@@std@@@std@@@std@@@std@@V?$allocator@V?$_List_unchecked_iterator@V?$_List_val@U?$_List_simple_types@U?$pair@$$CBV?$basic_string@DU?$char_traits@D@std@@V?$allocator@D@2@@std@@V?$set@V?$basic_string@DU?$char_traits@D@std@@V?$allocator@D@2@@std@@U?$less@V?$basic_string@DU?$char_traits@D@std@@V?$allocator@D@2@@std@@@2@V?$allocator@V?$basic_string@DU?$char_traits@D@std@@V?$allocator@D@2@@std@@@2@@2@@std@@@std@@@std@@@std@@@2@@std@@@std@@QAEAAV?$allocator@V?$_List_unchecked_iterator@V?$_List_val@U?$_List_simple_types@U?$pair@$$CBV?$basic_string@DU?$char_traits@D@std@@V?$allocator@D@2@@std@@V?$set@V?$basic_string@DU?$char_traits@D@std@@V?$allocator@D@2@@std@@U?$less@V?$basic_string@DU?$char_traits@D@std@@V?$allocator@D@2@@std@@@2@V?$allocator@V?$basic_string@DU?$char_traits@D@std@@V?$allocator@D@2@@std@@@2@@2@@std@@@std@@@std@@@std@@@2@XZ 10017c20 f i Configuration.obj
 0001:00016c20       ?ToKeyValue@KeyValue@valve_parser@@UAEPAV12@XZ 10017c20 f i Parser.obj
 0001:00016c20       ?_Getal@?$_Vector_alloc@U?$_Vec_base_types@V?$_List_unchecked_iterator@V?$_List_val@U?$_List_simple_types@U?$pair@QADPAD@std@@@std@@@std@@@std@@V?$allocator@V?$_List_unchecked_iterator@V?$_List_val@U?$_List_simple_types@U?$pair@QADPAD@std@@@std@@@std@@@std@@@2@@std@@@std@@QAEAAV?$allocator@V?$_List_unchecked_iterator@V?$_List_val@U?$_List_simple_types@U?$pair@QADPAD@std@@@std@@@std@@@std@@@2@XZ 10017c20 f i Hooks.obj
 0001:00016c20       ?_Getal@?$_Vector_alloc@U?$_Vec_base_types@V?$_List_unchecked_iterator@V?$_List_val@U?$_List_simple_types@U?$pair@$$CBV?$basic_string@DU?$char_traits@D@std@@V?$allocator@D@2@@std@@UskinInfo@@@std@@@std@@@std@@@std@@V?$allocator@V?$_List_unchecked_iterator@V?$_List_val@U?$_List_simple_types@U?$pair@$$CBV?$basic_string@DU?$char_traits@D@std@@V?$allocator@D@2@@std@@UskinInfo@@@std@@@std@@@std@@@std@@@2@@std@@@std@@QAEAAV?$allocator@V?$_List_unchecked_iterator@V?$_List_val@U?$_List_simple_types@U?$pair@$$CBV?$basic_string@DU?$char_traits@D@std@@V?$allocator@D@2@@std@@UskinInfo@@@std@@@std@@@std@@@std@@@2@XZ 10017c20 f i Configuration.obj
 0001:00016c30       ?GetTraceType@CTraceFilter@@UBE?AW4TraceType_t@@XZ 10017c30 f i Autowall.obj
 0001:00016c30       ?sync@?$basic_streambuf@DU?$char_traits@D@std@@@std@@MAEHXZ 10017c30 f i Utilities.obj
 0001:00016c30       ?ToKeyValue@Node@valve_parser@@UAEPAVKeyValue@2@XZ 10017c30 f i Parser.obj
 0001:00016c30       ?ToObject@Node@valve_parser@@UAEPAVObject@2@XZ 10017c30 f i Parser.obj
 0001:00016c30       ?GetTraceType@CTraceFilterWorldAndPropsOnly@@UBE?AW4TraceType_t@@XZ 10017c30 f i GrenadePrediction.obj
 0001:00016c40       ?_Become_small@?$basic_string@DU?$char_traits@D@std@@V?$allocator@D@2@@std@@QAEXXZ 10017c40 f i Parser.obj
 0001:00016c90       ?_Change_array@?$vector@_SV?$allocator@_S@std@@@std@@AAEXQA_SII@Z 10017c90 f i Parser.obj
 0001:00016cf0       ?_Delete_this@?$_Ref_count_obj@VNode@valve_parser@@@std@@EAEXXZ 10017cf0 f i Hooks.obj
 0001:00016cf0       ?_Delete_this@?$_Ref_count_obj@VKeyValue@valve_parser@@@std@@EAEXXZ 10017cf0 f i Parser.obj
 0001:00016cf0       ?_Delete_this@?$_Ref_count_obj@VObject@valve_parser@@@std@@EAEXXZ 10017cf0 f i Parser.obj
 0001:00016d00       ?_Destroy@?$_Ref_count_obj@VNode@valve_parser@@@std@@EAEXXZ 10017d00 f i Hooks.obj
 0001:00016d00       ?_Destroy@?$_Ref_count_obj@VObject@valve_parser@@@std@@EAEXXZ 10017d00 f i Parser.obj
 0001:00016d00       ?_Destroy@?$_Ref_count_obj@VKeyValue@valve_parser@@@std@@EAEXXZ 10017d00 f i Parser.obj
 0001:00016d60       ?_Destroy@?$vector@V?$shared_ptr@VNode@valve_parser@@@std@@V?$allocator@V?$shared_ptr@VNode@valve_parser@@@std@@@2@@std@@AAEXPAV?$shared_ptr@VNode@valve_parser@@@2@0@Z 10017d60 f i Parser.obj
 0001:00016db0       ?_Get_deleter@_Ref_count_base@std@@UBEPAXABVtype_info@@@Z 10017db0 f i Parser.obj
 0001:00016dc0       ?_Reallocate_exactly@?$vector@_SV?$allocator@_S@std@@@std@@AAEXI@Z 10017dc0 f i Parser.obj
 0001:00016e90       ?_Xlen@?$basic_string@DU?$char_traits@D@std@@V?$allocator@D@2@@std@@SAXXZ 10017e90 f i Parser.obj
 0001:00016ea0       ?_Xlength@?$vector@PAV?$ConfigValue@_N@@V?$allocator@PAV?$ConfigValue@_N@@@std@@@std@@CAXXZ 10017ea0 f i Configuration.obj
 0001:00016ea0       ?_Xlength@?$vector@V?$basic_string@DU?$char_traits@D@std@@V?$allocator@D@2@@std@@V?$allocator@V?$basic_string@DU?$char_traits@D@std@@V?$allocator@D@2@@std@@@2@@std@@CAXXZ 10017ea0 f i Hooks.obj
 0001:00016ea0       ?_Xlength@?$vector@PAURecvTable@@V?$allocator@PAURecvTable@@@std@@@std@@CAXXZ 10017ea0 f i NetVarManager.obj
 0001:00016ea0       ?_Xlength@?$vector@V?$shared_ptr@VNode@valve_parser@@@std@@V?$allocator@V?$shared_ptr@VNode@valve_parser@@@std@@@2@@std@@CAXXZ 10017ea0 f i Parser.obj
 0001:00016ea0       ?_Xlength@?$vector@HV?$allocator@H@std@@@std@@CAXXZ 10017ea0 f i LegitBot.obj
 0001:00016ea0       ?_Xlength@?$vector@V?$_List_unchecked_iterator@V?$_List_val@U?$_List_simple_types@U?$pair@$$CBV?$basic_string@DU?$char_traits@D@std@@V?$allocator@D@2@@std@@V12@@std@@@std@@@std@@@std@@V?$allocator@V?$_List_unchecked_iterator@V?$_List_val@U?$_List_simple_types@U?$pair@$$CBV?$basic_string@DU?$char_traits@D@std@@V?$allocator@D@2@@std@@V12@@std@@@std@@@std@@@std@@@2@@std@@CAXXZ 10017ea0 f i Configuration.obj
 0001:00016ea0       ?_Xlength@?$vector@_SV?$allocator@_S@std@@@std@@CAXXZ 10017ea0 f i Parser.obj
 0001:00016ea0       ?_Xlength@?$vector@V?$_List_unchecked_iterator@V?$_List_val@U?$_List_simple_types@U?$pair@$$CBV?$basic_string@DU?$char_traits@D@std@@V?$allocator@D@2@@std@@V?$set@V?$basic_string@DU?$char_traits@D@std@@V?$allocator@D@2@@std@@U?$less@V?$basic_string@DU?$char_traits@D@std@@V?$allocator@D@2@@std@@@2@V?$allocator@V?$basic_string@DU?$char_traits@D@std@@V?$allocator@D@2@@std@@@2@@2@@std@@@std@@@std@@@std@@V?$allocator@V?$_List_unchecked_iterator@V?$_List_val@U?$_List_simple_types@U?$pair@$$CBV?$basic_string@DU?$char_traits@D@std@@V?$allocator@D@2@@std@@V?$set@V?$basic_string@DU?$char_traits@D@std@@V?$allocator@D@2@@std@@U?$less@V?$basic_string@DU?$char_traits@D@std@@V?$allocator@D@2@@std@@@2@V?$allocator@V?$basic_string@DU?$char_traits@D@std@@V?$allocator@D@2@@std@@@2@@2@@std@@@std@@@std@@@std@@@2@@std@@CAXXZ 10017ea0 f i Configuration.obj
 0001:00016ea0       ?_Xlength@?$vector@PAV?$ConfigValue@M@@V?$allocator@PAV?$ConfigValue@M@@@std@@@std@@CAXXZ 10017ea0 f i Configuration.obj
 0001:00016ea0       ?_Xlength@?$vector@PAV?$ConfigValue@H@@V?$allocator@PAV?$ConfigValue@H@@@std@@@std@@CAXXZ 10017ea0 f i Configuration.obj
 0001:00016ea0       ?_Xlength@?$vector@V?$_List_unchecked_iterator@V?$_List_val@U?$_List_simple_types@U?$pair@$$CBV?$basic_string@DU?$char_traits@D@std@@V?$allocator@D@2@@std@@UskinInfo@@@std@@@std@@@std@@@std@@V?$allocator@V?$_List_unchecked_iterator@V?$_List_val@U?$_List_simple_types@U?$pair@$$CBV?$basic_string@DU?$char_traits@D@std@@V?$allocator@D@2@@std@@UskinInfo@@@std@@@std@@@std@@@std@@@2@@std@@CAXXZ 10017ea0 f i Configuration.obj
 0001:00016ea0       ?_Xlength@?$vector@V?$_List_unchecked_iterator@V?$_List_val@U?$_List_simple_types@U?$pair@QADPAD@std@@@std@@@std@@@std@@V?$allocator@V?$_List_unchecked_iterator@V?$_List_val@U?$_List_simple_types@U?$pair@QADPAD@std@@@std@@@std@@@std@@@2@@std@@CAXXZ 10017ea0 f i Hooks.obj
 0001:00016ea0       ?_Xlength@?$vector@VVector@@V?$allocator@VVector@@@std@@@std@@CAXXZ 10017ea0 f i GrenadePrediction.obj
 0001:00016eb0       ?assign@?$basic_string@DU?$char_traits@D@std@@V?$allocator@D@2@@std@@QAEAAV12@QBDI@Z 10017eb0 f i Parser.obj
 0001:00016fe0       ?deallocate@?$allocator@V?$shared_ptr@VNode@valve_parser@@@std@@@std@@QAEXQAV?$shared_ptr@VNode@valve_parser@@@2@I@Z 10017fe0 f i Parser.obj
 0001:00017020       ?identify@Document@valve_parser@@AAE_NAAV?$shared_ptr@VNode@valve_parser@@@std@@@Z 10018020 f i Parser.obj
 0001:000172a0       ?reserve@?$basic_string@DU?$char_traits@D@std@@V?$allocator@D@2@@std@@QAEXI@Z 100182a0 f i Parser.obj
 0001:00017400       ?toString@Str@valve_parser@@QAE?AV?$basic_string@DU?$char_traits@D@std@@V?$allocator@D@2@@std@@XZ 10018400 f i Parser.obj
 0001:000175c0       ??$_Buynode@ABU?$pair@$$CBW4ItemDefinitionIndexx@@UDefItem_t@@@std@@@?$_Tree_comp_alloc@V?$_Tmap_traits@W4ItemDefinitionIndexx@@UDefItem_t@@U?$less@W4ItemDefinitionIndexx@@@std@@V?$allocator@U?$pair@$$CBW4ItemDefinitionIndexx@@UDefItem_t@@@std@@@4@$0A@@std@@@std@@QAEPAU?$_Tree_node@U?$pair@$$CBW4ItemDefinitionIndexx@@UDefItem_t@@@std@@PAX@1@ABU?$pair@$$CBW4ItemDefinitionIndexx@@UDefItem_t@@@1@@Z 100185c0 f i recvproxy.obj
 0001:000175f0       ??$_Insert_at@AAU?$pair@$$CBW4ItemDefinitionIndexx@@UDefItem_t@@@std@@PAU?$_Tree_node@U?$pair@$$CBW4ItemDefinitionIndexx@@UDefItem_t@@@std@@PAX@2@@?$_Tree@V?$_Tmap_traits@W4ItemDefinitionIndexx@@UDefItem_t@@U?$less@W4ItemDefinitionIndexx@@@std@@V?$allocator@U?$pair@$$CBW4ItemDefinitionIndexx@@UDefItem_t@@@std@@@4@$0A@@std@@@std@@IAE?AV?$_Tree_iterator@V?$_Tree_val@U?$_Tree_simple_types@U?$pair@$$CBW4ItemDefinitionIndexx@@UDefItem_t@@@std@@@std@@@std@@@1@_NPAU?$_Tree_node@U?$pair@$$CBW4ItemDefinitionIndexx@@UDefItem_t@@@std@@PAX@1@AAU?$pair@$$CBW4ItemDefinitionIndexx@@UDefItem_t@@@1@1@Z 100185f0 f i recvproxy.obj
 0001:00017750       ??$_Insert_hint@AAU?$pair@$$CBW4ItemDefinitionIndexx@@UDefItem_t@@@std@@PAU?$_Tree_node@U?$pair@$$CBW4ItemDefinitionIndexx@@UDefItem_t@@@std@@PAX@2@@?$_Tree@V?$_Tmap_traits@W4ItemDefinitionIndexx@@UDefItem_t@@U?$less@W4ItemDefinitionIndexx@@@std@@V?$allocator@U?$pair@$$CBW4ItemDefinitionIndexx@@UDefItem_t@@@std@@@4@$0A@@std@@@std@@IAE?AV?$_Tree_iterator@V?$_Tree_val@U?$_Tree_simple_types@U?$pair@$$CBW4ItemDefinitionIndexx@@UDefItem_t@@@std@@@std@@@std@@@1@V?$_Tree_const_iterator@V?$_Tree_val@U?$_Tree_simple_types@U?$pair@$$CBW4ItemDefinitionIndexx@@UDefItem_t@@@std@@@std@@@std@@@1@AAU?$pair@$$CBW4ItemDefinitionIndexx@@UDefItem_t@@@1@PAU?$_Tree_node@U?$pair@$$CBW4ItemDefinitionIndexx@@UDefItem_t@@@std@@PAX@1@@Z 10018750 f i recvproxy.obj
 0001:000179f0       ??$_Insert_nohint@AAU?$pair@$$CBW4ItemDefinitionIndexx@@UDefItem_t@@@std@@PAU?$_Tree_node@U?$pair@$$CBW4ItemDefinitionIndexx@@UDefItem_t@@@std@@PAX@2@@?$_Tree@V?$_Tmap_traits@W4ItemDefinitionIndexx@@UDefItem_t@@U?$less@W4ItemDefinitionIndexx@@@std@@V?$allocator@U?$pair@$$CBW4ItemDefinitionIndexx@@UDefItem_t@@@std@@@4@$0A@@std@@@std@@IAE?AU?$pair@V?$_Tree_iterator@V?$_Tree_val@U?$_Tree_simple_types@U?$pair@$$CBW4ItemDefinitionIndexx@@UDefItem_t@@@std@@@std@@@std@@@std@@_N@1@_NAAU?$pair@$$CBW4ItemDefinitionIndexx@@UDefItem_t@@@1@PAU?$_Tree_node@U?$pair@$$CBW4ItemDefinitionIndexx@@UDefItem_t@@@std@@PAX@1@@Z 100189f0 f i recvproxy.obj
 0001:00017b60       ??1?$_Tree@V?$_Tmap_traits@W4ItemDefinitionIndexx@@UDefItem_t@@U?$less@W4ItemDefinitionIndexx@@@std@@V?$allocator@U?$pair@$$CBW4ItemDefinitionIndexx@@UDefItem_t@@@std@@@4@$0A@@std@@@std@@QAE@XZ 10018b60 f i recvproxy.obj
 0001:00017c00       ?Hooked_RecvProxy_Viewmodel@@YAXPAVCRecvProxyData@@PAX1@Z 10018c00 f   recvproxy.obj
 0001:00017e40       ?NetvarHook@@YAXXZ         10018e40 f   recvproxy.obj
 0001:00018070       ?NoSmoke@@YAXPBVCRecvProxyData@@PAX1@Z 10019070 f   recvproxy.obj
 0001:00018090       ?SetViewModelSequence2@@YAXPBVCRecvProxyData@@PAX1@Z 10019090 f   recvproxy.obj
 0001:00018460       ?UnloadProxy@@YAXXZ        10019460 f   recvproxy.obj
 0001:00018670       ?_Buyheadnode@?$_Tree_comp_alloc@V?$_Tmap_traits@W4ItemDefinitionIndexx@@UDefItem_t@@U?$less@W4ItemDefinitionIndexx@@@std@@V?$allocator@U?$pair@$$CBW4ItemDefinitionIndexx@@UDefItem_t@@@std@@@4@$0A@@std@@@std@@QAEPAU?$_Tree_node@U?$pair@$$CBW4ItemDefinitionIndexx@@UDefItem_t@@@std@@PAX@2@XZ 10019670 f i recvproxy.obj
 0001:00018690       ?_Buynode0@?$_Tree_comp_alloc@V?$_Tmap_traits@W4ItemDefinitionIndexx@@UDefItem_t@@U?$less@W4ItemDefinitionIndexx@@@std@@V?$allocator@U?$pair@$$CBW4ItemDefinitionIndexx@@UDefItem_t@@@std@@@4@$0A@@std@@@std@@QAEPAU?$_Tree_node@U?$pair@$$CBW4ItemDefinitionIndexx@@UDefItem_t@@@std@@PAX@2@XZ 10019690 f i recvproxy.obj
 0001:000186b0       ?_Destroy_if_node@?$_Tree@V?$_Tmap_traits@W4ItemDefinitionIndexx@@UDefItem_t@@U?$less@W4ItemDefinitionIndexx@@@std@@V?$allocator@U?$pair@$$CBW4ItemDefinitionIndexx@@UDefItem_t@@@std@@@4@$0A@@std@@@std@@IAEXPAU?$_Tree_node@U?$pair@$$CBW4ItemDefinitionIndexx@@UDefItem_t@@@std@@PAX@2@@Z 100196b0 f i recvproxy.obj
 0001:000186d0       ?_Erase@?$_Tree@V?$_Tmap_traits@W4ItemDefinitionIndexx@@UDefItem_t@@U?$less@W4ItemDefinitionIndexx@@@std@@V?$allocator@U?$pair@$$CBW4ItemDefinitionIndexx@@UDefItem_t@@@std@@@4@$0A@@std@@@std@@IAEXPAU?$_Tree_node@U?$pair@$$CBW4ItemDefinitionIndexx@@UDefItem_t@@@std@@PAX@2@@Z 100196d0 f i recvproxy.obj
 0001:00018710       ?_Lrotate@?$_Tree@V?$_Tset_traits@V?$basic_string@DU?$char_traits@D@std@@V?$allocator@D@2@@std@@U?$less@V?$basic_string@DU?$char_traits@D@std@@V?$allocator@D@2@@std@@@2@V?$allocator@V?$basic_string@DU?$char_traits@D@std@@V?$allocator@D@2@@std@@@2@$0A@@std@@@std@@IAEXPAU?$_Tree_node@V?$basic_string@DU?$char_traits@D@std@@V?$allocator@D@2@@std@@PAX@2@@Z 10019710 f i Configuration.obj
 0001:00018710       ?_Lrotate@?$_Tree@V?$_Tmap_traits@W4ItemDefinitionIndexx@@UDefItem_t@@U?$less@W4ItemDefinitionIndexx@@@std@@V?$allocator@U?$pair@$$CBW4ItemDefinitionIndexx@@UDefItem_t@@@std@@@4@$0A@@std@@@std@@IAEXPAU?$_Tree_node@U?$pair@$$CBW4ItemDefinitionIndexx@@UDefItem_t@@@std@@PAX@2@@Z 10019710 f i recvproxy.obj
 0001:00018770       ?_Rrotate@?$_Tree@V?$_Tset_traits@V?$basic_string@DU?$char_traits@D@std@@V?$allocator@D@2@@std@@U?$less@V?$basic_string@DU?$char_traits@D@std@@V?$allocator@D@2@@std@@@2@V?$allocator@V?$basic_string@DU?$char_traits@D@std@@V?$allocator@D@2@@std@@@2@$0A@@std@@@std@@IAEXPAU?$_Tree_node@V?$basic_string@DU?$char_traits@D@std@@V?$allocator@D@2@@std@@PAX@2@@Z 10019770 f i Configuration.obj
 0001:00018770       ?_Rrotate@?$_Tree@V?$_Tmap_traits@W4ItemDefinitionIndexx@@UDefItem_t@@U?$less@W4ItemDefinitionIndexx@@@std@@V?$allocator@U?$pair@$$CBW4ItemDefinitionIndexx@@UDefItem_t@@@std@@@4@$0A@@std@@@std@@IAEXPAU?$_Tree_node@U?$pair@$$CBW4ItemDefinitionIndexx@@UDefItem_t@@@std@@PAX@2@@Z 10019770 f i recvproxy.obj
 0001:000187d0       ?CanHit@@YA_NPAVC_BaseEntity@@ABVVector@@PAM@Z 100197d0 f   Autowall.obj
 0001:00018a10       ?CanWallbang@@YA_NAAH@Z    10019a10 f   Autowall.obj
 0001:00018d80       ?HandleBulletPenetration@@YA_NPAVCSWeaponInfo@@AAUFireBulletData@@@Z 10019d80 f   Autowall.obj
 0001:000190b0       ?ShouldHitEntity@CTraceFilter@@UAE_NPAVC_BaseEntity@@H@Z 1001a0b0 f i Autowall.obj
 0001:000190c0       ?SimulateFireBullet@@YA_NPAVC_BaseEntity@@0PAVCBaseCombatWeapon@@AAUFireBulletData@@@Z 1001a0c0 f   Autowall.obj
 0001:00019430       ?CreateMaterial@@YAPAVIMaterial@@_N00@Z 1001a430 f   Chams.obj
 0001:00019600       ___local_stdio_printf_options 1001a600 f i Chams.obj
 0001:00019610       _sprintf_s                 1001a610 f i Chams.obj
 0001:00019640       ??$?HDU?$char_traits@D@std@@V?$allocator@D@1@@std@@YA?AV?$basic_string@DU?$char_traits@D@std@@V?$allocator@D@2@@0@$$QAV10@0@Z 1001a640 f i Configuration.obj
 0001:00019780       ??$?HDU?$char_traits@D@std@@V?$allocator@D@1@@std@@YA?AV?$basic_string@DU?$char_traits@D@std@@V?$allocator@D@2@@0@$$QAV10@QBD@Z 1001a780 f i Configuration.obj
 0001:00019820       ??$_Fill_unchecked@PAV?$_List_unchecked_iterator@V?$_List_val@U?$_List_simple_types@U?$pair@$$CBV?$basic_string@DU?$char_traits@D@std@@V?$allocator@D@2@@std@@UskinInfo@@@std@@@std@@@std@@@std@@V12@@std@@YAXPAV?$_List_unchecked_iterator@V?$_List_val@U?$_List_simple_types@U?$pair@$$CBV?$basic_string@DU?$char_traits@D@std@@V?$allocator@D@2@@std@@UskinInfo@@@std@@@std@@@std@@@0@0ABV10@@Z 1001a820 f i Configuration.obj
 0001:00019820       ??$_Fill_unchecked@PAV?$_List_unchecked_iterator@V?$_List_val@U?$_List_simple_types@U?$pair@$$CBV?$basic_string@DU?$char_traits@D@std@@V?$allocator@D@2@@std@@V?$set@V?$basic_string@DU?$char_traits@D@std@@V?$allocator@D@2@@std@@U?$less@V?$basic_string@DU?$char_traits@D@std@@V?$allocator@D@2@@std@@@2@V?$allocator@V?$basic_string@DU?$char_traits@D@std@@V?$allocator@D@2@@std@@@2@@2@@std@@@std@@@std@@@std@@V12@@std@@YAXPAV?$_List_unchecked_iterator@V?$_List_val@U?$_List_simple_types@U?$pair@$$CBV?$basic_string@DU?$char_traits@D@std@@V?$allocator@D@2@@std@@V?$set@V?$basic_string@DU?$char_traits@D@std@@V?$allocator@D@2@@std@@U?$less@V?$basic_string@DU?$char_traits@D@std@@V?$allocator@D@2@@std@@@2@V?$allocator@V?$basic_string@DU?$char_traits@D@std@@V?$allocator@D@2@@std@@@2@@2@@std@@@std@@@std@@@0@0ABV10@@Z 1001a820 f i Configuration.obj
 0001:00019820       ??$_Fill_unchecked@PAV?$_List_unchecked_iterator@V?$_List_val@U?$_List_simple_types@U?$pair@$$CBV?$basic_string@DU?$char_traits@D@std@@V?$allocator@D@2@@std@@V12@@std@@@std@@@std@@@std@@V12@@std@@YAXPAV?$_List_unchecked_iterator@V?$_List_val@U?$_List_simple_types@U?$pair@$$CBV?$basic_string@DU?$char_traits@D@std@@V?$allocator@D@2@@std@@V12@@std@@@std@@@std@@@0@0ABV10@@Z 1001a820 f i Configuration.obj
 0001:00019820       ??$_Fill_unchecked@PAV?$_List_unchecked_iterator@V?$_List_val@U?$_List_simple_types@U?$pair@QADPAD@std@@@std@@@std@@@std@@V12@@std@@YAXPAV?$_List_unchecked_iterator@V?$_List_val@U?$_List_simple_types@U?$pair@QADPAD@std@@@std@@@std@@@0@0ABV10@@Z 1001a820 f i Hooks.obj
 0001:00019cb0       ??$_UIntegral_to_buff@DI@std@@YAPADPADI@Z 1001acb0 f i Configuration.obj
 0001:00019cf0       ??$_Uninit_alloc_fill_n1@PAV?$_List_unchecked_iterator@V?$_List_val@U?$_List_simple_types@U?$pair@$$CBV?$basic_string@DU?$char_traits@D@std@@V?$allocator@D@2@@std@@V?$set@V?$basic_string@DU?$char_traits@D@std@@V?$allocator@D@2@@std@@U?$less@V?$basic_string@DU?$char_traits@D@std@@V?$allocator@D@2@@std@@@2@V?$allocator@V?$basic_string@DU?$char_traits@D@std@@V?$allocator@D@2@@std@@@2@@2@@std@@@std@@@std@@@std@@IV?$allocator@V?$_List_unchecked_iterator@V?$_List_val@U?$_List_simple_types@U?$pair@$$CBV?$basic_string@DU?$char_traits@D@std@@V?$allocator@D@2@@std@@V?$set@V?$basic_string@DU?$char_traits@D@std@@V?$allocator@D@2@@std@@U?$less@V?$basic_string@DU?$char_traits@D@std@@V?$allocator@D@2@@std@@@2@V?$allocator@V?$basic_string@DU?$char_traits@D@std@@V?$allocator@D@2@@std@@@2@@2@@std@@@std@@@std@@@std@@@2@@std@@YAPAV?$_List_unchecked_iterator@V?$_List_val@U?$_List_simple_types@U?$pair@$$CBV?$basic_string@DU?$char_traits@D@std@@V?$allocator@D@2@@std@@V?$set@V?$basic_string@DU?$char_traits@D@std@@V?$allocator@D@2@@std@@U?$less@V?$basic_string@DU?$char_traits@D@std@@V?$allocator@D@2@@std@@@2@V?$allocator@V?$basic_string@DU?$char_traits@D@std@@V?$allocator@D@2@@std@@@2@@2@@std@@@std@@@std@@@0@PAV10@IABV10@AAV?$allocator@V?$_List_unchecked_iterator@V?$_List_val@U?$_List_simple_types@U?$pair@$$CBV?$basic_string@DU?$char_traits@D@std@@V?$allocator@D@2@@std@@V?$set@V?$basic_string@DU?$char_traits@D@std@@V?$allocator@D@2@@std@@U?$less@V?$basic_string@DU?$char_traits@D@std@@V?$allocator@D@2@@std@@@2@V?$allocator@V?$basic_string@DU?$char_traits@D@std@@V?$allocator@D@2@@std@@@2@@2@@std@@@std@@@std@@@std@@@0@U?$integral_constant@_N$0A@@0@@Z 1001acf0 f i Configuration.obj
 0001:00019cf0       ??$_Uninit_alloc_fill_n1@PAV?$_List_unchecked_iterator@V?$_List_val@U?$_List_simple_types@U?$pair@$$CBV?$basic_string@DU?$char_traits@D@std@@V?$allocator@D@2@@std@@UskinInfo@@@std@@@std@@@std@@@std@@IV?$allocator@V?$_List_unchecked_iterator@V?$_List_val@U?$_List_simple_types@U?$pair@$$CBV?$basic_string@DU?$char_traits@D@std@@V?$allocator@D@2@@std@@UskinInfo@@@std@@@std@@@std@@@std@@@2@@std@@YAPAV?$_List_unchecked_iterator@V?$_List_val@U?$_List_simple_types@U?$pair@$$CBV?$basic_string@DU?$char_traits@D@std@@V?$allocator@D@2@@std@@UskinInfo@@@std@@@std@@@std@@@0@PAV10@IABV10@AAV?$allocator@V?$_List_unchecked_iterator@V?$_List_val@U?$_List_simple_types@U?$pair@$$CBV?$basic_string@DU?$char_traits@D@std@@V?$allocator@D@2@@std@@UskinInfo@@@std@@@std@@@std@@@std@@@0@U?$integral_constant@_N$0A@@0@@Z 1001acf0 f i Configuration.obj
 0001:00019cf0       ??$_Uninit_alloc_fill_n1@PAV?$_List_unchecked_iterator@V?$_List_val@U?$_List_simple_types@U?$pair@QADPAD@std@@@std@@@std@@@std@@IV?$allocator@V?$_List_unchecked_iterator@V?$_List_val@U?$_List_simple_types@U?$pair@QADPAD@std@@@std@@@std@@@std@@@2@@std@@YAPAV?$_List_unchecked_iterator@V?$_List_val@U?$_List_simple_types@U?$pair@QADPAD@std@@@std@@@std@@@0@PAV10@IABV10@AAV?$allocator@V?$_List_unchecked_iterator@V?$_List_val@U?$_List_simple_types@U?$pair@QADPAD@std@@@std@@@std@@@std@@@0@U?$integral_constant@_N$0A@@0@@Z 1001acf0 f i Hooks.obj
 0001:00019cf0       ??$_Uninit_alloc_fill_n1@PAV?$_List_unchecked_iterator@V?$_List_val@U?$_List_simple_types@U?$pair@$$CBV?$basic_string@DU?$char_traits@D@std@@V?$allocator@D@2@@std@@V12@@std@@@std@@@std@@@std@@IV?$allocator@V?$_List_unchecked_iterator@V?$_List_val@U?$_List_simple_types@U?$pair@$$CBV?$basic_string@DU?$char_traits@D@std@@V?$allocator@D@2@@std@@V12@@std@@@std@@@std@@@std@@@2@@std@@YAPAV?$_List_unchecked_iterator@V?$_List_val@U?$_List_simple_types@U?$pair@$$CBV?$basic_string@DU?$char_traits@D@std@@V?$allocator@D@2@@std@@V12@@std@@@std@@@std@@@0@PAV10@IABV10@AAV?$allocator@V?$_List_unchecked_iterator@V?$_List_val@U?$_List_simple_types@U?$pair@$$CBV?$basic_string@DU?$char_traits@D@std@@V?$allocator@D@2@@std@@V12@@std@@@std@@@std@@@std@@@0@U?$integral_constant@_N$0A@@0@@Z 1001acf0 f i Configuration.obj
 0001:00019d10       ??$_Uninitialized_move_al_unchecked@PAV?$_List_unchecked_iterator@V?$_List_val@U?$_List_simple_types@U?$pair@$$CBV?$basic_string@DU?$char_traits@D@std@@V?$allocator@D@2@@std@@UskinInfo@@@std@@@std@@@std@@@std@@PAV12@V?$allocator@V?$_List_unchecked_iterator@V?$_List_val@U?$_List_simple_types@U?$pair@$$CBV?$basic_string@DU?$char_traits@D@std@@V?$allocator@D@2@@std@@UskinInfo@@@std@@@std@@@std@@@std@@@2@@std@@YAPAV?$_List_unchecked_iterator@V?$_List_val@U?$_List_simple_types@U?$pair@$$CBV?$basic_string@DU?$char_traits@D@std@@V?$allocator@D@2@@std@@UskinInfo@@@std@@@std@@@std@@@0@PAV10@00AAV?$allocator@V?$_List_unchecked_iterator@V?$_List_val@U?$_List_simple_types@U?$pair@$$CBV?$basic_string@DU?$char_traits@D@std@@V?$allocator@D@2@@std@@UskinInfo@@@std@@@std@@@std@@@std@@@0@U_General_ptr_iterator_tag@0@U_Unused_parameter@0@@Z 1001ad10 f i Configuration.obj
 0001:00019d10       ??$_Uninitialized_move_al_unchecked@PAV?$_List_unchecked_iterator@V?$_List_val@U?$_List_simple_types@U?$pair@$$CBV?$basic_string@DU?$char_traits@D@std@@V?$allocator@D@2@@std@@V12@@std@@@std@@@std@@@std@@PAV12@V?$allocator@V?$_List_unchecked_iterator@V?$_List_val@U?$_List_simple_types@U?$pair@$$CBV?$basic_string@DU?$char_traits@D@std@@V?$allocator@D@2@@std@@V12@@std@@@std@@@std@@@std@@@2@@std@@YAPAV?$_List_unchecked_iterator@V?$_List_val@U?$_List_simple_types@U?$pair@$$CBV?$basic_string@DU?$char_traits@D@std@@V?$allocator@D@2@@std@@V12@@std@@@std@@@std@@@0@PAV10@00AAV?$allocator@V?$_List_unchecked_iterator@V?$_List_val@U?$_List_simple_types@U?$pair@$$CBV?$basic_string@DU?$char_traits@D@std@@V?$allocator@D@2@@std@@V12@@std@@@std@@@std@@@std@@@0@U_General_ptr_iterator_tag@0@U_Unused_parameter@0@@Z 1001ad10 f i Configuration.obj
 0001:00019d10       ??$_Uninitialized_move_al_unchecked@PAV?$_List_unchecked_iterator@V?$_List_val@U?$_List_simple_types@U?$pair@QADPAD@std@@@std@@@std@@@std@@PAV12@V?$allocator@V?$_List_unchecked_iterator@V?$_List_val@U?$_List_simple_types@U?$pair@QADPAD@std@@@std@@@std@@@std@@@2@@std@@YAPAV?$_List_unchecked_iterator@V?$_List_val@U?$_List_simple_types@U?$pair@QADPAD@std@@@std@@@std@@@0@PAV10@00AAV?$allocator@V?$_List_unchecked_iterator@V?$_List_val@U?$_List_simple_types@U?$pair@QADPAD@std@@@std@@@std@@@std@@@0@U_General_ptr_iterator_tag@0@U_Unused_parameter@0@@Z 1001ad10 f i Hooks.obj
 0001:00019d10       ??$_Uninitialized_move_al_unchecked@PAV?$_List_unchecked_iterator@V?$_List_val@U?$_List_simple_types@U?$pair@$$CBV?$basic_string@DU?$char_traits@D@std@@V?$allocator@D@2@@std@@V?$set@V?$basic_string@DU?$char_traits@D@std@@V?$allocator@D@2@@std@@U?$less@V?$basic_string@DU?$char_traits@D@std@@V?$allocator@D@2@@std@@@2@V?$allocator@V?$basic_string@DU?$char_traits@D@std@@V?$allocator@D@2@@std@@@2@@2@@std@@@std@@@std@@@std@@PAV12@V?$allocator@V?$_List_unchecked_iterator@V?$_List_val@U?$_List_simple_types@U?$pair@$$CBV?$basic_string@DU?$char_traits@D@std@@V?$allocator@D@2@@std@@V?$set@V?$basic_string@DU?$char_traits@D@std@@V?$allocator@D@2@@std@@U?$less@V?$basic_string@DU?$char_traits@D@std@@V?$allocator@D@2@@std@@@2@V?$allocator@V?$basic_string@DU?$char_traits@D@std@@V?$allocator@D@2@@std@@@2@@2@@std@@@std@@@std@@@std@@@2@@std@@YAPAV?$_List_unchecked_iterator@V?$_List_val@U?$_List_simple_types@U?$pair@$$CBV?$basic_string@DU?$char_traits@D@std@@V?$allocator@D@2@@std@@V?$set@V?$basic_string@DU?$char_traits@D@std@@V?$allocator@D@2@@std@@U?$less@V?$basic_string@DU?$char_traits@D@std@@V?$allocator@D@2@@std@@@2@V?$allocator@V?$basic_string@DU?$char_traits@D@std@@V?$allocator@D@2@@std@@@2@@2@@std@@@std@@@std@@@0@PAV10@00AAV?$allocator@V?$_List_unchecked_iterator@V?$_List_val@U?$_List_simple_types@U?$pair@$$CBV?$basic_string@DU?$char_traits@D@std@@V?$allocator@D@2@@std@@V?$set@V?$basic_string@DU?$char_traits@D@std@@V?$allocator@D@2@@std@@U?$less@V?$basic_string@DU?$char_traits@D@std@@V?$allocator@D@2@@std@@@2@V?$allocator@V?$basic_string@DU?$char_traits@D@std@@V?$allocator@D@2@@std@@@2@@2@@std@@@std@@@std@@@std@@@0@U_General_ptr_iterator_tag@0@U_Unused_parameter@0@@Z 1001ad10 f i Configuration.obj
 0001:00019d50       ??$emplace_back@PAV?$ConfigValue@H@@@?$vector@PAV?$ConfigValue@H@@V?$allocator@PAV?$ConfigValue@H@@@std@@@std@@QAEX$$QAPAV?$ConfigValue@H@@@Z 1001ad50 f i Configuration.obj
 0001:00019d50       ??$emplace_back@ABQAURecvTable@@@?$vector@PAURecvTable@@V?$allocator@PAURecvTable@@@std@@@std@@QAEXABQAURecvTable@@@Z 1001ad50 f i NetVarManager.obj
 0001:00019d50       ??$emplace_back@PAV?$ConfigValue@_N@@@?$vector@PAV?$ConfigValue@_N@@V?$allocator@PAV?$ConfigValue@_N@@@std@@@std@@QAEX$$QAPAV?$ConfigValue@_N@@@Z 1001ad50 f i Configuration.obj
 0001:00019d50       ??$emplace_back@PAV?$ConfigValue@M@@@?$vector@PAV?$ConfigValue@M@@V?$allocator@PAV?$ConfigValue@M@@@std@@@std@@QAEX$$QAPAV?$ConfigValue@M@@@Z 1001ad50 f i Configuration.obj
 0001:00019d50       ??$emplace_back@H@?$vector@HV?$allocator@H@std@@@std@@QAEX$$QAH@Z 1001ad50 f i RageBot.obj
 0001:00019e80       ??0<unnamed-type-Skinchanger>@Variables@@QAE@XZ 1001ae80 f i Configuration.obj
 0001:0001a0d0       ??0?$basic_string@DU?$char_traits@D@std@@V?$allocator@D@2@@std@@QAE@ABV01@@Z 1001b0d0 f i Configuration.obj
 0001:0001a190       ??0?$basic_string@DU?$char_traits@D@std@@V?$allocator@D@2@@std@@QAE@ID@Z 1001b190 f i Configuration.obj
 0001:0001a2d0       ??0?$basic_string@DU?$char_traits@D@std@@V?$allocator@D@2@@std@@QAE@QBD@Z 1001b2d0 f i Configuration.obj
 0001:0001a310       ??0Variables@@QAE@XZ       1001b310 f i Configuration.obj
 0001:0001a7c0       ??1<unnamed-type-Skinchanger>@Variables@@QAE@XZ 1001b7c0 f i Configuration.obj
 0001:0001a8c0       ??1?$_Hash@V?$_Umap_traits@V?$basic_string@DU?$char_traits@D@std@@V?$allocator@D@2@@std@@UskinInfo@@V?$_Uhash_compare@V?$basic_string@DU?$char_traits@D@std@@V?$allocator@D@2@@std@@U?$hash@V?$basic_string@DU?$char_traits@D@std@@V?$allocator@D@2@@std@@@2@U?$equal_to@V?$basic_string@DU?$char_traits@D@std@@V?$allocator@D@2@@std@@@2@@2@V?$allocator@U?$pair@$$CBV?$basic_string@DU?$char_traits@D@std@@V?$allocator@D@2@@std@@UskinInfo@@@std@@@2@$0A@@std@@@std@@QAE@XZ 1001b8c0 f i Configuration.obj
 0001:0001a920       ??1?$_Hash@V?$_Umap_traits@V?$basic_string@DU?$char_traits@D@std@@V?$allocator@D@2@@std@@V12@V?$_Uhash_compare@V?$basic_string@DU?$char_traits@D@std@@V?$allocator@D@2@@std@@U?$hash@V?$basic_string@DU?$char_traits@D@std@@V?$allocator@D@2@@std@@@2@U?$equal_to@V?$basic_string@DU?$char_traits@D@std@@V?$allocator@D@2@@std@@@2@@2@V?$allocator@U?$pair@$$CBV?$basic_string@DU?$char_traits@D@std@@V?$allocator@D@2@@std@@V12@@std@@@2@$0A@@std@@@std@@QAE@XZ 1001b920 f i Configuration.obj
 0001:0001a980       ??1?$_Hash@V?$_Umap_traits@V?$basic_string@DU?$char_traits@D@std@@V?$allocator@D@2@@std@@V?$set@V?$basic_string@DU?$char_traits@D@std@@V?$allocator@D@2@@std@@U?$less@V?$basic_string@DU?$char_traits@D@std@@V?$allocator@D@2@@std@@@2@V?$allocator@V?$basic_string@DU?$char_traits@D@std@@V?$allocator@D@2@@std@@@2@@2@V?$_Uhash_compare@V?$basic_string@DU?$char_traits@D@std@@V?$allocator@D@2@@std@@U?$hash@V?$basic_string@DU?$char_traits@D@std@@V?$allocator@D@2@@std@@@2@U?$equal_to@V?$basic_string@DU?$char_traits@D@std@@V?$allocator@D@2@@std@@@2@@2@V?$allocator@U?$pair@$$CBV?$basic_string@DU?$char_traits@D@std@@V?$allocator@D@2@@std@@V?$set@V?$basic_string@DU?$char_traits@D@std@@V?$allocator@D@2@@std@@U?$less@V?$basic_string@DU?$char_traits@D@std@@V?$allocator@D@2@@std@@@2@V?$allocator@V?$basic_string@DU?$char_traits@D@std@@V?$allocator@D@2@@std@@@2@@2@@std@@@2@$0A@@std@@@std@@QAE@XZ 1001b980 f i Configuration.obj
 0001:0001a9e0       ??1?$list@U?$pair@$$CBV?$basic_string@DU?$char_traits@D@std@@V?$allocator@D@2@@std@@UskinInfo@@@std@@V?$allocator@U?$pair@$$CBV?$basic_string@DU?$char_traits@D@std@@V?$allocator@D@2@@std@@UskinInfo@@@std@@@2@@std@@QAE@XZ 1001b9e0 f i Configuration.obj
 0001:0001aac0       ??1?$list@U?$pair@$$CBV?$basic_string@DU?$char_traits@D@std@@V?$allocator@D@2@@std@@V12@@std@@V?$allocator@U?$pair@$$CBV?$basic_string@DU?$char_traits@D@std@@V?$allocator@D@2@@std@@V12@@std@@@2@@std@@QAE@XZ 1001bac0 f i Configuration.obj
 0001:0001aba0       ??1?$list@U?$pair@$$CBV?$basic_string@DU?$char_traits@D@std@@V?$allocator@D@2@@std@@V?$set@V?$basic_string@DU?$char_traits@D@std@@V?$allocator@D@2@@std@@U?$less@V?$basic_string@DU?$char_traits@D@std@@V?$allocator@D@2@@std@@@2@V?$allocator@V?$basic_string@DU?$char_traits@D@std@@V?$allocator@D@2@@std@@@2@@2@@std@@V?$allocator@U?$pair@$$CBV?$basic_string@DU?$char_traits@D@std@@V?$allocator@D@2@@std@@V?$set@V?$basic_string@DU?$char_traits@D@std@@V?$allocator@D@2@@std@@U?$less@V?$basic_string@DU?$char_traits@D@std@@V?$allocator@D@2@@std@@@2@V?$allocator@V?$basic_string@DU?$char_traits@D@std@@V?$allocator@D@2@@std@@@2@@2@@std@@@2@@std@@QAE@XZ 1001bba0 f i Configuration.obj
 0001:0001aca0       ??1?$unordered_map@V?$basic_string@DU?$char_traits@D@std@@V?$allocator@D@2@@std@@UskinInfo@@U?$hash@V?$basic_string@DU?$char_traits@D@std@@V?$allocator@D@2@@std@@@2@U?$equal_to@V?$basic_string@DU?$char_traits@D@std@@V?$allocator@D@2@@std@@@2@V?$allocator@U?$pair@$$CBV?$basic_string@DU?$char_traits@D@std@@V?$allocator@D@2@@std@@UskinInfo@@@std@@@2@@std@@QAE@XZ 1001bca0 f i Configuration.obj
 0001:0001acb0       ??1?$unordered_map@V?$basic_string@DU?$char_traits@D@std@@V?$allocator@D@2@@std@@V?$set@V?$basic_string@DU?$char_traits@D@std@@V?$allocator@D@2@@std@@U?$less@V?$basic_string@DU?$char_traits@D@std@@V?$allocator@D@2@@std@@@2@V?$allocator@V?$basic_string@DU?$char_traits@D@std@@V?$allocator@D@2@@std@@@2@@2@U?$hash@V?$basic_string@DU?$char_traits@D@std@@V?$allocator@D@2@@std@@@2@U?$equal_to@V?$basic_string@DU?$char_traits@D@std@@V?$allocator@D@2@@std@@@2@V?$allocator@U?$pair@$$CBV?$basic_string@DU?$char_traits@D@std@@V?$allocator@D@2@@std@@V?$set@V?$basic_string@DU?$char_traits@D@std@@V?$allocator@D@2@@std@@U?$less@V?$basic_string@DU?$char_traits@D@std@@V?$allocator@D@2@@std@@@2@V?$allocator@V?$basic_string@DU?$char_traits@D@std@@V?$allocator@D@2@@std@@@2@@2@@std@@@2@@std@@QAE@XZ 1001bcb0 f i Configuration.obj
 0001:0001acc0       ??1?$vector@V?$_List_unchecked_iterator@V?$_List_val@U?$_List_simple_types@U?$pair@$$CBV?$basic_string@DU?$char_traits@D@std@@V?$allocator@D@2@@std@@V12@@std@@@std@@@std@@@std@@V?$allocator@V?$_List_unchecked_iterator@V?$_List_val@U?$_List_simple_types@U?$pair@$$CBV?$basic_string@DU?$char_traits@D@std@@V?$allocator@D@2@@std@@V12@@std@@@std@@@std@@@std@@@2@@std@@QAE@XZ 1001bcc0 f i Configuration.obj
 0001:0001acc0       ??1?$vector@HV?$allocator@H@std@@@std@@QAE@XZ 1001bcc0 f i RageBot.obj
 0001:0001acc0       ??1?$vector@PAV?$ConfigValue@H@@V?$allocator@PAV?$ConfigValue@H@@@std@@@std@@QAE@XZ 1001bcc0 f i Configuration.obj
 0001:0001acc0       ??1?$vector@PAV?$ConfigValue@_N@@V?$allocator@PAV?$ConfigValue@_N@@@std@@@std@@QAE@XZ 1001bcc0 f i Configuration.obj
 0001:0001acc0       ??1?$vector@V?$_List_unchecked_iterator@V?$_List_val@U?$_List_simple_types@U?$pair@$$CBV?$basic_string@DU?$char_traits@D@std@@V?$allocator@D@2@@std@@V?$set@V?$basic_string@DU?$char_traits@D@std@@V?$allocator@D@2@@std@@U?$less@V?$basic_string@DU?$char_traits@D@std@@V?$allocator@D@2@@std@@@2@V?$allocator@V?$basic_string@DU?$char_traits@D@std@@V?$allocator@D@2@@std@@@2@@2@@std@@@std@@@std@@@std@@V?$allocator@V?$_List_unchecked_iterator@V?$_List_val@U?$_List_simple_types@U?$pair@$$CBV?$basic_string@DU?$char_traits@D@std@@V?$allocator@D@2@@std@@V?$set@V?$basic_string@DU?$char_traits@D@std@@V?$allocator@D@2@@std@@U?$less@V?$basic_string@DU?$char_traits@D@std@@V?$allocator@D@2@@std@@@2@V?$allocator@V?$basic_string@DU?$char_traits@D@std@@V?$allocator@D@2@@std@@@2@@2@@std@@@std@@@std@@@std@@@2@@std@@QAE@XZ 1001bcc0 f i Configuration.obj
 0001:0001acc0       ??1?$vector@V?$_List_unchecked_iterator@V?$_List_val@U?$_List_simple_types@U?$pair@$$CBV?$basic_string@DU?$char_traits@D@std@@V?$allocator@D@2@@std@@UskinInfo@@@std@@@std@@@std@@@std@@V?$allocator@V?$_List_unchecked_iterator@V?$_List_val@U?$_List_simple_types@U?$pair@$$CBV?$basic_string@DU?$char_traits@D@std@@V?$allocator@D@2@@std@@UskinInfo@@@std@@@std@@@std@@@std@@@2@@std@@QAE@XZ 1001bcc0 f i Configuration.obj
 0001:0001acc0       ??1?$vector@V?$_List_unchecked_iterator@V?$_List_val@U?$_List_simple_types@U?$pair@QADPAD@std@@@std@@@std@@@std@@V?$allocator@V?$_List_unchecked_iterator@V?$_List_val@U?$_List_simple_types@U?$pair@QADPAD@std@@@std@@@std@@@std@@@2@@std@@QAE@XZ 1001bcc0 f i Hooks.obj
 0001:0001acc0       ??1?$vector@PAV?$ConfigValue@M@@V?$allocator@PAV?$ConfigValue@M@@@std@@@std@@QAE@XZ 1001bcc0 f i Configuration.obj
 0001:0001ad20       ??4?$basic_string@DU?$char_traits@D@std@@V?$allocator@D@2@@std@@QAEAAV01@$$QAV01@@Z 1001bd20 f i Configuration.obj
 0001:0001ad60       ?GetWeaponName@@YAPBDH@Z   1001bd60 f   Configuration.obj
 0001:0001afe0       ?Load@CConfig@@QAEXXZ      1001bfe0 f   Configuration.obj
 0001:0001bd50       ?Save@CConfig@@QAEXXZ      1001cd50 f   Configuration.obj
 0001:0001cbb0       ?Setup@CConfig@@QAEXXZ     1001dbb0 f   Configuration.obj
 0001:00020d90       ?SetupValue@CConfig@@AAEXAAHHV?$basic_string@DU?$char_traits@D@std@@V?$allocator@D@2@@std@@1@Z 10021d90 f   Configuration.obj
 0001:00020fb0       ?SetupValue@CConfig@@AAEXAAMMV?$basic_string@DU?$char_traits@D@std@@V?$allocator@D@2@@std@@1@Z 10021fb0 f   Configuration.obj
 0001:000211d0       ?SetupValue@CConfig@@AAEXAA_N_NV?$basic_string@DU?$char_traits@D@std@@V?$allocator@D@2@@std@@2@Z 100221d0 f   Configuration.obj
 0001:000213f0       ?_Buynode0@?$_List_alloc@U?$_List_base_types@U?$pair@$$CBV?$basic_string@DU?$char_traits@D@std@@V?$allocator@D@2@@std@@UskinInfo@@@std@@V?$allocator@U?$pair@$$CBV?$basic_string@DU?$char_traits@D@std@@V?$allocator@D@2@@std@@UskinInfo@@@std@@@2@@std@@@std@@QAEPAU?$_List_node@U?$pair@$$CBV?$basic_string@DU?$char_traits@D@std@@V?$allocator@D@2@@std@@UskinInfo@@@std@@PAX@2@PAU32@0@Z 100223f0 f i Configuration.obj
 0001:00021420       ?_Buynode0@?$_List_alloc@U?$_List_base_types@U?$pair@$$CBV?$basic_string@DU?$char_traits@D@std@@V?$allocator@D@2@@std@@V12@@std@@V?$allocator@U?$pair@$$CBV?$basic_string@DU?$char_traits@D@std@@V?$allocator@D@2@@std@@V12@@std@@@2@@std@@@std@@QAEPAU?$_List_node@U?$pair@$$CBV?$basic_string@DU?$char_traits@D@std@@V?$allocator@D@2@@std@@V12@@std@@PAX@2@PAU32@0@Z 10022420 f i Configuration.obj
 0001:00021450       ?_Buynode0@?$_List_alloc@U?$_List_base_types@U?$pair@$$CBV?$basic_string@DU?$char_traits@D@std@@V?$allocator@D@2@@std@@V?$set@V?$basic_string@DU?$char_traits@D@std@@V?$allocator@D@2@@std@@U?$less@V?$basic_string@DU?$char_traits@D@std@@V?$allocator@D@2@@std@@@2@V?$allocator@V?$basic_string@DU?$char_traits@D@std@@V?$allocator@D@2@@std@@@2@@2@@std@@V?$allocator@U?$pair@$$CBV?$basic_string@DU?$char_traits@D@std@@V?$allocator@D@2@@std@@V?$set@V?$basic_string@DU?$char_traits@D@std@@V?$allocator@D@2@@std@@U?$less@V?$basic_string@DU?$char_traits@D@std@@V?$allocator@D@2@@std@@@2@V?$allocator@V?$basic_string@DU?$char_traits@D@std@@V?$allocator@D@2@@std@@@2@@2@@std@@@2@@std@@@std@@QAEPAU?$_List_node@U?$pair@$$CBV?$basic_string@DU?$char_traits@D@std@@V?$allocator@D@2@@std@@V?$set@V?$basic_string@DU?$char_traits@D@std@@V?$allocator@D@2@@std@@U?$less@V?$basic_string@DU?$char_traits@D@std@@V?$allocator@D@2@@std@@@2@V?$allocator@V?$basic_string@DU?$char_traits@D@std@@V?$allocator@D@2@@std@@@2@@2@@std@@PAX@2@PAU32@0@Z 10022450 f i Configuration.obj
 0001:00021480       ?_Erase@?$_Tree@V?$_Tset_traits@V?$basic_string@DU?$char_traits@D@std@@V?$allocator@D@2@@std@@U?$less@V?$basic_string@DU?$char_traits@D@std@@V?$allocator@D@2@@std@@@2@V?$allocator@V?$basic_string@DU?$char_traits@D@std@@V?$allocator@D@2@@std@@@2@$0A@@std@@@std@@IAEXPAU?$_Tree_node@V?$basic_string@DU?$char_traits@D@std@@V?$allocator@D@2@@std@@PAX@2@@Z 10022480 f i Configuration.obj
 0001:00021510       ?_Extract@?$_Tree@V?$_Tset_traits@V?$basic_string@DU?$char_traits@D@std@@V?$allocator@D@2@@std@@U?$less@V?$basic_string@DU?$char_traits@D@std@@V?$allocator@D@2@@std@@@2@V?$allocator@V?$basic_string@DU?$char_traits@D@std@@V?$allocator@D@2@@std@@@2@$0A@@std@@@std@@QAEPAU?$_Tree_node@V?$basic_string@DU?$char_traits@D@std@@V?$allocator@D@2@@std@@PAX@2@V?$_Tree_const_iterator@V?$_Tree_val@U?$_Tree_simple_types@V?$basic_string@DU?$char_traits@D@std@@V?$allocator@D@2@@std@@@std@@@std@@@2@@Z 10022510 f i Configuration.obj
 0001:000217d0       ?_Reallocate_exactly@?$vector@V?$_List_unchecked_iterator@V?$_List_val@U?$_List_simple_types@U?$pair@$$CBV?$basic_string@DU?$char_traits@D@std@@V?$allocator@D@2@@std@@V?$set@V?$basic_string@DU?$char_traits@D@std@@V?$allocator@D@2@@std@@U?$less@V?$basic_string@DU?$char_traits@D@std@@V?$allocator@D@2@@std@@@2@V?$allocator@V?$basic_string@DU?$char_traits@D@std@@V?$allocator@D@2@@std@@@2@@2@@std@@@std@@@std@@@std@@V?$allocator@V?$_List_unchecked_iterator@V?$_List_val@U?$_List_simple_types@U?$pair@$$CBV?$basic_string@DU?$char_traits@D@std@@V?$allocator@D@2@@std@@V?$set@V?$basic_string@DU?$char_traits@D@std@@V?$allocator@D@2@@std@@U?$less@V?$basic_string@DU?$char_traits@D@std@@V?$allocator@D@2@@std@@@2@V?$allocator@V?$basic_string@DU?$char_traits@D@std@@V?$allocator@D@2@@std@@@2@@2@@std@@@std@@@std@@@std@@@2@@std@@AAEXI@Z 100227d0 f i Configuration.obj
 0001:000217d0       ?_Reallocate_exactly@?$vector@V?$_List_unchecked_iterator@V?$_List_val@U?$_List_simple_types@U?$pair@$$CBV?$basic_string@DU?$char_traits@D@std@@V?$allocator@D@2@@std@@V12@@std@@@std@@@std@@@std@@V?$allocator@V?$_List_unchecked_iterator@V?$_List_val@U?$_List_simple_types@U?$pair@$$CBV?$basic_string@DU?$char_traits@D@std@@V?$allocator@D@2@@std@@V12@@std@@@std@@@std@@@std@@@2@@std@@AAEXI@Z 100227d0 f i Configuration.obj
 0001:000217d0       ?_Reallocate_exactly@?$vector@V?$_List_unchecked_iterator@V?$_List_val@U?$_List_simple_types@U?$pair@QADPAD@std@@@std@@@std@@@std@@V?$allocator@V?$_List_unchecked_iterator@V?$_List_val@U?$_List_simple_types@U?$pair@QADPAD@std@@@std@@@std@@@std@@@2@@std@@AAEXI@Z 100227d0 f i Hooks.obj
 0001:000217d0       ?_Reallocate_exactly@?$vector@V?$_List_unchecked_iterator@V?$_List_val@U?$_List_simple_types@U?$pair@$$CBV?$basic_string@DU?$char_traits@D@std@@V?$allocator@D@2@@std@@UskinInfo@@@std@@@std@@@std@@@std@@V?$allocator@V?$_List_unchecked_iterator@V?$_List_val@U?$_List_simple_types@U?$pair@$$CBV?$basic_string@DU?$char_traits@D@std@@V?$allocator@D@2@@std@@UskinInfo@@@std@@@std@@@std@@@std@@@2@@std@@AAEXI@Z 100227d0 f i Configuration.obj
 0001:00021900       ?append@?$basic_string@DU?$char_traits@D@std@@V?$allocator@D@2@@std@@QAEAAV12@ABV12@@Z 10022900 f i Configuration.obj
 0001:00021970       ?assign@?$vector@V?$_List_unchecked_iterator@V?$_List_val@U?$_List_simple_types@U?$pair@$$CBV?$basic_string@DU?$char_traits@D@std@@V?$allocator@D@2@@std@@UskinInfo@@@std@@@std@@@std@@@std@@V?$allocator@V?$_List_unchecked_iterator@V?$_List_val@U?$_List_simple_types@U?$pair@$$CBV?$basic_string@DU?$char_traits@D@std@@V?$allocator@D@2@@std@@UskinInfo@@@std@@@std@@@std@@@std@@@2@@std@@QAEXIABV?$_List_unchecked_iterator@V?$_List_val@U?$_List_simple_types@U?$pair@$$CBV?$basic_string@DU?$char_traits@D@std@@V?$allocator@D@2@@std@@UskinInfo@@@std@@@std@@@std@@@2@@Z 10022970 f i Configuration.obj
 0001:00021970       ?assign@?$vector@V?$_List_unchecked_iterator@V?$_List_val@U?$_List_simple_types@U?$pair@$$CBV?$basic_string@DU?$char_traits@D@std@@V?$allocator@D@2@@std@@V12@@std@@@std@@@std@@@std@@V?$allocator@V?$_List_unchecked_iterator@V?$_List_val@U?$_List_simple_types@U?$pair@$$CBV?$basic_string@DU?$char_traits@D@std@@V?$allocator@D@2@@std@@V12@@std@@@std@@@std@@@std@@@2@@std@@QAEXIABV?$_List_unchecked_iterator@V?$_List_val@U?$_List_simple_types@U?$pair@$$CBV?$basic_string@DU?$char_traits@D@std@@V?$allocator@D@2@@std@@V12@@std@@@std@@@std@@@2@@Z 10022970 f i Configuration.obj
 0001:00021970       ?assign@?$vector@V?$_List_unchecked_iterator@V?$_List_val@U?$_List_simple_types@U?$pair@$$CBV?$basic_string@DU?$char_traits@D@std@@V?$allocator@D@2@@std@@V?$set@V?$basic_string@DU?$char_traits@D@std@@V?$allocator@D@2@@std@@U?$less@V?$basic_string@DU?$char_traits@D@std@@V?$allocator@D@2@@std@@@2@V?$allocator@V?$basic_string@DU?$char_traits@D@std@@V?$allocator@D@2@@std@@@2@@2@@std@@@std@@@std@@@std@@V?$allocator@V?$_List_unchecked_iterator@V?$_List_val@U?$_List_simple_types@U?$pair@$$CBV?$basic_string@DU?$char_traits@D@std@@V?$allocator@D@2@@std@@V?$set@V?$basic_string@DU?$char_traits@D@std@@V?$allocator@D@2@@std@@U?$less@V?$basic_string@DU?$char_traits@D@std@@V?$allocator@D@2@@std@@@2@V?$allocator@V?$basic_string@DU?$char_traits@D@std@@V?$allocator@D@2@@std@@@2@@2@@std@@@std@@@std@@@std@@@2@@std@@QAEXIABV?$_List_unchecked_iterator@V?$_List_val@U?$_List_simple_types@U?$pair@$$CBV?$basic_string@DU?$char_traits@D@std@@V?$allocator@D@2@@std@@V?$set@V?$basic_string@DU?$char_traits@D@std@@V?$allocator@D@2@@std@@U?$less@V?$basic_string@DU?$char_traits@D@std@@V?$allocator@D@2@@std@@@2@V?$allocator@V?$basic_string@DU?$char_traits@D@std@@V?$allocator@D@2@@std@@@2@@2@@std@@@std@@@std@@@2@@Z 10022970 f i Configuration.obj
 0001:00021970       ?assign@?$vector@V?$_List_unchecked_iterator@V?$_List_val@U?$_List_simple_types@U?$pair@QADPAD@std@@@std@@@std@@@std@@V?$allocator@V?$_List_unchecked_iterator@V?$_List_val@U?$_List_simple_types@U?$pair@QADPAD@std@@@std@@@std@@@std@@@2@@std@@QAEXIABV?$_List_unchecked_iterator@V?$_List_val@U?$_List_simple_types@U?$pair@QADPAD@std@@@std@@@std@@@2@@Z 10022970 f i Hooks.obj
 0001:00021af0       ?deallocate@?$allocator@V?$_List_unchecked_iterator@V?$_List_val@U?$_List_simple_types@U?$pair@QADPAD@std@@@std@@@std@@@std@@@std@@QAEXQAV?$_List_unchecked_iterator@V?$_List_val@U?$_List_simple_types@U?$pair@QADPAD@std@@@std@@@std@@@2@I@Z 10022af0 f i Hooks.obj
 0001:00021af0       ?deallocate@?$allocator@V?$_List_unchecked_iterator@V?$_List_val@U?$_List_simple_types@U?$pair@$$CBV?$basic_string@DU?$char_traits@D@std@@V?$allocator@D@2@@std@@V?$set@V?$basic_string@DU?$char_traits@D@std@@V?$allocator@D@2@@std@@U?$less@V?$basic_string@DU?$char_traits@D@std@@V?$allocator@D@2@@std@@@2@V?$allocator@V?$basic_string@DU?$char_traits@D@std@@V?$allocator@D@2@@std@@@2@@2@@std@@@std@@@std@@@std@@@std@@QAEXQAV?$_List_unchecked_iterator@V?$_List_val@U?$_List_simple_types@U?$pair@$$CBV?$basic_string@DU?$char_traits@D@std@@V?$allocator@D@2@@std@@V?$set@V?$basic_string@DU?$char_traits@D@std@@V?$allocator@D@2@@std@@U?$less@V?$basic_string@DU?$char_traits@D@std@@V?$allocator@D@2@@std@@@2@V?$allocator@V?$basic_string@DU?$char_traits@D@std@@V?$allocator@D@2@@std@@@2@@2@@std@@@std@@@std@@@2@I@Z 10022af0 f i Configuration.obj
 0001:00021af0       ?deallocate@?$allocator@V?$_List_unchecked_iterator@V?$_List_val@U?$_List_simple_types@U?$pair@$$CBV?$basic_string@DU?$char_traits@D@std@@V?$allocator@D@2@@std@@V12@@std@@@std@@@std@@@std@@@std@@QAEXQAV?$_List_unchecked_iterator@V?$_List_val@U?$_List_simple_types@U?$pair@$$CBV?$basic_string@DU?$char_traits@D@std@@V?$allocator@D@2@@std@@V12@@std@@@std@@@std@@@2@I@Z 10022af0 f i Configuration.obj
 0001:00021af0       ?deallocate@?$allocator@V?$_List_unchecked_iterator@V?$_List_val@U?$_List_simple_types@U?$pair@$$CBV?$basic_string@DU?$char_traits@D@std@@V?$allocator@D@2@@std@@UskinInfo@@@std@@@std@@@std@@@std@@@std@@QAEXQAV?$_List_unchecked_iterator@V?$_List_val@U?$_List_simple_types@U?$pair@$$CBV?$basic_string@DU?$char_traits@D@std@@V?$allocator@D@2@@std@@UskinInfo@@@std@@@std@@@std@@@2@I@Z 10022af0 f i Configuration.obj
 0001:00021b30       ?erase@?$_Tree@V?$_Tset_traits@V?$basic_string@DU?$char_traits@D@std@@V?$allocator@D@2@@std@@U?$less@V?$basic_string@DU?$char_traits@D@std@@V?$allocator@D@2@@std@@@2@V?$allocator@V?$basic_string@DU?$char_traits@D@std@@V?$allocator@D@2@@std@@@2@$0A@@std@@@std@@QAE?AV?$_Tree_const_iterator@V?$_Tree_val@U?$_Tree_simple_types@V?$basic_string@DU?$char_traits@D@std@@V?$allocator@D@2@@std@@@std@@@std@@@2@V32@0@Z 10022b30 f i Configuration.obj
 0001:00021cd0       ?resize@?$basic_string@DU?$char_traits@D@std@@V?$allocator@D@2@@std@@QAEXID@Z 10022cd0 f i Configuration.obj
 0001:00021d50       __scprintf                 10022d50 f i Configuration.obj
 0001:00021d80       ?on_dll_attach@@YA_NPAX@Z  10022d80 f   DLLMain.obj
 0001:00021e00       _DllMain@12                10022e00 f   DLLMain.obj
 0001:000221a0       ??$sprintf_s@$0EA@@@YAHAAY0EA@DPBDZZ 100231a0 f i ESP.obj
 0001:00022270       ??0visuals@@QAE@XZ         10023270 f   ESP.obj
 0001:00022300       ?DLight@visuals@@AAEXPAVC_BaseEntity@@0@Z 10023300 f   ESP.obj
 0001:00022570       ?DrawAngles@visuals@@AAEXXZ 10023570 f   ESP.obj
 0001:00022c50       ?DrawBox@visuals@@AAEXUtagRECT@@VColor@@@Z 10023c50 f   ESP.obj
 0001:00022cd0       ?DrawCircle@@YAXMMMMVColor@@@Z 10023cd0 f   ESP.obj
 0001:00022de0       ?DrawCorners@visuals@@AAEXUtagRECT@@VColor@@@Z 10023de0 f   ESP.obj
 0001:00023090       ?DrawInfo@visuals@@AAEXUtagRECT@@PAVC_BaseEntity@@1@Z 10024090 f   ESP.obj
 0001:000241b0       ?DynamicBox@visuals@@AAE?AUtagRECT@@PAVC_BaseEntity@@AA_N0@Z 100251b0 f   ESP.obj
 0001:00024720       ?GetBonePos@C_BaseEntity@@QAE?AVVector@@H@Z 10025720 f i ESP.obj
 0001:000247e0       ?GetEyePosition@C_BaseEntity@@QAE?AVVector@@XZ 100257e0 f i ESP.obj
 0001:00024850       ?Hitmarker@visuals@@AAEXXZ 10025850 f   ESP.obj
 0001:00024ac0       ?Init@Ray_t@@QAEXABVVector@@0@Z 10025ac0 f i ESP.obj
 0001:00024b80       ?NightMode@visuals@@AAEXXZ 10025b80 f   ESP.obj
 0001:00024fd0       ?OnPaintTraverse@visuals@@QAEXPAVC_BaseEntity@@@Z 10025fd0 f   ESP.obj
 0001:000270e0       ?Skeleton@visuals@@AAEXPAVC_BaseEntity@@VColor@@@Z 100280e0 f   ESP.obj
 0001:00027260       ?SpecList@visuals@@AAEXPAVC_BaseEntity@@@Z 10028260 f   ESP.obj
 0001:000275a0       ?ThreeDBox@visuals@@AAEXVVector@@00VColor@@@Z 100285a0 f   ESP.obj
 0001:000277f0       ?_Xran@?$_String_val@U?$_Simple_types@D@std@@@std@@SAXXZ 100287f0 f i ESP.obj
 0001:00027840       ?flGetDistance@@YAHVVector@@0@Z 10028840 f i ESP.obj
 0001:000278d0       ?insert@?$basic_string@DU?$char_traits@D@std@@V?$allocator@D@2@@std@@QAEAAV12@IQBDI@Z 100288d0 f i ESP.obj
 0001:000279a0       _sprintf                   100289a0 f i ESP.obj
 0001:000279e0       ??$_Uninitialized_move_al_unchecked@PAVVector@@PAV1@V?$allocator@VVector@@@std@@@std@@YAPAVVector@@PAV1@00AAV?$allocator@VVector@@@0@U_General_ptr_iterator_tag@0@U_Unused_parameter@0@@Z 100289e0 f i GrenadePrediction.obj
 0001:00027a10       ??$emplace_back@ABVVector@@@?$vector@VVector@@V?$allocator@VVector@@@std@@@std@@QAEXABVVector@@@Z 10028a10 f i GrenadePrediction.obj
 0001:00027bf0       ?Init@Ray_t@@QAEXABVVector@@000@Z 10028bf0 f i GrenadePrediction.obj
 0001:00027dd0       ?Paint@grenade_prediction@@QAEXXZ 10028dd0 f   GrenadePrediction.obj
 0001:00027fa0       ?Setup@grenade_prediction@@AAEXAAVVector@@0V2@@Z 10028fa0 f   GrenadePrediction.obj
 0001:00028330       ?ShouldHitEntity@CTraceFilterWorldAndPropsOnly@@UAE_NPAVC_BaseEntity@@H@Z 10029330 f i GrenadePrediction.obj
 0001:00028340       ?Step@grenade_prediction@@AAEHAAVVector@@0HM@Z 10029340 f   GrenadePrediction.obj
 0001:00028710       ?Tick@grenade_prediction@@QAEXH@Z 10029710 f   GrenadePrediction.obj
 0001:00028750       ?TraceHull@grenade_prediction@@AAEXAAVVector@@0AAVCGameTrace@@@Z 10029750 f   GrenadePrediction.obj
 0001:00028830       ?View@grenade_prediction@@QAEXPAUCViewSetup@@@Z 10029830 f   GrenadePrediction.obj
 0001:000289b0       ?deallocate@?$allocator@VVector@@@std@@QAEXQAVVector@@I@Z 100299b0 f i GrenadePrediction.obj
 0001:000289f0       ??$?0PADX@?$basic_string@DU?$char_traits@D@std@@V?$allocator@D@2@@std@@QAE@PAD0ABV?$allocator@D@1@@Z 100299f0 f i Hooks.obj
 0001:00028a30       ??$_Buynode@ABUpiecewise_construct_t@std@@V?$tuple@ABQAD@2@V?$tuple@$$V@2@@?$_List_buy@U?$pair@QADPAD@std@@V?$allocator@U?$pair@QADPAD@std@@@2@@std@@QAEPAU?$_List_node@U?$pair@QADPAD@std@@PAX@1@PAU21@0ABUpiecewise_construct_t@1@$$QAV?$tuple@ABQAD@1@$$QAV?$tuple@$$V@1@@Z 10029a30 f i Hooks.obj
 0001:00028a60       ??$_Buynode@ABUpiecewise_construct_t@std@@V?$tuple@ABV?$basic_string@DU?$char_traits@D@std@@V?$allocator@D@2@@std@@@2@V?$tuple@$$V@2@@?$_List_buy@U?$pair@$$CBV?$basic_string@DU?$char_traits@D@std@@V?$allocator@D@2@@std@@UskinInfo@@@std@@V?$allocator@U?$pair@$$CBV?$basic_string@DU?$char_traits@D@std@@V?$allocator@D@2@@std@@UskinInfo@@@std@@@2@@std@@QAEPAU?$_List_node@U?$pair@$$CBV?$basic_string@DU?$char_traits@D@std@@V?$allocator@D@2@@std@@UskinInfo@@@std@@PAX@1@PAU21@0ABUpiecewise_construct_t@1@$$QAV?$tuple@ABV?$basic_string@DU?$char_traits@D@std@@V?$allocator@D@2@@std@@@1@$$QAV?$tuple@$$V@1@@Z 10029a60 f i Hooks.obj
 0001:00028b10       ??$_Buynode@ABUpiecewise_construct_t@std@@V?$tuple@ABV?$basic_string@DU?$char_traits@D@std@@V?$allocator@D@2@@std@@@2@V?$tuple@$$V@2@@?$_List_buy@U?$pair@$$CBV?$basic_string@DU?$char_traits@D@std@@V?$allocator@D@2@@std@@V12@@std@@V?$allocator@U?$pair@$$CBV?$basic_string@DU?$char_traits@D@std@@V?$allocator@D@2@@std@@V12@@std@@@2@@std@@QAEPAU?$_List_node@U?$pair@$$CBV?$basic_string@DU?$char_traits@D@std@@V?$allocator@D@2@@std@@V12@@std@@PAX@1@PAU21@0ABUpiecewise_construct_t@1@$$QAV?$tuple@ABV?$basic_string@DU?$char_traits@D@std@@V?$allocator@D@2@@std@@@1@$$QAV?$tuple@$$V@1@@Z 10029b10 f i Hooks.obj
 0001:00028bb0       ??$_Buynode@ABUpiecewise_construct_t@std@@V?$tuple@ABV?$basic_string@DU?$char_traits@D@std@@V?$allocator@D@2@@std@@@2@V?$tuple@$$V@2@@?$_List_buy@U?$pair@$$CBV?$basic_string@DU?$char_traits@D@std@@V?$allocator@D@2@@std@@V?$set@V?$basic_string@DU?$char_traits@D@std@@V?$allocator@D@2@@std@@U?$less@V?$basic_string@DU?$char_traits@D@std@@V?$allocator@D@2@@std@@@2@V?$allocator@V?$basic_string@DU?$char_traits@D@std@@V?$allocator@D@2@@std@@@2@@2@@std@@V?$allocator@U?$pair@$$CBV?$basic_string@DU?$char_traits@D@std@@V?$allocator@D@2@@std@@V?$set@V?$basic_string@DU?$char_traits@D@std@@V?$allocator@D@2@@std@@U?$less@V?$basic_string@DU?$char_traits@D@std@@V?$allocator@D@2@@std@@@2@V?$allocator@V?$basic_string@DU?$char_traits@D@std@@V?$allocator@D@2@@std@@@2@@2@@std@@@2@@std@@QAEPAU?$_List_node@U?$pair@$$CBV?$basic_string@DU?$char_traits@D@std@@V?$allocator@D@2@@std@@V?$set@V?$basic_string@DU?$char_traits@D@std@@V?$allocator@D@2@@std@@U?$less@V?$basic_string@DU?$char_traits@D@std@@V?$allocator@D@2@@std@@@2@V?$allocator@V?$basic_string@DU?$char_traits@D@std@@V?$allocator@D@2@@std@@@2@@2@@std@@PAX@1@PAU21@0ABUpiecewise_construct_t@1@$$QAV?$tuple@ABV?$basic_string@DU?$char_traits@D@std@@V?$allocator@D@2@@std@@@1@$$QAV?$tuple@$$V@1@@Z 10029bb0 f i Hooks.obj
 0001:00028c60       ??$_Buynode@V?$basic_string@DU?$char_traits@D@std@@V?$allocator@D@2@@std@@@?$_Tree_comp_alloc@V?$_Tset_traits@V?$basic_string@DU?$char_traits@D@std@@V?$allocator@D@2@@std@@U?$less@V?$basic_string@DU?$char_traits@D@std@@V?$allocator@D@2@@std@@@2@V?$allocator@V?$basic_string@DU?$char_traits@D@std@@V?$allocator@D@2@@std@@@2@$0A@@std@@@std@@QAEPAU?$_Tree_node@V?$basic_string@DU?$char_traits@D@std@@V?$allocator@D@2@@std@@PAX@1@$$QAV?$basic_string@DU?$char_traits@D@std@@V?$allocator@D@2@@1@@Z 10029c60 f i Hooks.obj
 0001:00028cb0       ??$_Destroy_range@V?$allocator@V?$basic_string@DU?$char_traits@D@std@@V?$allocator@D@2@@std@@@std@@@std@@YAXPAV?$basic_string@DU?$char_traits@D@std@@V?$allocator@D@2@@0@0AAV?$allocator@V?$basic_string@DU?$char_traits@D@std@@V?$allocator@D@2@@std@@@0@@Z 10029cb0 f i Hooks.obj
 0001:00028d20       ??$_Insert@AAU?$pair@$$CBV?$basic_string@DU?$char_traits@D@std@@V?$allocator@D@2@@std@@UskinInfo@@@std@@V?$_List_unchecked_iterator@V?$_List_val@U?$_List_simple_types@U?$pair@$$CBV?$basic_string@DU?$char_traits@D@std@@V?$allocator@D@2@@std@@UskinInfo@@@std@@@std@@@std@@@2@@?$_Hash@V?$_Umap_traits@V?$basic_string@DU?$char_traits@D@std@@V?$allocator@D@2@@std@@UskinInfo@@V?$_Uhash_compare@V?$basic_string@DU?$char_traits@D@std@@V?$allocator@D@2@@std@@U?$hash@V?$basic_string@DU?$char_traits@D@std@@V?$allocator@D@2@@std@@@2@U?$equal_to@V?$basic_string@DU?$char_traits@D@std@@V?$allocator@D@2@@std@@@2@@2@V?$allocator@U?$pair@$$CBV?$basic_string@DU?$char_traits@D@std@@V?$allocator@D@2@@std@@UskinInfo@@@std@@@2@$0A@@std@@@std@@IAE?AU?$pair@V?$_List_iterator@V?$_List_val@U?$_List_simple_types@U?$pair@$$CBV?$basic_string@DU?$char_traits@D@std@@V?$allocator@D@2@@std@@UskinInfo@@@std@@@std@@@std@@@std@@_N@1@AAU?$pair@$$CBV?$basic_string@DU?$char_traits@D@std@@V?$allocator@D@2@@std@@UskinInfo@@@1@V?$_List_unchecked_iterator@V?$_List_val@U?$_List_simple_types@U?$pair@$$CBV?$basic_string@DU?$char_traits@D@std@@V?$allocator@D@2@@std@@UskinInfo@@@std@@@std@@@std@@@1@@Z 10029d20 f i Hooks.obj
 0001:00028f80       ??$_Insert@AAU?$pair@$$CBV?$basic_string@DU?$char_traits@D@std@@V?$allocator@D@2@@std@@V12@@std@@V?$_List_unchecked_iterator@V?$_List_val@U?$_List_simple_types@U?$pair@$$CBV?$basic_string@DU?$char_traits@D@std@@V?$allocator@D@2@@std@@V12@@std@@@std@@@std@@@2@@?$_Hash@V?$_Umap_traits@V?$basic_string@DU?$char_traits@D@std@@V?$allocator@D@2@@std@@V12@V?$_Uhash_compare@V?$basic_string@DU?$char_traits@D@std@@V?$allocator@D@2@@std@@U?$hash@V?$basic_string@DU?$char_traits@D@std@@V?$allocator@D@2@@std@@@2@U?$equal_to@V?$basic_string@DU?$char_traits@D@std@@V?$allocator@D@2@@std@@@2@@2@V?$allocator@U?$pair@$$CBV?$basic_string@DU?$char_traits@D@std@@V?$allocator@D@2@@std@@V12@@std@@@2@$0A@@std@@@std@@IAE?AU?$pair@V?$_List_iterator@V?$_List_val@U?$_List_simple_types@U?$pair@$$CBV?$basic_string@DU?$char_traits@D@std@@V?$allocator@D@2@@std@@V12@@std@@@std@@@std@@@std@@_N@1@AAU?$pair@$$CBV?$basic_string@DU?$char_traits@D@std@@V?$allocator@D@2@@std@@V12@@1@V?$_List_unchecked_iterator@V?$_List_val@U?$_List_simple_types@U?$pair@$$CBV?$basic_string@DU?$char_traits@D@std@@V?$allocator@D@2@@std@@V12@@std@@@std@@@std@@@1@@Z 10029f80 f i Hooks.obj
 0001:000291e0       ??$_Insert@AAU?$pair@$$CBV?$basic_string@DU?$char_traits@D@std@@V?$allocator@D@2@@std@@V?$set@V?$basic_string@DU?$char_traits@D@std@@V?$allocator@D@2@@std@@U?$less@V?$basic_string@DU?$char_traits@D@std@@V?$allocator@D@2@@std@@@2@V?$allocator@V?$basic_string@DU?$char_traits@D@std@@V?$allocator@D@2@@std@@@2@@2@@std@@V?$_List_unchecked_iterator@V?$_List_val@U?$_List_simple_types@U?$pair@$$CBV?$basic_string@DU?$char_traits@D@std@@V?$allocator@D@2@@std@@V?$set@V?$basic_string@DU?$char_traits@D@std@@V?$allocator@D@2@@std@@U?$less@V?$basic_string@DU?$char_traits@D@std@@V?$allocator@D@2@@std@@@2@V?$allocator@V?$basic_string@DU?$char_traits@D@std@@V?$allocator@D@2@@std@@@2@@2@@std@@@std@@@std@@@2@@?$_Hash@V?$_Umap_traits@V?$basic_string@DU?$char_traits@D@std@@V?$allocator@D@2@@std@@V?$set@V?$basic_string@DU?$char_traits@D@std@@V?$allocator@D@2@@std@@U?$less@V?$basic_string@DU?$char_traits@D@std@@V?$allocator@D@2@@std@@@2@V?$allocator@V?$basic_string@DU?$char_traits@D@std@@V?$allocator@D@2@@std@@@2@@2@V?$_Uhash_compare@V?$basic_string@DU?$char_traits@D@std@@V?$allocator@D@2@@std@@U?$hash@V?$basic_string@DU?$char_traits@D@std@@V?$allocator@D@2@@std@@@2@U?$equal_to@V?$basic_string@DU?$char_traits@D@std@@V?$allocator@D@2@@std@@@2@@2@V?$allocator@U?$pair@$$CBV?$basic_string@DU?$char_traits@D@std@@V?$allocator@D@2@@std@@V?$set@V?$basic_string@DU?$char_traits@D@std@@V?$allocator@D@2@@std@@U?$less@V?$basic_string@DU?$char_traits@D@std@@V?$allocator@D@2@@std@@@2@V?$allocator@V?$basic_string@DU?$char_traits@D@std@@V?$allocator@D@2@@std@@@2@@2@@std@@@2@$0A@@std@@@std@@IAE?AU?$pair@V?$_List_iterator@V?$_List_val@U?$_List_simple_types@U?$pair@$$CBV?$basic_string@DU?$char_traits@D@std@@V?$allocator@D@2@@std@@V?$set@V?$basic_string@DU?$char_traits@D@std@@V?$allocator@D@2@@std@@U?$less@V?$basic_string@DU?$char_traits@D@std@@V?$allocator@D@2@@std@@@2@V?$allocator@V?$basic_string@DU?$char_traits@D@std@@V?$allocator@D@2@@std@@@2@@2@@std@@@std@@@std@@@std@@_N@1@AAU?$pair@$$CBV?$basic_string@DU?$char_traits@D@std@@V?$allocator@D@2@@std@@V?$set@V?$basic_string@DU?$char_traits@D@std@@V?$allocator@D@2@@std@@U?$less@V?$basic_string@DU?$char_traits@D@std@@V?$allocator@D@2@@std@@@2@V?$allocator@V?$basic_string@DU?$char_traits@D@std@@V?$allocator@D@2@@std@@@2@@2@@1@V?$_List_unchecked_iterator@V?$_List_val@U?$_List_simple_types@U?$pair@$$CBV?$basic_string@DU?$char_traits@D@std@@V?$allocator@D@2@@std@@V?$set@V?$basic_string@DU?$char_traits@D@std@@V?$allocator@D@2@@std@@U?$less@V?$basic_string@DU?$char_traits@D@std@@V?$allocator@D@2@@std@@@2@V?$allocator@V?$basic_string@DU?$char_traits@D@std@@V?$allocator@D@2@@std@@@2@@2@@std@@@std@@@std@@@1@@Z 1002a1e0 f i Hooks.obj
 0001:00029440       ??$_Insert@AAU?$pair@QADPAD@std@@V?$_List_unchecked_iterator@V?$_List_val@U?$_List_simple_types@U?$pair@QADPAD@std@@@std@@@std@@@2@@?$_Hash@V?$_Umap_traits@PADPADV?$_Uhash_compare@PADU?$hash@PAD@std@@U?$equal_to@PAD@2@@std@@V?$allocator@U?$pair@QADPAD@std@@@2@$0A@@std@@@std@@IAE?AU?$pair@V?$_List_iterator@V?$_List_val@U?$_List_simple_types@U?$pair@QADPAD@std@@@std@@@std@@@std@@_N@1@AAU?$pair@QADPAD@1@V?$_List_unchecked_iterator@V?$_List_val@U?$_List_simple_types@U?$pair@QADPAD@std@@@std@@@std@@@1@@Z 1002a440 f i Hooks.obj
 0001:00029660       ??$_Insert_at@V?$basic_string@DU?$char_traits@D@std@@V?$allocator@D@2@@std@@U_Not_a_node_tag@2@@?$_Tree@V?$_Tset_traits@V?$basic_string@DU?$char_traits@D@std@@V?$allocator@D@2@@std@@U?$less@V?$basic_string@DU?$char_traits@D@std@@V?$allocator@D@2@@std@@@2@V?$allocator@V?$basic_string@DU?$char_traits@D@std@@V?$allocator@D@2@@std@@@2@$0A@@std@@@std@@IAE?AV?$_Tree_const_iterator@V?$_Tree_val@U?$_Tree_simple_types@V?$basic_string@DU?$char_traits@D@std@@V?$allocator@D@2@@std@@@std@@@std@@@1@_NPAU?$_Tree_node@V?$basic_string@DU?$char_traits@D@std@@V?$allocator@D@2@@std@@PAX@1@$$QAV?$basic_string@DU?$char_traits@D@std@@V?$allocator@D@2@@1@U_Not_a_node_tag@1@@Z 1002a660 f i Hooks.obj
 0001:000297c0       ??$_Insert_nohint@V?$basic_string@DU?$char_traits@D@std@@V?$allocator@D@2@@std@@U_Not_a_node_tag@2@@?$_Tree@V?$_Tset_traits@V?$basic_string@DU?$char_traits@D@std@@V?$allocator@D@2@@std@@U?$less@V?$basic_string@DU?$char_traits@D@std@@V?$allocator@D@2@@std@@@2@V?$allocator@V?$basic_string@DU?$char_traits@D@std@@V?$allocator@D@2@@std@@@2@$0A@@std@@@std@@IAE?AU?$pair@V?$_Tree_const_iterator@V?$_Tree_val@U?$_Tree_simple_types@V?$basic_string@DU?$char_traits@D@std@@V?$allocator@D@2@@std@@@std@@@std@@@std@@_N@1@_N$$QAV?$basic_string@DU?$char_traits@D@std@@V?$allocator@D@2@@1@U_Not_a_node_tag@1@@Z 1002a7c0 f i Hooks.obj
 0001:00029980       ??$_Range_construct_or_tidy@PBV?$basic_string@DU?$char_traits@D@std@@V?$allocator@D@2@@std@@@?$vector@V?$basic_string@DU?$char_traits@D@std@@V?$allocator@D@2@@std@@V?$allocator@V?$basic_string@DU?$char_traits@D@std@@V?$allocator@D@2@@std@@@2@@std@@AAEXPBV?$basic_string@DU?$char_traits@D@std@@V?$allocator@D@2@@1@0Uforward_iterator_tag@1@@Z 1002a980 f i Hooks.obj
 0001:00029a90       ??$_Traits_compare@U?$char_traits@D@std@@@std@@YAHQBDI0I@Z 1002aa90 f i Hooks.obj
 0001:00029b20       ??$_Traits_equal@U?$char_traits@D@std@@@std@@YA_NQBDI0I@Z 1002ab20 f i Hooks.obj
 0001:00029b90       ??$_Traits_find@U?$char_traits@D@std@@@std@@YAIQBDII0I@Z 1002ab90 f i Hooks.obj
 0001:00029c90       ??$_Try_emplace@ABV?$basic_string@DU?$char_traits@D@std@@V?$allocator@D@2@@std@@$$V@?$unordered_map@V?$basic_string@DU?$char_traits@D@std@@V?$allocator@D@2@@std@@UskinInfo@@U?$hash@V?$basic_string@DU?$char_traits@D@std@@V?$allocator@D@2@@std@@@2@U?$equal_to@V?$basic_string@DU?$char_traits@D@std@@V?$allocator@D@2@@std@@@2@V?$allocator@U?$pair@$$CBV?$basic_string@DU?$char_traits@D@std@@V?$allocator@D@2@@std@@UskinInfo@@@std@@@2@@std@@QAE?AU?$pair@V?$_List_iterator@V?$_List_val@U?$_List_simple_types@U?$pair@$$CBV?$basic_string@DU?$char_traits@D@std@@V?$allocator@D@2@@std@@UskinInfo@@@std@@@std@@@std@@@std@@_N@1@ABV?$basic_string@DU?$char_traits@D@std@@V?$allocator@D@2@@1@@Z 1002ac90 f i Hooks.obj
 0001:00029df0       ??$_Try_emplace@ABV?$basic_string@DU?$char_traits@D@std@@V?$allocator@D@2@@std@@$$V@?$unordered_map@V?$basic_string@DU?$char_traits@D@std@@V?$allocator@D@2@@std@@V12@U?$hash@V?$basic_string@DU?$char_traits@D@std@@V?$allocator@D@2@@std@@@2@U?$equal_to@V?$basic_string@DU?$char_traits@D@std@@V?$allocator@D@2@@std@@@2@V?$allocator@U?$pair@$$CBV?$basic_string@DU?$char_traits@D@std@@V?$allocator@D@2@@std@@V12@@std@@@2@@std@@QAE?AU?$pair@V?$_List_iterator@V?$_List_val@U?$_List_simple_types@U?$pair@$$CBV?$basic_string@DU?$char_traits@D@std@@V?$allocator@D@2@@std@@V12@@std@@@std@@@std@@@std@@_N@1@ABV?$basic_string@DU?$char_traits@D@std@@V?$allocator@D@2@@1@@Z 1002adf0 f i Hooks.obj
 0001:00029f50       ??$_Try_emplace@ABV?$basic_string@DU?$char_traits@D@std@@V?$allocator@D@2@@std@@$$V@?$unordered_map@V?$basic_string@DU?$char_traits@D@std@@V?$allocator@D@2@@std@@V?$set@V?$basic_string@DU?$char_traits@D@std@@V?$allocator@D@2@@std@@U?$less@V?$basic_string@DU?$char_traits@D@std@@V?$allocator@D@2@@std@@@2@V?$allocator@V?$basic_string@DU?$char_traits@D@std@@V?$allocator@D@2@@std@@@2@@2@U?$hash@V?$basic_string@DU?$char_traits@D@std@@V?$allocator@D@2@@std@@@2@U?$equal_to@V?$basic_string@DU?$char_traits@D@std@@V?$allocator@D@2@@std@@@2@V?$allocator@U?$pair@$$CBV?$basic_string@DU?$char_traits@D@std@@V?$allocator@D@2@@std@@V?$set@V?$basic_string@DU?$char_traits@D@std@@V?$allocator@D@2@@std@@U?$less@V?$basic_string@DU?$char_traits@D@std@@V?$allocator@D@2@@std@@@2@V?$allocator@V?$basic_string@DU?$char_traits@D@std@@V?$allocator@D@2@@std@@@2@@2@@std@@@2@@std@@QAE?AU?$pair@V?$_List_iterator@V?$_List_val@U?$_List_simple_types@U?$pair@$$CBV?$basic_string@DU?$char_traits@D@std@@V?$allocator@D@2@@std@@V?$set@V?$basic_string@DU?$char_traits@D@std@@V?$allocator@D@2@@std@@U?$less@V?$basic_string@DU?$char_traits@D@std@@V?$allocator@D@2@@std@@@2@V?$allocator@V?$basic_string@DU?$char_traits@D@std@@V?$allocator@D@2@@std@@@2@@2@@std@@@std@@@std@@@std@@_N@1@ABV?$basic_string@DU?$char_traits@D@std@@V?$allocator@D@2@@1@@Z 1002af50 f i Hooks.obj
 0001:0002a0b0       ??$_Uninitialized_copy_al_unchecked@PBV?$basic_string@DU?$char_traits@D@std@@V?$allocator@D@2@@std@@PAV12@V?$allocator@V?$basic_string@DU?$char_traits@D@std@@V?$allocator@D@2@@std@@@2@@std@@YAPAV?$basic_string@DU?$char_traits@D@std@@V?$allocator@D@2@@0@PBV10@0PAV10@AAV?$allocator@V?$basic_string@DU?$char_traits@D@std@@V?$allocator@D@2@@std@@@0@U_General_ptr_iterator_tag@0@U_Unused_parameter@0@@Z 1002b0b0 f i Hooks.obj
 0001:0002a150       ??$erase@V?$_List_iterator@V?$_List_val@U?$_List_simple_types@U?$pair@$$CBV?$basic_string@DU?$char_traits@D@std@@V?$allocator@D@2@@std@@UskinInfo@@@std@@@std@@@std@@@std@@X@?$_Hash@V?$_Umap_traits@V?$basic_string@DU?$char_traits@D@std@@V?$allocator@D@2@@std@@UskinInfo@@V?$_Uhash_compare@V?$basic_string@DU?$char_traits@D@std@@V?$allocator@D@2@@std@@U?$hash@V?$basic_string@DU?$char_traits@D@std@@V?$allocator@D@2@@std@@@2@U?$equal_to@V?$basic_string@DU?$char_traits@D@std@@V?$allocator@D@2@@std@@@2@@2@V?$allocator@U?$pair@$$CBV?$basic_string@DU?$char_traits@D@std@@V?$allocator@D@2@@std@@UskinInfo@@@std@@@2@$0A@@std@@@std@@QAE?AV?$_List_iterator@V?$_List_val@U?$_List_simple_types@U?$pair@$$CBV?$basic_string@DU?$char_traits@D@std@@V?$allocator@D@2@@std@@UskinInfo@@@std@@@std@@@std@@@1@V21@@Z 1002b150 f i Hooks.obj
 0001:0002a200       ??$erase@V?$_List_iterator@V?$_List_val@U?$_List_simple_types@U?$pair@$$CBV?$basic_string@DU?$char_traits@D@std@@V?$allocator@D@2@@std@@V12@@std@@@std@@@std@@@std@@X@?$_Hash@V?$_Umap_traits@V?$basic_string@DU?$char_traits@D@std@@V?$allocator@D@2@@std@@V12@V?$_Uhash_compare@V?$basic_string@DU?$char_traits@D@std@@V?$allocator@D@2@@std@@U?$hash@V?$basic_string@DU?$char_traits@D@std@@V?$allocator@D@2@@std@@@2@U?$equal_to@V?$basic_string@DU?$char_traits@D@std@@V?$allocator@D@2@@std@@@2@@2@V?$allocator@U?$pair@$$CBV?$basic_string@DU?$char_traits@D@std@@V?$allocator@D@2@@std@@V12@@std@@@2@$0A@@std@@@std@@QAE?AV?$_List_iterator@V?$_List_val@U?$_List_simple_types@U?$pair@$$CBV?$basic_string@DU?$char_traits@D@std@@V?$allocator@D@2@@std@@V12@@std@@@std@@@std@@@1@V21@@Z 1002b200 f i Hooks.obj
 0001:0002a2b0       ??$erase@V?$_List_iterator@V?$_List_val@U?$_List_simple_types@U?$pair@$$CBV?$basic_string@DU?$char_traits@D@std@@V?$allocator@D@2@@std@@V?$set@V?$basic_string@DU?$char_traits@D@std@@V?$allocator@D@2@@std@@U?$less@V?$basic_string@DU?$char_traits@D@std@@V?$allocator@D@2@@std@@@2@V?$allocator@V?$basic_string@DU?$char_traits@D@std@@V?$allocator@D@2@@std@@@2@@2@@std@@@std@@@std@@@std@@X@?$_Hash@V?$_Umap_traits@V?$basic_string@DU?$char_traits@D@std@@V?$allocator@D@2@@std@@V?$set@V?$basic_string@DU?$char_traits@D@std@@V?$allocator@D@2@@std@@U?$less@V?$basic_string@DU?$char_traits@D@std@@V?$allocator@D@2@@std@@@2@V?$allocator@V?$basic_string@DU?$char_traits@D@std@@V?$allocator@D@2@@std@@@2@@2@V?$_Uhash_compare@V?$basic_string@DU?$char_traits@D@std@@V?$allocator@D@2@@std@@U?$hash@V?$basic_string@DU?$char_traits@D@std@@V?$allocator@D@2@@std@@@2@U?$equal_to@V?$basic_string@DU?$char_traits@D@std@@V?$allocator@D@2@@std@@@2@@2@V?$allocator@U?$pair@$$CBV?$basic_string@DU?$char_traits@D@std@@V?$allocator@D@2@@std@@V?$set@V?$basic_string@DU?$char_traits@D@std@@V?$allocator@D@2@@std@@U?$less@V?$basic_string@DU?$char_traits@D@std@@V?$allocator@D@2@@std@@@2@V?$allocator@V?$basic_string@DU?$char_traits@D@std@@V?$allocator@D@2@@std@@@2@@2@@std@@@2@$0A@@std@@@std@@QAE?AV?$_List_iterator@V?$_List_val@U?$_List_simple_types@U?$pair@$$CBV?$basic_string@DU?$char_traits@D@std@@V?$allocator@D@2@@std@@V?$set@V?$basic_string@DU?$char_traits@D@std@@V?$allocator@D@2@@std@@U?$less@V?$basic_string@DU?$char_traits@D@std@@V?$allocator@D@2@@std@@@2@V?$allocator@V?$basic_string@DU?$char_traits@D@std@@V?$allocator@D@2@@std@@@2@@2@@std@@@std@@@std@@@1@V21@@Z 1002b2b0 f i Hooks.obj
 0001:0002a360       ??$erase@V?$_List_iterator@V?$_List_val@U?$_List_simple_types@U?$pair@QADPAD@std@@@std@@@std@@@std@@X@?$_Hash@V?$_Umap_traits@PADPADV?$_Uhash_compare@PADU?$hash@PAD@std@@U?$equal_to@PAD@2@@std@@V?$allocator@U?$pair@QADPAD@std@@@2@$0A@@std@@@std@@QAE?AV?$_List_iterator@V?$_List_val@U?$_List_simple_types@U?$pair@QADPAD@std@@@std@@@std@@@1@V21@@Z 1002b360 f i Hooks.obj
 0001:0002a410       ??$transform@V?$_String_iterator@V?$_String_val@U?$_Simple_types@D@std@@@std@@@std@@V12@P6AGG@Z@std@@YA?AV?$_String_iterator@V?$_String_val@U?$_Simple_types@D@std@@@std@@@0@V10@0V10@P6AGG@Z@Z 1002b410 f i Hooks.obj
 0001:0002a460       ??0?$shared_ptr@VNode@valve_parser@@@std@@QAE@ABV01@@Z 1002b460 f i Hooks.obj
 0001:0002a490       ??0exception@std@@QAE@ABV01@@Z 1002b490 f i Hooks.obj
 0001:0002a4c0       ??0runtime_error@std@@QAE@ABV01@@Z 1002b4c0 f i Hooks.obj
 0001:0002a500       ??0runtime_error@std@@QAE@PBD@Z 1002b500 f i Hooks.obj
 0001:0002a550       ??1?$ImVector@Ustbrp_rect@@@@QAE@XZ 1002b550 f i imgui_draw.obj
 0001:0002a550       ??1?$ImVector@M@@QAE@XZ    1002b550 f i imgui_draw.obj
 0001:0002a550       ??1?$ImVector@D@@QAE@XZ    1002b550 f i Hooks.obj
 0001:0002a550       ??1?$ImVector@UGlyph@ImFont@@@@QAE@XZ 1002b550 f i imgui_draw.obj
 0001:0002a5a0       ??1?$_Hash@V?$_Umap_traits@PADPADV?$_Uhash_compare@PADU?$hash@PAD@std@@U?$equal_to@PAD@2@@std@@V?$allocator@U?$pair@QADPAD@std@@@2@$0A@@std@@@std@@QAE@XZ 1002b5a0 f i Hooks.obj
 0001:0002a600       ??1?$deque@V?$shared_ptr@VNode@valve_parser@@@std@@V?$allocator@V?$shared_ptr@VNode@valve_parser@@@std@@@2@@std@@QAE@XZ 1002b600 f i Hooks.obj
 0001:0002a6f0       ??1?$list@U?$pair@QADPAD@std@@V?$allocator@U?$pair@QADPAD@std@@@2@@std@@QAE@XZ 1002b6f0 f i Hooks.obj
 0001:0002a740       ??1?$pair@$$CBV?$basic_string@DU?$char_traits@D@std@@V?$allocator@D@2@@std@@UskinInfo@@@std@@QAE@XZ 1002b740 f i Hooks.obj
 0001:0002a7d0       ??1?$pair@$$CBV?$basic_string@DU?$char_traits@D@std@@V?$allocator@D@2@@std@@V12@@std@@QAE@XZ 1002b7d0 f i Hooks.obj
 0001:0002a860       ??1?$pair@$$CBV?$basic_string@DU?$char_traits@D@std@@V?$allocator@D@2@@std@@V?$set@V?$basic_string@DU?$char_traits@D@std@@V?$allocator@D@2@@std@@U?$less@V?$basic_string@DU?$char_traits@D@std@@V?$allocator@D@2@@std@@@2@V?$allocator@V?$basic_string@DU?$char_traits@D@std@@V?$allocator@D@2@@std@@@2@@2@@std@@QAE@XZ 1002b860 f i Hooks.obj
 0001:0002a920       ??1?$vector@V?$basic_string@DU?$char_traits@D@std@@V?$allocator@D@2@@std@@V?$allocator@V?$basic_string@DU?$char_traits@D@std@@V?$allocator@D@2@@std@@@2@@std@@QAE@XZ 1002b920 f i Hooks.obj
 0001:0002a930       ??1?$vector@V?$shared_ptr@VNode@valve_parser@@@std@@V?$allocator@V?$shared_ptr@VNode@valve_parser@@@std@@@2@@std@@QAE@XZ 1002b930 f i Hooks.obj
 0001:0002a990       ??1Document@valve_parser@@QAE@XZ 1002b990 f i Hooks.obj
 0001:0002a9e0       ??1length_error@std@@UAE@XZ 1002b9e0 f i libcpmt:xthrow.obj
 0001:0002a9e0       ??1runtime_error@std@@UAE@XZ 1002b9e0 f i Hooks.obj
 0001:0002a9e0       ??1bad_alloc@std@@UAE@XZ   1002b9e0 f i LIBCMT:throw_bad_alloc.obj
 0001:0002a9e0       ??1failure@ios_base@std@@UAE@XZ 1002b9e0 f i Utilities.obj
 0001:0002a9e0       ??1bad_exception@std@@UAE@XZ 1002b9e0 f i libvcruntime:frame.obj
 0001:0002a9e0       ??1invalid_argument@std@@UAE@XZ 1002b9e0 f i libcpmt:xthrow.obj
 0001:0002a9e0       ??1out_of_range@std@@UAE@XZ 1002b9e0 f i libcpmt:xthrow.obj
 0001:0002a9e0       ??1bad_array_new_length@std@@UAE@XZ 1002b9e0 f i LIBCMT:throw_bad_alloc.obj
 0001:0002aa00       ??1skinInfo@@QAE@XZ        1002ba00 f i Hooks.obj
 0001:0002aa50       @_guard_check_icall_nop@4  1002ba50 f i LIBCMT:guard_support.obj
 0001:0002aa50       ?_Lock@?$basic_streambuf@DU?$char_traits@D@std@@@std@@UAEXXZ 1002ba50 f i Utilities.obj
 0001:0002aa50       ?_Unlock@?$basic_streambuf@DU?$char_traits@D@std@@@std@@UAEXXZ 1002ba50 f i Utilities.obj
 0001:0002aa50       ??3@YAXPAXUImPlacementNewDummy@@0@Z 1002ba50 f i imgui.obj
 0001:0002aa50       ??3@YAXPAX0@Z              1002ba50 f i Hooks.obj
 0001:0002aa60       ??A?$unordered_map@V?$basic_string@DU?$char_traits@D@std@@V?$allocator@D@2@@std@@UskinInfo@@U?$hash@V?$basic_string@DU?$char_traits@D@std@@V?$allocator@D@2@@std@@@2@U?$equal_to@V?$basic_string@DU?$char_traits@D@std@@V?$allocator@D@2@@std@@@2@V?$allocator@U?$pair@$$CBV?$basic_string@DU?$char_traits@D@std@@V?$allocator@D@2@@std@@UskinInfo@@@std@@@2@@std@@QAEAAUskinInfo@@ABV?$basic_string@DU?$char_traits@D@std@@V?$allocator@D@2@@1@@Z 1002ba60 f i Hooks.obj
 0001:0002aa80       ??A?$unordered_map@V?$basic_string@DU?$char_traits@D@std@@V?$allocator@D@2@@std@@V12@U?$hash@V?$basic_string@DU?$char_traits@D@std@@V?$allocator@D@2@@std@@@2@U?$equal_to@V?$basic_string@DU?$char_traits@D@std@@V?$allocator@D@2@@std@@@2@V?$allocator@U?$pair@$$CBV?$basic_string@DU?$char_traits@D@std@@V?$allocator@D@2@@std@@V12@@std@@@2@@std@@QAEAAV?$basic_string@DU?$char_traits@D@std@@V?$allocator@D@2@@1@ABV21@@Z 1002ba80 f i Hooks.obj
 0001:0002aaa0       ??A?$unordered_map@V?$basic_string@DU?$char_traits@D@std@@V?$allocator@D@2@@std@@V?$set@V?$basic_string@DU?$char_traits@D@std@@V?$allocator@D@2@@std@@U?$less@V?$basic_string@DU?$char_traits@D@std@@V?$allocator@D@2@@std@@@2@V?$allocator@V?$basic_string@DU?$char_traits@D@std@@V?$allocator@D@2@@std@@@2@@2@U?$hash@V?$basic_string@DU?$char_traits@D@std@@V?$allocator@D@2@@std@@@2@U?$equal_to@V?$basic_string@DU?$char_traits@D@std@@V?$allocator@D@2@@std@@@2@V?$allocator@U?$pair@$$CBV?$basic_string@DU?$char_traits@D@std@@V?$allocator@D@2@@std@@V?$set@V?$basic_string@DU?$char_traits@D@std@@V?$allocator@D@2@@std@@U?$less@V?$basic_string@DU?$char_traits@D@std@@V?$allocator@D@2@@std@@@2@V?$allocator@V?$basic_string@DU?$char_traits@D@std@@V?$allocator@D@2@@std@@@2@@2@@std@@@2@@std@@QAEAAV?$set@V?$basic_string@DU?$char_traits@D@std@@V?$allocator@D@2@@std@@U?$less@V?$basic_string@DU?$char_traits@D@std@@V?$allocator@D@2@@std@@@2@V?$allocator@V?$basic_string@DU?$char_traits@D@std@@V?$allocator@D@2@@std@@@2@@1@ABV?$basic_string@DU?$char_traits@D@std@@V?$allocator@D@2@@1@@Z 1002baa0 f i Hooks.obj
 0001:0002aac0       ??E?$_Tree_unchecked_const_iterator@V?$_Tree_val@U?$_Tree_simple_types@U?$pair@$$CBW4ItemDefinitionIndexx@@UDefItem_t@@@std@@@std@@@std@@U_Iterator_base0@2@@std@@QAEAAV01@XZ 1002bac0 f i Hooks.obj
 0001:0002aac0       ??E?$_Tree_unchecked_const_iterator@V?$_Tree_val@U?$_Tree_simple_types@V?$basic_string@DU?$char_traits@D@std@@V?$allocator@D@2@@std@@@std@@@std@@U_Iterator_base0@2@@std@@QAEAAV01@XZ 1002bac0 f i Hooks.obj
 0001:0002ab20       ??_E?$_Ref_count_obj@VNode@valve_parser@@@std@@UAEPAXI@Z 1002bb20 f i Hooks.obj
 0001:0002ab20       ??_G?$_Ref_count_obj@VNode@valve_parser@@@std@@UAEPAXI@Z 1002bb20 f i Hooks.obj
 0001:0002ab50       ??_Gitem_purchase_listener@item_purchase@@UAEPAXI@Z 1002bb50 f i Hooks.obj
 0001:0002ab50       ??_EIGameEventListener2@@UAEPAXI@Z 1002bb50 f i Hooks.obj
 0001:0002ab50       ??_GIGameEventListener2@@UAEPAXI@Z 1002bb50 f i Hooks.obj
 0001:0002ab50       ??_Eitem_purchase_listener@item_purchase@@UAEPAXI@Z 1002bb50 f i Hooks.obj
 0001:0002ab80       ??_Eruntime_error@std@@UAEPAXI@Z 1002bb80 f i Hooks.obj
 0001:0002ab80       ??_Gexception@std@@UAEPAXI@Z 1002bb80 f i Hooks.obj
 0001:0002ab80       ??_Gruntime_error@std@@UAEPAXI@Z 1002bb80 f i Hooks.obj
 0001:0002ab80       ??_Eexception@std@@UAEPAXI@Z 1002bb80 f i Hooks.obj
 0001:0002abb0       ?BreadthFirstSearch@Document@valve_parser@@QAE?AV?$shared_ptr@VNode@valve_parser@@@std@@PAD_N@Z 1002bbb0 f i Hooks.obj
 0001:0002afa0       ?BreadthFirstSearchMultiple@Document@valve_parser@@QAE?AV?$vector@V?$shared_ptr@VNode@valve_parser@@@std@@V?$allocator@V?$shared_ptr@VNode@valve_parser@@@std@@@2@@std@@PAD_N@Z 1002bfa0 f i Hooks.obj
 0001:0002b5c0       ?CHLCreateMove@@YGXHM_NAA_N@Z 1002c5c0 f   Hooks.obj
 0001:0002bfb0       ?Contains@@YA_NABV?$basic_string@DU?$char_traits@D@std@@V?$allocator@D@2@@std@@0@Z 1002cfb0 f   Hooks.obj
 0001:0002c040       ?FireGameEvent@item_purchase_listener@item_purchase@@UAEXPAVIGameEvent@@@Z 1002d040 f i Hooks.obj
 0001:0002c060       ?GetChecksum@CUserCmd@CInput@@QBEKXZ 1002d060 f i Hooks.obj
 0001:0002d470       ?GetCurrentKnifeModel@@YAHH@Z 1002e470 f   Hooks.obj
 0001:0002d5a0       ?GetCurrentMaterial@@YAPAVIMaterial@@H@Z 1002e5a0 f   Hooks.obj
 0001:0002d620       ?GetEventDebugID@item_purchase_listener@item_purchase@@UAEHXZ 1002e620 f i Hooks.obj
 0001:0002d630       ?GetGloveSkinByMenu@@YAHHH@Z 1002e630 f   Hooks.obj
 0001:0002d860       ?GetKnifeDefinitionIndex@@YAHH@Z 1002e860 f   Hooks.obj
 0001:0002d8f0       ?GloveChanger@@YAXXZ       1002e8f0 f   Hooks.obj
 0001:0002e1f0       ?IsConnected@@YG_NXZ       1002f1f0 f   Hooks.obj
 0001:0002e2d0       ?Load@Document@valve_parser@@QAE_NPADW4ENCODING@2@@Z 1002f2d0 f i Hooks.obj
 0001:0002e800       ?ParseSkins@@YAHXZ         1002f800 f   Hooks.obj
 0001:0002fca0       ?RenderDefault@@YAXPAUIDirect3DDevice9@@@Z 10030ca0 f   Hooks.obj
 0001:00030120       ?RenderInterface@@YAXXZ    10031120 f   Hooks.obj
 0001:0003a590       ?Resolver3@@YAXXZ          1003b590 f   Hooks.obj
 0001:0003aa70       ?SkinChanger@@YAXXZ        1003ba70 f   Hooks.obj
 0001:0003af30       ?StrEqu@Util@valve_parser@@SA_NVStr@2@PAD@Z 1003bf30 f i Hooks.obj
 0001:0003b070       ?StrEquI@Util@valve_parser@@SA_NVStr@2@PAD@Z 1003c070 f i Hooks.obj
 0001:0003b110       ?SubTab@@YAXPBDPAHH@Z      1003c110 f   Hooks.obj
 0001:0003b380       ?ToLower@@YA?AV?$basic_string@DU?$char_traits@D@std@@V?$allocator@D@2@@std@@V12@@Z 1003c380 f   Hooks.obj
 0001:0003b420       ?_Buyheadnode@?$_Tree_comp_alloc@V?$_Tset_traits@V?$basic_string@DU?$char_traits@D@std@@V?$allocator@D@2@@std@@U?$less@V?$basic_string@DU?$char_traits@D@std@@V?$allocator@D@2@@std@@@2@V?$allocator@V?$basic_string@DU?$char_traits@D@std@@V?$allocator@D@2@@std@@@2@$0A@@std@@@std@@QAEPAU?$_Tree_node@V?$basic_string@DU?$char_traits@D@std@@V?$allocator@D@2@@std@@PAX@2@XZ 1003c420 f i Hooks.obj
 0001:0003b440       ?_Buynode0@?$_List_alloc@U?$_List_base_types@U?$pair@QADPAD@std@@V?$allocator@U?$pair@QADPAD@std@@@2@@std@@@std@@QAEPAU?$_List_node@U?$pair@QADPAD@std@@PAX@2@PAU32@0@Z 1003c440 f i Hooks.obj
 0001:0003b470       ?_Buynode0@?$_Tree_comp_alloc@V?$_Tset_traits@V?$basic_string@DU?$char_traits@D@std@@V?$allocator@D@2@@std@@U?$less@V?$basic_string@DU?$char_traits@D@std@@V?$allocator@D@2@@std@@@2@V?$allocator@V?$basic_string@DU?$char_traits@D@std@@V?$allocator@D@2@@std@@@2@$0A@@std@@@std@@QAEPAU?$_Tree_node@V?$basic_string@DU?$char_traits@D@std@@V?$allocator@D@2@@std@@PAX@2@XZ 1003c470 f i Hooks.obj
 0001:0003b490       ?_Growmap@?$deque@V?$shared_ptr@VNode@valve_parser@@@std@@V?$allocator@V?$shared_ptr@VNode@valve_parser@@@std@@@2@@std@@IAEXI@Z 1003c490 f i Hooks.obj
 0001:0003b630       ?_Init@?$_Hash@V?$_Umap_traits@PADPADV?$_Uhash_compare@PADU?$hash@PAD@std@@U?$equal_to@PAD@2@@std@@V?$allocator@U?$pair@QADPAD@std@@@2@$0A@@std@@@std@@IAEXI@Z 1003c630 f i Hooks.obj
 0001:0003b630       ?_Init@?$_Hash@V?$_Umap_traits@V?$basic_string@DU?$char_traits@D@std@@V?$allocator@D@2@@std@@V?$set@V?$basic_string@DU?$char_traits@D@std@@V?$allocator@D@2@@std@@U?$less@V?$basic_string@DU?$char_traits@D@std@@V?$allocator@D@2@@std@@@2@V?$allocator@V?$basic_string@DU?$char_traits@D@std@@V?$allocator@D@2@@std@@@2@@2@V?$_Uhash_compare@V?$basic_string@DU?$char_traits@D@std@@V?$allocator@D@2@@std@@U?$hash@V?$basic_string@DU?$char_traits@D@std@@V?$allocator@D@2@@std@@@2@U?$equal_to@V?$basic_string@DU?$char_traits@D@std@@V?$allocator@D@2@@std@@@2@@2@V?$allocator@U?$pair@$$CBV?$basic_string@DU?$char_traits@D@std@@V?$allocator@D@2@@std@@V?$set@V?$basic_string@DU?$char_traits@D@std@@V?$allocator@D@2@@std@@U?$less@V?$basic_string@DU?$char_traits@D@std@@V?$allocator@D@2@@std@@@2@V?$allocator@V?$basic_string@DU?$char_traits@D@std@@V?$allocator@D@2@@std@@@2@@2@@std@@@2@$0A@@std@@@std@@IAEXI@Z 1003c630 f i Hooks.obj
 0001:0003b630       ?_Init@?$_Hash@V?$_Umap_traits@V?$basic_string@DU?$char_traits@D@std@@V?$allocator@D@2@@std@@UskinInfo@@V?$_Uhash_compare@V?$basic_string@DU?$char_traits@D@std@@V?$allocator@D@2@@std@@U?$hash@V?$basic_string@DU?$char_traits@D@std@@V?$allocator@D@2@@std@@@2@U?$equal_to@V?$basic_string@DU?$char_traits@D@std@@V?$allocator@D@2@@std@@@2@@2@V?$allocator@U?$pair@$$CBV?$basic_string@DU?$char_traits@D@std@@V?$allocator@D@2@@std@@UskinInfo@@@std@@@2@$0A@@std@@@std@@IAEXI@Z 1003c630 f i Hooks.obj
 0001:0003b630       ?_Init@?$_Hash@V?$_Umap_traits@V?$basic_string@DU?$char_traits@D@std@@V?$allocator@D@2@@std@@V12@V?$_Uhash_compare@V?$basic_string@DU?$char_traits@D@std@@V?$allocator@D@2@@std@@U?$hash@V?$basic_string@DU?$char_traits@D@std@@V?$allocator@D@2@@std@@@2@U?$equal_to@V?$basic_string@DU?$char_traits@D@std@@V?$allocator@D@2@@std@@@2@@2@V?$allocator@U?$pair@$$CBV?$basic_string@DU?$char_traits@D@std@@V?$allocator@D@2@@std@@V12@@std@@@2@$0A@@std@@@std@@IAEXI@Z 1003c630 f i Hooks.obj
 0001:0003b690       ?_Make_iter@?$_Hash@V?$_Umap_traits@PADPADV?$_Uhash_compare@PADU?$hash@PAD@std@@U?$equal_to@PAD@2@@std@@V?$allocator@U?$pair@QADPAD@std@@@2@$0A@@std@@@std@@QBE?AV?$_List_iterator@V?$_List_val@U?$_List_simple_types@U?$pair@QADPAD@std@@@std@@@std@@@2@V?$_List_unchecked_const_iterator@V?$_List_val@U?$_List_simple_types@U?$pair@QADPAD@std@@@std@@@std@@U_Iterator_base0@2@@2@@Z 1003c690 f i Hooks.obj
 0001:0003b690       ?_Make_iter@?$_Hash@V?$_Umap_traits@V?$basic_string@DU?$char_traits@D@std@@V?$allocator@D@2@@std@@UskinInfo@@V?$_Uhash_compare@V?$basic_string@DU?$char_traits@D@std@@V?$allocator@D@2@@std@@U?$hash@V?$basic_string@DU?$char_traits@D@std@@V?$allocator@D@2@@std@@@2@U?$equal_to@V?$basic_string@DU?$char_traits@D@std@@V?$allocator@D@2@@std@@@2@@2@V?$allocator@U?$pair@$$CBV?$basic_string@DU?$char_traits@D@std@@V?$allocator@D@2@@std@@UskinInfo@@@std@@@2@$0A@@std@@@std@@QBE?AV?$_List_iterator@V?$_List_val@U?$_List_simple_types@U?$pair@$$CBV?$basic_string@DU?$char_traits@D@std@@V?$allocator@D@2@@std@@UskinInfo@@@std@@@std@@@std@@@2@V?$_List_unchecked_const_iterator@V?$_List_val@U?$_List_simple_types@U?$pair@$$CBV?$basic_string@DU?$char_traits@D@std@@V?$allocator@D@2@@std@@UskinInfo@@@std@@@std@@@std@@U_Iterator_base0@2@@2@@Z 1003c690 f i Hooks.obj
 0001:0003b690       ?_Make_iter@?$_Hash@V?$_Umap_traits@V?$basic_string@DU?$char_traits@D@std@@V?$allocator@D@2@@std@@V12@V?$_Uhash_compare@V?$basic_string@DU?$char_traits@D@std@@V?$allocator@D@2@@std@@U?$hash@V?$basic_string@DU?$char_traits@D@std@@V?$allocator@D@2@@std@@@2@U?$equal_to@V?$basic_string@DU?$char_traits@D@std@@V?$allocator@D@2@@std@@@2@@2@V?$allocator@U?$pair@$$CBV?$basic_string@DU?$char_traits@D@std@@V?$allocator@D@2@@std@@V12@@std@@@2@$0A@@std@@@std@@QBE?AV?$_List_iterator@V?$_List_val@U?$_List_simple_types@U?$pair@$$CBV?$basic_string@DU?$char_traits@D@std@@V?$allocator@D@2@@std@@V12@@std@@@std@@@std@@@2@V?$_List_unchecked_const_iterator@V?$_List_val@U?$_List_simple_types@U?$pair@$$CBV?$basic_string@DU?$char_traits@D@std@@V?$allocator@D@2@@std@@V12@@std@@@std@@@std@@U_Iterator_base0@2@@2@@Z 1003c690 f i Hooks.obj
 0001:0003b690       ?_Make_iter@?$_Hash@V?$_Umap_traits@V?$basic_string@DU?$char_traits@D@std@@V?$allocator@D@2@@std@@V?$set@V?$basic_string@DU?$char_traits@D@std@@V?$allocator@D@2@@std@@U?$less@V?$basic_string@DU?$char_traits@D@std@@V?$allocator@D@2@@std@@@2@V?$allocator@V?$basic_string@DU?$char_traits@D@std@@V?$allocator@D@2@@std@@@2@@2@V?$_Uhash_compare@V?$basic_string@DU?$char_traits@D@std@@V?$allocator@D@2@@std@@U?$hash@V?$basic_string@DU?$char_traits@D@std@@V?$allocator@D@2@@std@@@2@U?$equal_to@V?$basic_string@DU?$char_traits@D@std@@V?$allocator@D@2@@std@@@2@@2@V?$allocator@U?$pair@$$CBV?$basic_string@DU?$char_traits@D@std@@V?$allocator@D@2@@std@@V?$set@V?$basic_string@DU?$char_traits@D@std@@V?$allocator@D@2@@std@@U?$less@V?$basic_string@DU?$char_traits@D@std@@V?$allocator@D@2@@std@@@2@V?$allocator@V?$basic_string@DU?$char_traits@D@std@@V?$allocator@D@2@@std@@@2@@2@@std@@@2@$0A@@std@@@std@@QBE?AV?$_List_iterator@V?$_List_val@U?$_List_simple_types@U?$pair@$$CBV?$basic_string@DU?$char_traits@D@std@@V?$allocator@D@2@@std@@V?$set@V?$basic_string@DU?$char_traits@D@std@@V?$allocator@D@2@@std@@U?$less@V?$basic_string@DU?$char_traits@D@std@@V?$allocator@D@2@@std@@@2@V?$allocator@V?$basic_string@DU?$char_traits@D@std@@V?$allocator@D@2@@std@@@2@@2@@std@@@std@@@std@@@2@V?$_List_unchecked_const_iterator@V?$_List_val@U?$_List_simple_types@U?$pair@$$CBV?$basic_string@DU?$char_traits@D@std@@V?$allocator@D@2@@std@@V?$set@V?$basic_string@DU?$char_traits@D@std@@V?$allocator@D@2@@std@@U?$less@V?$basic_string@DU?$char_traits@D@std@@V?$allocator@D@2@@std@@@2@V?$allocator@V?$basic_string@DU?$char_traits@D@std@@V?$allocator@D@2@@std@@@2@@2@@std@@@std@@@std@@U_Iterator_base0@2@@2@@Z 1003c690 f i Hooks.obj
 0001:0003b6a0       ?_Tidy@?$vector@V?$basic_string@DU?$char_traits@D@std@@V?$allocator@D@2@@std@@V?$allocator@V?$basic_string@DU?$char_traits@D@std@@V?$allocator@D@2@@std@@@2@@std@@AAEXXZ 1003c6a0 f i Hooks.obj
 0001:0003b760       ?_Xlen@?$deque@V?$shared_ptr@VNode@valve_parser@@@std@@V?$allocator@V?$shared_ptr@VNode@valve_parser@@@std@@@2@@std@@IBEXXZ 1003c760 f i Hooks.obj
 0001:0003b770       ?append@?$basic_string@DU?$char_traits@D@std@@V?$allocator@D@2@@std@@QAEAAV12@QBD@Z 1003c770 f i Hooks.obj
 0001:0003b7e0       ?at@?$map@W4ItemDefinitionIndexx@@UDefItem_t@@U?$less@W4ItemDefinitionIndexx@@@std@@V?$allocator@U?$pair@$$CBW4ItemDefinitionIndexx@@UDefItem_t@@@std@@@4@@std@@QBEABUDefItem_t@@ABW4ItemDefinitionIndexx@@@Z 1003c7e0 f i Hooks.obj
 0001:0003b830       ?c_str@?$basic_string@DU?$char_traits@D@std@@V?$allocator@D@2@@std@@QBEPBDXZ 1003c830 f i Hooks.obj
 0001:0003b840       ?cleanup@hooks@@YAXXZ      1003c840 f   Hooks.obj
 0001:0003b8e0       ?cnv_to_utf32@Document@valve_parser@@AAEXPADW4ENCODING@2@@Z 1003c8e0 f i Hooks.obj
 0001:0003bc10       ?cnv_utf8@Document@valve_parser@@AAEXPAD@Z 1003cc10 f i Hooks.obj
 0001:0003bd60       ?deallocate@?$allocator@U?$_List_node@U?$pair@$$CBV?$basic_string@DU?$char_traits@D@std@@V?$allocator@D@2@@std@@UskinInfo@@@std@@PAX@std@@@std@@QAEXQAU?$_List_node@U?$pair@$$CBV?$basic_string@DU?$char_traits@D@std@@V?$allocator@D@2@@std@@UskinInfo@@@std@@PAX@2@I@Z 1003cd60 f i Hooks.obj
 0001:0003bda0       ?deallocate@?$allocator@U?$_List_node@U?$pair@$$CBV?$basic_string@DU?$char_traits@D@std@@V?$allocator@D@2@@std@@V12@@std@@PAX@std@@@std@@QAEXQAU?$_List_node@U?$pair@$$CBV?$basic_string@DU?$char_traits@D@std@@V?$allocator@D@2@@std@@V12@@std@@PAX@2@I@Z 1003cda0 f i Hooks.obj
 0001:0003bdf0       ?deallocate@?$allocator@U?$_List_node@U?$pair@$$CBV?$basic_string@DU?$char_traits@D@std@@V?$allocator@D@2@@std@@V?$set@V?$basic_string@DU?$char_traits@D@std@@V?$allocator@D@2@@std@@U?$less@V?$basic_string@DU?$char_traits@D@std@@V?$allocator@D@2@@std@@@2@V?$allocator@V?$basic_string@DU?$char_traits@D@std@@V?$allocator@D@2@@std@@@2@@2@@std@@PAX@std@@@std@@QAEXQAU?$_List_node@U?$pair@$$CBV?$basic_string@DU?$char_traits@D@std@@V?$allocator@D@2@@std@@V?$set@V?$basic_string@DU?$char_traits@D@std@@V?$allocator@D@2@@std@@U?$less@V?$basic_string@DU?$char_traits@D@std@@V?$allocator@D@2@@std@@@2@V?$allocator@V?$basic_string@DU?$char_traits@D@std@@V?$allocator@D@2@@std@@@2@@2@@std@@PAX@2@I@Z 1003cdf0 f i Hooks.obj
 0001:0003be30       ?hkCreateMove@@YGXHM_N@Z   1003ce30 f   Hooks.obj
 0001:0003be70       ?hkDoPostScreenSpaceEffects@@YI_NPAX0PAUCViewSetup@@@Z 1003ce70 f   Hooks.obj
 0001:0003c1a0       ?hkDrawModelExecute@@YIXPAXH00ABUModelRenderInfo_t@@PAY123M@Z 1003d1a0 f   Hooks.obj
 0001:0003ce00       ?hkFrameStageNotify@@YGXW4ClientFrameStage_t@@@Z 1003de00 f   Hooks.obj
 0001:0003cf80       ?hkGetViewModelFOV@@YIMPAX0@Z 1003df80 f   Hooks.obj
 0001:0003d000       ?hkOverrideView@@YIXPAX0PAUCViewSetup@@@Z 1003e000 f   Hooks.obj
 0001:0003d210       ?hkPaintTraverse@@YIXPAXHI_N1@Z 1003e210 f   Hooks.obj
 0001:0003d8e0       ?hkPlaySound@@YGXPBD@Z     1003e8e0 f   Hooks.obj
 0001:0003da10       ?hkPresent@@YGJPAUIDirect3DDevice9@@PAUtagRECT@@1PAUHWND__@@PAU_RGNDATA@@@Z 1003ea10 f   Hooks.obj
 0001:0003db30       ?hkReset@@YGJPAUIDirect3DDevice9@@PAU_D3DPRESENT_PARAMETERS_@@@Z 1003eb30 f   Hooks.obj
 0001:0003dbb0       ?hkSvCheatsGetBool@@YI_NPAX0@Z 1003ebb0 f   Hooks.obj
 0001:0003dc30       ?initialize@hooks@@YAXXZ   1003ec30 f   Hooks.obj
 0001:0003ddd0       ?instance@?$singleton@Vgrenade_prediction@@@@SAAAVgrenade_prediction@@XZ 1003edd0 f i Hooks.obj
 0001:0003de50       ?on_fire_event@item_purchase@@QAEXPAVIGameEvent@@_N@Z 1003ee50 f i Hooks.obj
 0001:0003e670       ?push_back@?$ImVector@D@@QAEXABD@Z 1003f670 f i Hooks.obj
 0001:0003e6f0       ?push_back@?$deque@V?$shared_ptr@VNode@valve_parser@@@std@@V?$allocator@V?$shared_ptr@VNode@valve_parser@@@std@@@2@@std@@QAEXABV?$shared_ptr@VNode@valve_parser@@@2@@Z 1003f6f0 f i Hooks.obj
 0001:0003e7a0       ?singleton@item_purchase@@SAPAV1@XZ 1003f7a0 f i Hooks.obj
 0001:0003e850       ?skipBOM@Document@valve_parser@@AAEPADPADW4ENCODING@2@@Z 1003f850 f i Hooks.obj
 0001:0003e8d0       ?substr@?$basic_string@DU?$char_traits@D@std@@V?$allocator@D@2@@std@@QBE?AV12@II@Z 1003f8d0 f i Hooks.obj
 0001:0003e920       ?toInt@Str@valve_parser@@QAEHXZ 1003f920 f i Hooks.obj
 0001:0003ea00       ?unhook_all@vfunc_hook@@QAEXXZ 1003fa00 f i Hooks.obj
 0001:0003eab0       ?weaponnames@@YAPBDH@Z     1003fab0 f   Hooks.obj
 0001:0003ed20       ?what@exception@std@@UBEPBDXZ 1003fd20 f i Hooks.obj
 0001:0003ed30       _snprintf                  1003fd30 f i Hooks.obj
 0001:0003ed70       ?ImGui_ImplDX9_CreateDeviceObjects@@YA_NXZ 1003fd70 f   imgui_impl_dx9.obj
 0001:0003ee50       ?ImGui_ImplDX9_Init@@YA_NPAXPAUIDirect3DDevice9@@@Z 1003fe50 f   imgui_impl_dx9.obj
 0001:0003ef30       ?ImGui_ImplDX9_InvalidateDeviceObjects@@YAXXZ 1003ff30 f   imgui_impl_dx9.obj
 0001:0003efa0       ?ImGui_ImplDX9_NewFrame@@YAXXZ 1003ffa0 f   imgui_impl_dx9.obj
 0001:0003f180       ?ImGui_ImplDX9_RenderDrawLists@@YAXPAUImDrawData@@@Z 10040180 f   imgui_impl_dx9.obj
 0001:0003f850       ?ImGui_ImplDX9_WndProcHandler@@YAJPAUHWND__@@IIJ@Z 10040850 f   imgui_impl_dx9.obj
 0001:0003fa30       ??0?$ImVector@PAUImDrawList@@@@QAE@XZ 10040a30 f i imgui.obj
 0001:0003fa50       ??0ImDrawList@@QAE@XZ      10040a50 f i imgui.obj
 0001:0003fb40       ??0ImGuiContext@@QAE@XZ    10040b40 f i imgui.obj
 0001:00040410       ??0ImGuiDrawContext@@QAE@XZ 10041410 f i imgui.obj
 0001:00040660       ??0ImGuiStyle@@QAE@XZ      10041660 f   imgui.obj
 0001:00040a40       ??0ImGuiWindow@@QAE@PBD@Z  10041a40 f   imgui.obj
 0001:00040eb0       ??1?$ImVector@UImGuiIniData@@@@QAE@XZ 10041eb0 f i imgui.obj
 0001:00040eb0       ??1?$ImVector@PAX@@QAE@XZ  10041eb0 f i imgui.obj
 0001:00040eb0       ??1?$ImVector@UImGuiStyleMod@@@@QAE@XZ 10041eb0 f i imgui.obj
 0001:00040eb0       ??1?$ImVector@PAUImGuiWindow@@@@QAE@XZ 10041eb0 f i imgui.obj
 0001:00040eb0       ??1?$ImVector@I@@QAE@XZ    10041eb0 f i imgui.obj
 0001:00040eb0       ??1?$ImVector@UImGuiColMod@@@@QAE@XZ 10041eb0 f i imgui.obj
 0001:00040eb0       ??1?$ImVector@PAUImDrawList@@@@QAE@XZ 10041eb0 f i imgui.obj
 0001:00040eb0       ??1?$ImVector@UImDrawCmd@@@@QAE@XZ 10041eb0 f i imgui.obj
 0001:00040eb0       ??1?$ImVector@UImVec2@@@@QAE@XZ 10041eb0 f i imgui.obj
 0001:00040eb0       ??1?$ImVector@UImDrawVert@@@@QAE@XZ 10041eb0 f i imgui.obj
 0001:00040eb0       ??1?$ImVector@PAUImFont@@@@QAE@XZ 10041eb0 f i imgui.obj
 0001:00040eb0       ??1?$ImVector@G@@QAE@XZ    10041eb0 f i imgui.obj
 0001:00040eb0       ??1?$ImVector@UImDrawChannel@@@@QAE@XZ 10041eb0 f i imgui.obj
 0001:00040eb0       ??1?$ImVector@UImVec4@@@@QAE@XZ 10041eb0 f i imgui.obj
 0001:00040eb0       ??1?$ImVector@UImGuiPopupRef@@@@QAE@XZ 10041eb0 f i imgui.obj
 0001:00040f20       ??1ImDrawList@@QAE@XZ      10041f20 f i imgui.obj
 0001:00041080       ??1ImGuiContext@@QAE@XZ    10042080 f i imgui.obj
 0001:000412c0       ??1ImGuiDrawContext@@QAE@XZ 100422c0 f i imgui.obj
 0001:00041430       ??1ImGuiStorage@@QAE@XZ    10042430 f i imgui.obj
 0001:00041490       ??1ImGuiTextEditState@@QAE@XZ 10042490 f i imgui.obj
 0001:000415e0       ?AddInputCharacter@ImGuiIO@@QAEXG@Z 100425e0 f   imgui.obj
 0001:000419e0       ?Begin@ImGui@@YA_NPBDPA_NABUImVec2@@MH@Z 100429e0 f   imgui.obj
 0001:000446a0       ?BeginChild@ImGui@@YA_NPBDABUImVec2@@_NH@Z 100456a0 f   imgui.obj
 0001:00044930       ?BeginChildFrame@ImGui@@YA_NIABUImVec2@@H@Z 10045930 f   imgui.obj
 0001:00044a20       ?BeginGroup@ImGui@@YAXXZ   10045a20 f   imgui.obj
 0001:00044b30       ?BeginPopup@ImGui@@YA_NPBD@Z 10045b30 f   imgui.obj
 0001:00044d40       ?Button@ImGui@@YA_NPBDABUImVec2@@@Z 10045d40 f   imgui.obj
 0001:00044d60       ?ButtonBehavior@ImGui@@YA_NABUImRect@@IPA_N1H@Z 10045d60 f   imgui.obj
 0001:00045010       ?ButtonEx@ImGui@@YA_NPBDABUImVec2@@H@Z 10046010 f   imgui.obj
 0001:00045280       ?CalcItemSize@ImGui@@YA?AUImVec2@@U2@MM@Z 10046280 f   imgui.obj
 0001:00045390       ?CalcItemWidth@ImGui@@YAMXZ 10046390 f   imgui.obj
 0001:00045430       ?CalcTextSize@ImGui@@YA?AUImVec2@@PBD0_NM@Z 10046430 f   imgui.obj
 0001:00045520       ?Checkbox@ImGui@@YA_NPBDPA_N@Z 10046520 f   imgui.obj
 0001:000459b0       ?CloseButton@ImGui@@YA_NIABUImVec2@@M@Z 100469b0 f   imgui.obj
 0001:00045bc0       ?CloseCurrentPopup@ImGui@@YAXXZ 10046bc0 f   imgui.obj
 0001:00045ce0       ?ColorButton@ImGui@@YA_NABUImVec4@@_N1@Z 10046ce0 f   imgui.obj
 0001:00045e60       ?ColorConvertFloat4ToU32@ImGui@@YAIABUImVec4@@@Z 10046e60 f   imgui.obj
 0001:00045f20       ?ColorConvertHSVtoRGB@ImGui@@YAXMMMAAM00@Z 10046f20 f   imgui.obj
 0001:00046090       ?ColorConvertRGBtoHSV@ImGui@@YAXMMMAAM00@Z 10047090 f   imgui.obj
 0001:00046140       ?Columns@ImGui@@YAXHPBD_N@Z 10047140 f   imgui.obj
 0001:00046870       ?Combo@ImGui@@YA_NPBDPAH0H@Z 10047870 f   imgui.obj
 0001:000468c0       ?Combo@ImGui@@YA_NPBDPAHP6A_NPAXHPAPBD@Z2HH@Z 100478c0 f   imgui.obj
 0001:00047010       ?Combo@ImGui@@YA_NPBDPAHPBQBDHH@Z 10048010 f   imgui.obj
 0001:000472d0       ?CursorClamp@ImGuiTextEditState@@QAEXXZ 100482d0 f i imgui.obj
 0001:00047560       ?DragBehavior@ImGui@@YA_NABUImRect@@IPAMMMMHM@Z 10048560 f   imgui.obj
 0001:00047870       ?DragFloat@ImGui@@YA_NPBDPAMMMM0M@Z 10048870 f   imgui.obj
 0001:00047d00       ?DragInt@ImGui@@YA_NPBDPAHMHH0@Z 10048d00 f   imgui.obj
 0001:00047d70       ?End@ImGui@@YAXXZ          10048d70 f   imgui.obj
 0001:00047f60       ?EndChild@ImGui@@YAXXZ     10048f60 f   imgui.obj
 0001:00048060       ?EndFrame@ImGui@@YAXXZ     10049060 f   imgui.obj
 0001:00048290       ?EndGroup@ImGui@@YAXXZ     10049290 f   imgui.obj
 0001:00048440       ?EndPopup@ImGui@@YAXXZ     10049440 f   imgui.obj
 0001:00048770       ?FindWindowByName@ImGui@@YAPAUImGuiWindow@@PBD@Z 10049770 f   imgui.obj
 0001:00048810       ?FocusWindow@ImGui@@YAXPAUImGuiWindow@@@Z 10049810 f   imgui.obj
 0001:00048930       ?FocusableItemRegister@ImGui@@YA_NPAUImGuiWindow@@_N1@Z 10049930 f   imgui.obj
 0001:00048b00       ?GetColorU32@ImGui@@YAIABUImVec4@@@Z 10049b00 f   imgui.obj
 0001:00048bd0       ?GetColorU32@ImGui@@YAIHM@Z 10049bd0 f   imgui.obj
 0001:00048cb0       ?GetColumnOffset@ImGui@@YAMH@Z 10049cb0 f   imgui.obj
 0001:00048d30       ?GetContentRegionMax@ImGui@@YA?AUImVec2@@XZ 10049d30 f   imgui.obj
 0001:00048d80       ?GetCursorScreenPos@ImGui@@YA?AUImVec2@@XZ 10049d80 f   imgui.obj
 0001:00048e40       ?GetFontSize@ImGui@@YAMXZ  10049e40 f   imgui.obj
 0001:00048e90       ?GetID@ImGuiWindow@@QAEIPBD0@Z 10049e90 f   imgui.obj
 0001:00048ee0       ?GetIO@ImGui@@YAAAUImGuiIO@@XZ 10049ee0 f   imgui.obj
 0001:00048ef0       ?GetInt@ImGuiStorage@@QBEHIH@Z 10049ef0 f   imgui.obj
 0001:00048f30       ?GetStyle@ImGui@@YAAAUImGuiStyle@@XZ 10049f30 f   imgui.obj
 0001:00048fd0       ?GetWindowContentRegionWidth@ImGui@@YAMXZ 10049fd0 f   imgui.obj
 0001:00048ff0       ?GetWindowDrawList@ImGui@@YAPAUImDrawList@@XZ 10049ff0 f   imgui.obj
 0001:00049010       ?Hotkey@ImGui@@YA_NPBDPAHABUImVec2@@@Z 1004a010 f   imgui.obj
 0001:00049730       ?ImFileLoadToMemory@@YAPAXPBD0PAHH@Z 1004a730 f   imgui.obj
 0001:00049840       ?ImFileOpen@@YAPAU_iobuf@@PBD0@Z 1004a840 f   imgui.obj
 0001:00049920       ?ImFormatString@@YAHPADHPBDZZ 1004a920 f   imgui.obj
 0001:00049970       ?ImHash@@YAIPBXHI@Z        1004a970 f   imgui.obj
 0001:00049a90       ?ImStrncpy@@YAXPADPBDH@Z   1004aa90 f   imgui.obj
 0001:00049ac0       ?ImTextCharFromUtf8@@YAHPAIPBD1@Z 1004aac0 f   imgui.obj
 0001:00049c80       ?ImTextCountCharsFromUtf8@@YAHPBD0@Z 1004ac80 f   imgui.obj
 0001:00049ed0       ?ImTextCountUtf8BytesFromStr@@YAHPBG0@Z 1004aed0 f   imgui.obj
 0001:00049f50       ?ImTextStrFromUtf8@@YAHPAGHPBD1PAPBD@Z 1004af50 f   imgui.obj
 0001:0004a1e0       ?ImTextStrToUtf8@@YAHPADHPBG1@Z 1004b1e0 f   imgui.obj
 0001:0004a370       ?InputInt@ImGui@@YA_NPBDPAHHHH@Z 1004b370 f   imgui.obj
 0001:0004a3d0       ?InputScalarAsWidgetReplacement@ImGui@@YA_NABUImRect@@PBDW4ImGuiDataType@@PAXIH@Z 1004b3d0 f   imgui.obj
 0001:0004a590       ?InputScalarEx@ImGui@@YA_NPBDW4ImGuiDataType@@PAX220H@Z 1004b590 f   imgui.obj
 0001:0004a8d0       ?InputText@ImGui@@YA_NPBDPADIHP6AHPAUImGuiTextEditCallbackData@@@ZPAX@Z 1004b8d0 f   imgui.obj
 0001:0004a920       ?InputTextEx@ImGui@@YA_NPBDPADHABUImVec2@@HP6AHPAUImGuiTextEditCallbackData@@@ZPAX@Z 1004b920 f   imgui.obj
 0001:0004cef0       ?InvisibleButton@ImGui@@YA_NPBDABUImVec2@@@Z 1004def0 f   imgui.obj
 0001:0004d010       ?IsHovered@ImGui@@YA_NABUImRect@@I_N@Z 1004e010 f   imgui.obj
 0001:0004d0a0       ?IsItemActive@ImGui@@YA_NXZ 1004e0a0 f   imgui.obj
 0001:0004d0d0       ?IsItemHovered@ImGui@@YA_NXZ 1004e0d0 f   imgui.obj
 0001:0004d1d0       ?IsMouseClicked@ImGui@@YA_NH_N@Z 1004e1d0 f   imgui.obj
 0001:0004d2b0       ?IsMouseHoveringRect@ImGui@@YA_NABUImVec2@@0_N@Z 1004e2b0 f   imgui.obj
 0001:0004d420       ?ItemAdd@ImGui@@YA_NABUImRect@@PBI@Z 1004e420 f   imgui.obj
 0001:0004d530       ?ItemSize@ImGui@@YAXABUImVec2@@M@Z 1004e530 f   imgui.obj
 0001:0004d6c0       ?ListBoxFooter@ImGui@@YAXXZ 1004e6c0 f   imgui.obj
 0001:0004d880       ?ListBoxHeader@ImGui@@YA_NPBDABUImVec2@@@Z 1004e880 f   imgui.obj
 0001:0004de80       ?LogText@ImGui@@YAXPBDZZ   1004ee80 f   imgui.obj
 0001:0004df10       ?MemAlloc@ImGui@@YAPAXI@Z  1004ef10 f   imgui.obj
 0001:0004df30       ?MemFree@ImGui@@YAXPAX@Z   1004ef30 f   imgui.obj
 0001:0004df60       ?MenuItem@ImGui@@YA_NPBD0_N1@Z 1004ef60 f   imgui.obj
 0001:0004e260       ?NewFrame@ImGui@@YAXXZ     1004f260 f   imgui.obj
 0001:0004eeb0       ?OnKeyPressed@ImGuiTextEditState@@QAEXH@Z 1004feb0 f   imgui.obj
 0001:0004eee0       ?OpenPopup@ImGui@@YAXPBD@Z 1004fee0 f   imgui.obj
 0001:0004ef00       ?OpenPopupEx@ImGui@@YAXPBD_N@Z 1004ff00 f   imgui.obj
 0001:0004f060       ?ParseFormatPrecision@ImGui@@YAHPBDH@Z 10050060 f   imgui.obj
 0001:0004f0d0       ?PopClipRect@ImGui@@YAXXZ  100500d0 f   imgui.obj
 0001:0004f130       ?PopFont@ImGui@@YAXXZ      10050130 f   imgui.obj
 0001:0004f1f0       ?PopID@ImGui@@YAXXZ        100501f0 f   imgui.obj
 0001:0004f210       ?PopItemWidth@ImGui@@YAXXZ 10050210 f   imgui.obj
 0001:0004f260       ?PopStyleColor@ImGui@@YAXH@Z 10050260 f   imgui.obj
 0001:0004f2b0       ?PopStyleVar@ImGui@@YAXH@Z 100502b0 f   imgui.obj
 0001:0004f460       ?PushFont@ImGui@@YAXPAUImFont@@@Z 10050460 f   imgui.obj
 0001:0004f5d0       ?PushID@ImGui@@YAXPBX@Z    100505d0 f   imgui.obj
 0001:0004f5d0       ?PushID@ImGui@@YAXH@Z      100505d0 f   imgui.obj
 0001:0004f670       ?PushID@ImGui@@YAXPBD@Z    10050670 f   imgui.obj
 0001:0004f700       ?PushItemWidth@ImGui@@YAXM@Z 10050700 f   imgui.obj
 0001:0004f790       ?PushStyleColor@ImGui@@YAXHABUImVec4@@@Z 10050790 f   imgui.obj
 0001:0004f8a0       ?PushStyleVar@ImGui@@YAXHABUImVec2@@@Z 100508a0 f   imgui.obj
 0001:0004f910       ?RadioButton@ImGui@@YA_NPBDPAHH@Z 10050910 f   imgui.obj
 0001:0004f940       ?RadioButton@ImGui@@YA_NPBD_N@Z 10050940 f   imgui.obj
 0001:0004fdb0       ?Render@ImGui@@YAXXZ       10050db0 f   imgui.obj
 0001:000501a0       ?RenderCheckMark@ImGui@@YAXUImVec2@@I@Z 100511a0 f   imgui.obj
 0001:000503e0       ?RenderCollapseTriangle@ImGui@@YAXUImVec2@@_NM@Z 100513e0 f   imgui.obj
 0001:00050530       ?RenderFrame@ImGui@@YAXUImVec2@@0I_NM@Z 10051530 f   imgui.obj
 0001:00050650       ?RenderText@ImGui@@YAXUImVec2@@PBD1_NI@Z 10051650 f   imgui.obj
 0001:00050720       ?RenderTextClipped@ImGui@@YAXABUImVec2@@0PBD1PBU2@0PBUImRect@@@Z 10051720 f   imgui.obj
 0001:00050920       ?RoundScalar@ImGui@@YAMMH@Z 10051920 f   imgui.obj
 0001:00050df0       ?SameLine@ImGui@@YAXMM@Z   10051df0 f   imgui.obj
 0001:00051670       ?Selectable@ImGui@@YA_NPBDPA_NHABUImVec2@@@Z 10052670 f   imgui.obj
 0001:000516b0       ?Selectable@ImGui@@YA_NPBD_NHABUImVec2@@@Z 100526b0 f   imgui.obj
 0001:00051b20       ?Separator@ImGui@@YAXXZ    10052b20 f   imgui.obj
 0001:00051c80       ?SetActiveID@ImGui@@YAXIPAUImGuiWindow@@@Z 10052c80 f   imgui.obj
 0001:00051cc0       ?SetClipboardText@ImGui@@YAXPBD@Z 10052cc0 f   imgui.obj
 0001:00051d60       ?SetCursorScreenPos@ImGui@@YAXABUImVec2@@@Z 10052d60 f   imgui.obj
 0001:00051dd0       ?SetInt@ImGuiStorage@@QAEXIH@Z 10052dd0 f   imgui.obj
 0001:00051e30       ?SetNextWindowPos@ImGui@@YAXABUImVec2@@H@Z 10052e30 f   imgui.obj
 0001:00051e70       ?SetNextWindowPosCenter@ImGui@@YAXH@Z 10052e70 f   imgui.obj
 0001:00051eb0       ?SetNextWindowSize@ImGui@@YAXABUImVec2@@H@Z 10052eb0 f   imgui.obj
 0001:00052030       ?SliderBehavior@ImGui@@YA_NABUImRect@@IPAMMMMHHUImVec4@@@Z 10053030 f   imgui.obj
 0001:00052610       ?SliderFloat@ImGui@@YA_NPBDPAMMM0MUImVec2@@UImVec4@@@Z 10053610 f   imgui.obj
 0001:00052ac0       ?SliderInt@ImGui@@YA_NPBDPAHHH0UImVec4@@@Z 10053ac0 f   imgui.obj
 0001:00052b50       ?Text@ImGui@@YAXPBDZZ      10053b50 f   imgui.obj
 0001:00052b70       ?TextUnformatted@ImGui@@YAXPBD0@Z 10053b70 f   imgui.obj
 0001:00053010       ?TextV@ImGui@@YAXPBDPAD@Z  10054010 f   imgui.obj
 0001:000530a0       ?appendv@ImGuiTextBuffer@@QAEXPBDPAD@Z 100540a0 f   imgui.obj
 0001:00053180       ?insert@?$ImVector@UPair@ImGuiStorage@@@@QAEPAUPair@ImGuiStorage@@PBU23@ABU23@@Z 10054180 f i imgui.obj
 0001:00053260       ?push_back@?$ImVector@UImGuiPopupRef@@@@QAEXABUImGuiPopupRef@@@Z 10054260 f i imgui.obj
 0001:000532c0       ?push_back@?$ImVector@UImGuiStyleMod@@@@QAEXABUImGuiStyleMod@@@Z 100542c0 f i imgui.obj
 0001:00053390       ?reserve@?$ImVector@D@@QAEXH@Z 10054390 f i imgui.obj
 0001:00053390       ?reserve@?$ImVector@_N@@QAEXH@Z 10054390 f i imgui.obj
 0001:00053410       ?reserve@?$ImVector@PAUImDrawList@@@@QAEXH@Z 10054410 f i imgui.obj
 0001:00053410       ?reserve@?$ImVector@I@@QAEXH@Z 10054410 f i imgui.obj
 0001:00053410       ?reserve@?$ImVector@PAUImGuiWindow@@@@QAEXH@Z 10054410 f i imgui.obj
 0001:00053410       ?reserve@?$ImVector@M@@QAEXH@Z 10054410 f i imgui.obj
 0001:00053490       ?reserve@?$ImVector@UImGuiPopupRef@@@@QAEXH@Z 10054490 f i imgui.obj
 0001:00053510       ?reserve@?$ImVector@UImVec2@@@@QAEXH@Z 10054510 f i imgui.obj
 0001:00053590       ?resize@?$ImVector@D@@QAEXH@Z 10054590 f i imgui.obj
 0001:000535d0       ?resize@?$ImVector@G@@QAEXH@Z 100545d0 f i imgui.obj
 0001:00053680       ?resize@?$ImVector@UImGuiColumnData@@@@QAEXH@Z 10054680 f i imgui.obj
 0001:00053730       ?resize@?$ImVector@UImGuiGroupData@@@@QAEXH@Z 10054730 f i imgui.obj
 0001:000549a0       _fprintf                   100559a0 f i imgui.obj
 0001:000549d0       _sscanf                    100559d0 f i imgui.obj
 0001:00054a00       ??0ImFont@@QAE@XZ          10055a00 f   imgui_draw.obj
 0001:00054ab0       ??0ImFontAtlas@@QAE@XZ     10055ab0 f   imgui_draw.obj
 0001:00054b30       ??0ImFontConfig@@QAE@XZ    10055b30 f   imgui_draw.obj
 0001:00054bc0       ??1ImFont@@QAE@XZ          10055bc0 f   imgui_draw.obj
 0001:00054c40       ??1ImFontAtlas@@QAE@XZ     10055c40 f   imgui_draw.obj
 0001:00054e10       ?AddCircle@ImDrawList@@QAEXABUImVec2@@MIHM@Z 10055e10 f   imgui_draw.obj
 0001:00054ea0       ?AddCircleFilled@ImDrawList@@QAEXABUImVec2@@MIH@Z 10055ea0 f   imgui_draw.obj
 0001:00054f20       ?AddConvexPolyFilled@ImDrawList@@QAEXPBUImVec2@@HI_N@Z 10055f20 f   imgui_draw.obj
 0001:00055370       ?AddDrawCmd@ImDrawList@@QAEXXZ 10056370 f   imgui_draw.obj
 0001:000553e0       ?AddFont@ImFontAtlas@@QAEPAUImFont@@PBUImFontConfig@@@Z 100563e0 f   imgui_draw.obj
 0001:00055630       ?AddFontFromFileTTF@ImFontAtlas@@QAEPAUImFont@@PBDMPBUImFontConfig@@PBG@Z 10056630 f   imgui_draw.obj
 0001:00055790       ?AddFontFromMemoryCompressedBase85TTF@ImFontAtlas@@QAEPAUImFont@@PBDMPBUImFontConfig@@PBG@Z 10056790 f   imgui_draw.obj
 0001:000559b0       ?AddImage@ImDrawList@@QAEXPAXABUImVec2@@111I@Z 100569b0 f   imgui_draw.obj
 0001:00055ad0       ?AddLine@ImDrawList@@QAEXABUImVec2@@0IM@Z 10056ad0 f   imgui_draw.obj
 0001:00055b80       ?AddPolyline@ImDrawList@@QAEXPBUImVec2@@HI_NM1@Z 10056b80 f   imgui_draw.obj
 0001:000566b0       ?AddRect@ImDrawList@@QAEXABUImVec2@@0IMHM@Z 100576b0 f   imgui_draw.obj
 0001:00056760       ?AddRectFilled@ImDrawList@@QAEXABUImVec2@@0IMH@Z 10057760 f   imgui_draw.obj
 0001:000568c0       ?AddRectFilledMultiColor@ImDrawList@@QAEXABUImVec2@@0IIII@Z 100578c0 f   imgui_draw.obj
 0001:00056a80       ?AddText@ImDrawList@@QAEXPBUImFont@@MABUImVec2@@IPBD2MPBUImVec4@@@Z 10057a80 f   imgui_draw.obj
 0001:00056b90       ?AddTriangleFilled@ImDrawList@@QAEXABUImVec2@@00I@Z 10057b90 f   imgui_draw.obj
 0001:00056bf0       ?Build@ImFontAtlas@@QAE_NXZ 10057bf0 f   imgui_draw.obj
 0001:000577d0       ?BuildLookupTable@ImFont@@QAEXXZ 100587d0 f   imgui_draw.obj
 0001:00057a20       ?CalcTextSizeA@ImFont@@QBE?AUImVec2@@MMMPBD0PAPBD@Z 10058a20 f   imgui_draw.obj
 0001:00057c40       ?CalcWordWrapPositionA@ImFont@@QBEPBDMPBD0M@Z 10058c40 f   imgui_draw.obj
 0001:00057e00       ?ChannelsMerge@ImDrawList@@QAEXXZ 10058e00 f   imgui_draw.obj
 0001:00058030       ?ChannelsSplit@ImDrawList@@QAEXH@Z 10059030 f   imgui_draw.obj
 0001:000582d0       ?Clear@ImDrawList@@QAEXXZ  100592d0 f   imgui_draw.obj
 0001:000583e0       ?Clear@ImFont@@QAEXXZ      100593e0 f   imgui_draw.obj
 0001:00058490       ?ClearFreeMemory@ImDrawList@@QAEXXZ 10059490 f   imgui_draw.obj
 0001:00058650       ?FindGlyph@ImFont@@QBEPBUGlyph@1@G@Z 10059650 f   imgui_draw.obj
 0001:00058690       ?GetTexDataAsRGBA32@ImFontAtlas@@QAEXPAPAEPAH11@Z 10059690 f   imgui_draw.obj
 0001:000587f0       ?GrowIndex@ImFont@@QAEXH@Z 100597f0 f   imgui_draw.obj
 0001:00058920       ?PathArcTo@ImDrawList@@QAEXABUImVec2@@MMMH@Z 10059920 f   imgui_draw.obj
 0001:00058ad0       ?PathArcToFast@ImDrawList@@QAEXABUImVec2@@MHH@Z 10059ad0 f   imgui_draw.obj
 0001:00058db0       ?PathRect@ImDrawList@@QAEXABUImVec2@@0MH@Z 10059db0 f   imgui_draw.obj
 0001:00059000       ?PopClipRect@ImDrawList@@QAEXXZ 1005a000 f   imgui_draw.obj
 0001:00059010       ?PopTextureID@ImDrawList@@QAEXXZ 1005a010 f   imgui_draw.obj
 0001:00059020       ?PrimRectUV@ImDrawList@@QAEXABUImVec2@@000I@Z 1005a020 f   imgui_draw.obj
 0001:00059140       ?PrimReserve@ImDrawList@@QAEXHH@Z 1005a140 f   imgui_draw.obj
 0001:000591a0       ?PushClipRect@ImDrawList@@QAEXUImVec2@@0_N@Z 1005a1a0 f   imgui_draw.obj
 0001:000592d0       ?PushClipRectFullScreen@ImDrawList@@QAEXXZ 1005a2d0 f   imgui_draw.obj
 0001:000593a0       ?PushTextureID@ImDrawList@@QAEXABQAX@Z 1005a3a0 f   imgui_draw.obj
 0001:00059430       ?RenderCustomTexData@ImFontAtlas@@QAEXHPAX@Z 1005a430 f   imgui_draw.obj
 0001:00059c80       ?RenderText@ImFont@@QBEXPAUImDrawList@@MUImVec2@@IABUImVec4@@PBD3M_N@Z 1005ac80 f   imgui_draw.obj
 0001:0005a1e0       ?UpdateClipRect@ImDrawList@@QAEXXZ 1005b1e0 f   imgui_draw.obj
 0001:0005a2e0       ?UpdateTextureID@ImDrawList@@QAEXXZ 1005b2e0 f   imgui_draw.obj
 0001:0005a3a0       ?push_back@?$ImVector@UImDrawCmd@@@@QAEXABUImDrawCmd@@@Z 1005b3a0 f i imgui_draw.obj
 0001:0005a430       ?push_back@?$ImVector@UImVec2@@@@QAEXABUImVec2@@@Z 1005b430 f i imgui_draw.obj
 0001:0005a530       ?resize@?$ImVector@UGlyph@ImFont@@@@QAEXH@Z 1005b530 f i imgui_draw.obj
 0001:0005a5c0       ?resize@?$ImVector@UImDrawCmd@@@@QAEXH@Z 1005b5c0 f i imgui_draw.obj
 0001:0005a640       ?resize@?$ImVector@UImDrawVert@@@@QAEXH@Z 1005b640 f i imgui_draw.obj
 0001:0005a6d0       ?resize@?$ImVector@UImVec2@@@@QAEXH@Z 1005b6d0 f i imgui_draw.obj
 0001:00060490       __snprintf                 10061490 f i imgui_draw.obj
 0001:00061700       ?InitialiseInterfaces@@YAXXZ 10062700 f   Interfaces.obj
 0001:00061b40       ?Update@BackTrack@@QAEXH@Z 10062b40 f   LagComp.obj
 0001:00061c00       ?distance_point_to_line@@YAMVVector@@00@Z 10062c00 f i LagComp.obj
 0001:00061cf0       ?legitBackTrack@BackTrack@@QAEXPAVCUserCmd@CInput@@PAVC_BaseEntity@@@Z 10062cf0 f   LagComp.obj
 0001:00062340       ??$_Range_construct_or_tidy@PBH@?$vector@HV?$allocator@H@std@@@std@@AAEXPBH0Uforward_iterator_tag@1@@Z 10063340 f i LegitBot.obj
 0001:000623f0       ??$generate_canonical@N$0PPPPPPPP@V?$mersenne_twister_engine@I$0CA@$0CHA@$0BIN@$0BP@$0JJAILANP@$0L@$0PPPPPPPP@$06$0JNCMFGIA@$0P@$0OPMGAAAA@$0BC@$0GMAHIJGF@@std@@@std@@YANAAV?$mersenne_twister_engine@I$0CA@$0CHA@$0BIN@$0BP@$0JJAILANP@$0L@$0PPPPPPPP@$06$0JNCMFGIA@$0P@$0OPMGAAAA@$0BC@$0GMAHIJGF@@0@@Z 100633f0 f i LegitBot.obj
 0001:00062620       ??0Ray_t@@QAE@XZ           10063620 f i LegitBot.obj
 0001:00062680       ??0legitbot@@QAE@XZ        10063680 f   LegitBot.obj
 0001:00062730       ?OnCreateMove@legitbot@@QAEXPAVCUserCmd@CInput@@PAVC_BaseEntity@@AA_N@Z 10063730 f   LegitBot.obj
 0001:000628a0       ?RandomFloat@@YAMMM@Z      100638a0 f i LegitBot.obj
 0001:00062930       ?compute_angle@@YA?AVVector@@ABV1@0@Z 10063930 f i LegitBot.obj
 0001:00062a20       ?do_aimbot@legitbot@@AAEXPAVC_BaseEntity@@PAVCBaseCombatWeapon@@PAVCUserCmd@CInput@@@Z 10063a20 f   LegitBot.obj
 0001:000630d0       ?get_fov@@YAMABVVector@@0@Z 100640d0 f   LegitBot.obj
 0001:00063160       ?get_hitbox@legitbot@@AAE_NPAVC_BaseEntity@@0AAVVector@@@Z 10064160 f   LegitBot.obj
 0001:00063460       ?get_hitbox_pos@@YA_NPAVC_BaseEntity@@HAAVVector@@@Z 10064460 f   LegitBot.obj
 0001:00063600       ?get_randomized_angles@legitbot@@AAE?AVVector@@PAVC_BaseEntity@@@Z 10064600 f   LegitBot.obj
 0001:00063880       ?get_target@legitbot@@AAEHPAVC_BaseEntity@@PAVCBaseCombatWeapon@@PAVCUserCmd@CInput@@AAVVector@@@Z 10064880 f   LegitBot.obj
 0001:00063bc0       ?hit_chance@legitbot@@AAE_NPAVC_BaseEntity@@PAVCUserCmd@CInput@@PAVCBaseCombatWeapon@@0@Z 10064bc0 f   LegitBot.obj
 0001:000644b0       ?m_iShotsFired@C_BaseEntity@@QAEHXZ 100654b0 f i LegitBot.obj
 0001:00064550       ?random_number_range@@YAMMM@Z 10065550 f   LegitBot.obj
 0001:00064610       ?sanitize_angles@@YA_NAAVVector@@@Z 10065610 f i LegitBot.obj
 0001:00064760       ?triggerbot@legitbot@@AAEXPAVCUserCmd@CInput@@PAVC_BaseEntity@@PAVCBaseCombatWeapon@@@Z 10065760 f   LegitBot.obj
 0001:00064b90       ?AngleVectors2@@YAXABVVector@@AAV1@@Z 10065b90 f   MathFunctions.obj
 0001:00064c40       ?AngleVectors@@YAXABVVector@@PAV1@11@Z 10065c40 f   MathFunctions.obj
 0001:00064dd0       ?AngleVectors@@YAXABVVector@@PAV1@@Z 10065dd0 f   MathFunctions.obj
 0001:00064e70       ?AverageDifference@@YAXABVVector@@0AAM@Z 10065e70 f   MathFunctions.obj
 0001:00064ec0       ?CalcAngle@@YA?AVVector@@AAV1@0@Z 10065ec0 f   MathFunctions.obj
 0001:00064fa0       ?CalcAngle@@YAXVVector@@0AAV1@@Z 10065fa0 f   MathFunctions.obj
 0001:00065080       ?Normalize@@YAXAAVVector@@0@Z 10066080 f   MathFunctions.obj
 0001:00065140       ?VectorAngles@@YAXVVector@@AAV1@@Z 10066140 f   MathFunctions.obj
 0001:000652a0       ?VectorTransform@@YAXVVector@@QAY03MAAV1@@Z 100662a0 f   MathFunctions.obj
 0001:00065360       ?GetNetvars@Offsetz@@QAEXXZ 10066360 f   memesets.obj
 0001:00066b70       ?AutoStrafe@misc@@SAXPAVCUserCmd@CInput@@PAVC_BaseEntity@@VVector@@@Z 10067b70 f   Misc.obj
 0001:000670a0       ?OnCreateMove@misc@@QAEXPAVCUserCmd@CInput@@PAVC_BaseEntity@@AA_N@Z 100680a0 f   Misc.obj
 0001:00068e70       ?erase@?$basic_string@DU?$char_traits@D@std@@V?$allocator@D@2@@std@@QAEAAV12@II@Z 10069e70 f i Misc.obj
 0001:00068ec0       ?find@?$basic_string@DU?$char_traits@D@std@@V?$allocator@D@2@@std@@QBEIQBDI@Z 10069ec0 f i Misc.obj
 0001:00068fd0       ?insert@?$basic_string@DU?$char_traits@D@std@@V?$allocator@D@2@@std@@QAEAAV12@IID@Z 10069fd0 f i Misc.obj
 0001:00069050       ?logsrun2@misc@@QAEXXZ     1006a050 f   Misc.obj
 0001:00069260       ?logsrun@misc@@QAEXXZ      1006a260 f   Misc.obj
 0001:00069470       ?replace@?$basic_string@DU?$char_traits@D@std@@V?$allocator@D@2@@std@@QAEAAV12@IIQBDI@Z 1006a470 f i Misc.obj
 0001:000695d0       ?setclantag@@YAXPBD@Z      1006a5d0 f i Misc.obj
 0001:000697f0       ?strafe_line_opt@AutoStrafer@@QAEXAANAAH1QAN2NNN22@Z 1006a7f0 f i Misc.obj
 0001:00069a40       ?strafe_side@AutoStrafer@@AAEXAANAAH1QANNNNH@Z 1006aa40 f i Misc.obj
 0001:00069d90       ?GetOffset@CNetVarManager@@QAEHPBD0@Z 1006ad90 f   NetVarManager.obj
 0001:00069db0       ?Get_Prop@CNetVarManager@@AAEHPAURecvTable@@PBDPAPAURecvProp@@@Z 1006adb0 f   NetVarManager.obj
 0001:00069e50       ?Get_Prop@CNetVarManager@@AAEHPBD0PAPAURecvProp@@@Z 1006ae50 f   NetVarManager.obj
 0001:00069eb0       ?Initialize@CNetVarManager@@QAEXXZ 1006aeb0 f   NetVarManager.obj
 0001:00069ef0       ??0ragebot@@QAE@XZ         1006aef0 f   RageBot.obj
 0001:00069f10       ?CanAttack@@YA_NXZ         1006af10 f i RageBot.obj
 0001:00069ff0       ?DoAimbot@ragebot@@AAEXPAVCUserCmd@CInput@@AA_N@Z 1006aff0 f   RageBot.obj
 0001:0006a750       ?DoAntiAim@ragebot@@AAEXPAVCUserCmd@CInput@@AA_N@Z 1006b750 f   RageBot.obj
 0001:0006b7d0       ?EdgeAntiAim@@YA_NPAVC_BaseEntity@@PAVCUserCmd@CInput@@MM@Z 1006c7d0 f   RageBot.obj
 0001:0006c0a0       ?FovToPlayer@ragebot@@AAEMVVector@@0PAVC_BaseEntity@@H@Z 1006d0a0 f   RageBot.obj
 0001:0006c190       ?HitScan@ragebot@@AAEHPAVC_BaseEntity@@@Z 1006d190 f   RageBot.obj
 0001:0006c860       ?OnCreateMove@ragebot@@QAEXPAVCUserCmd@CInput@@AA_N@Z 1006d860 f   RageBot.obj
 0001:0006caa0       ?TargetMeetsRequirements@ragebot@@AAE_NPAVC_BaseEntity@@@Z 1006daa0 f   RageBot.obj
 0001:0006cbb0       ?hit_chance@ragebot@@QAE_NPAVC_BaseEntity@@PAVCUserCmd@CInput@@PAVCBaseCombatWeapon@@0@Z 1006dbb0 f   RageBot.obj
 0001:0006d480       ??1Renderer@@QAE@XZ        1006e480 f   Renderer.obj
 0001:0006d4a0       ?Initialize@Renderer@@QAE_NPAUHWND__@@PAUIDirect3DDevice9@@@Z 1006e4a0 f   Renderer.obj
 0001:0006d4f0       ?IsActive@Renderer@@QBE_NXZ 1006e4f0 f   Renderer.obj
 0001:0006d510       ?IsReady@Renderer@@QBE_NXZ 1006e510 f   Renderer.obj
 0001:0006d520       ?hkWndProc@@YGJPAUHWND__@@IIJ@Z 1006e520 f   Renderer.obj
 0001:0006d6b0       ?Clear@Render@@QAEXHHHHVColor@@@Z 1006e6b0 f   Render.obj
 0001:0006d6f0       ?DrawOutlinedRect@Render@@QAEXHHHHVColor@@@Z 1006e6f0 f   Render.obj
 0001:0006d6f0       ?Outline@Render@@QAEXHHHHVColor@@@Z 1006e6f0 f   Render.obj
 0001:0006d730       ?DrawString2@Render@@QAAXKHHVColor@@KPBDZZ 1006e730 f   Render.obj
 0001:0006d8a0       ?GetTextSize@Render@@QAE?AUtagRECT@@KPBD@Z 1006e8a0 f   Render.obj
 0001:0006d9a0       ?GetViewport@Render@@QAE?AUtagRECT@@XZ 1006e9a0 f   Render.obj
 0001:0006d9f0       ?GradientH@Render@@QAEXHHHHVColor@@0@Z 1006e9f0 f   Render.obj
 0001:0006dab0       ?Line@Render@@QAEXHHHHVColor@@@Z 1006eab0 f   Render.obj
 0001:0006dae0       ?OutlineCircle@Render@@QAEXHHHHVColor@@@Z 1006eae0 f   Render.obj
 0001:0006db70       ?SetupFonts@Render@@QAEXXZ 1006eb70 f   Render.obj
 0001:0006dcf0       ?Text@Render@@QAAXHHVColor@@KPBDZZ 1006ecf0 f   Render.obj
 0001:0006ddc0       ?Text@Render@@QAEXHHVColor@@KPB_W@Z 1006edc0 f   Render.obj
 0001:0006de30       ?Textf@Render@@QAAXHHVColor@@KPBDZZ 1006ee30 f   Render.obj
 0001:0006dee0       ?WorldToScreen@Render@@QAE_NAAVVector@@0@Z 1006eee0 f   Render.obj
 0001:0006e040       ??$sprintf_s@$0PK@@@YAHAAY0PK@DPBDZZ 1006f040 f i MiscFunctions.obj
 0001:0006e070       ?GetHitboxPosition@@YA?AVVector@@PAVC_BaseEntity@@H@Z 1006f070 f   MiscFunctions.obj
 0001:0006e200       ?IsGrenade@MiscFunctions@@YA_NPAX@Z 1006f200 f   MiscFunctions.obj
 0001:0006e250       ?IsHeavy@MiscFunctions@@YA_NPAX@Z 1006f250 f   MiscFunctions.obj
 0001:0006e2a0       ?IsKnife@MiscFunctions@@YA_NPAX@Z 1006f2a0 f   MiscFunctions.obj
 0001:0006e2d0       ?IsPistol@MiscFunctions@@YA_NPAX@Z 1006f2d0 f   MiscFunctions.obj
 0001:0006e330       ?IsRevolver@MiscFunctions@@YA_NPAX@Z 1006f330 f   MiscFunctions.obj
 0001:0006e350       ?IsRifle@MiscFunctions@@YA_NPAX@Z 1006f350 f   MiscFunctions.obj
 0001:0006e3a0       ?IsSmg@MiscFunctions@@YA_NPAX@Z 1006f3a0 f   MiscFunctions.obj
 0001:0006e3f0       ?IsSniper@MiscFunctions@@YA_NPAX@Z 1006f3f0 f   MiscFunctions.obj
 0001:0006e430       ?IsVisible@MiscFunctions@@YA_NPAVC_BaseEntity@@0H@Z 1006f430 f   MiscFunctions.obj
 0001:0006e780       ?NormaliseViewAngle@MiscFunctions@@YAXAAVVector@@@Z 1006f780 f   MiscFunctions.obj
 0001:0006e870       ?SayInChat@@YAXPBD@Z       1006f870 f   MiscFunctions.obj
 0001:0006e8d0       ?TraceToExit@@YA_NAAVVector@@AAVCGameTrace@@V1@2PAV2@@Z 1006f8d0 f   MiscFunctions.obj
 0001:0006ea10       ?UTIL_ClipTraceToPlayers@@YAXPAVC_BaseEntity@@VVector@@1IPAVITraceFilter@@PAVCGameTrace@@@Z 1006fa10 f   MiscFunctions.obj
 0001:0006ec70       ?UTIL_TraceLine@@YAXABVVector@@0IPAVC_BaseEntity@@HPAVCGameTrace@@@Z 1006fc70 f   MiscFunctions.obj
 0001:0006ed5f       ??_E?$basic_ostream@DU?$char_traits@D@std@@@std@@$4PPPPPPPM@A@AEPAXI@Z 1006fd5f f i Utilities.obj
 0001:0006ed67       ??_E?$basic_ofstream@DU?$char_traits@D@std@@@std@@$4PPPPPPPM@A@AEPAXI@Z 1006fd67 f i Utilities.obj
 0001:0006ed70       ??_Gios_base@std@@UAEPAXI@Z 1006fd70 f i Utilities.obj
 0001:0006ed70       ??_Eios_base@std@@UAEPAXI@Z 1006fd70 f i Utilities.obj
 0001:0006edd0       ??_E?$basic_ios@DU?$char_traits@D@std@@@std@@UAEPAXI@Z 1006fdd0 f i Utilities.obj
 0001:0006edd0       ??_G?$basic_ios@DU?$char_traits@D@std@@@std@@UAEPAXI@Z 1006fdd0 f i Utilities.obj
 0001:0006ee30       ?pbackfail@?$basic_streambuf@DU?$char_traits@D@std@@@std@@MAEHH@Z 1006fe30 f i Utilities.obj
 0001:0006ee30       ?overflow@?$basic_streambuf@DU?$char_traits@D@std@@@std@@MAEHH@Z 1006fe30 f i Utilities.obj
 0001:0006ee40       ?showmanyc@?$basic_streambuf@DU?$char_traits@D@std@@@std@@MAE_JXZ 1006fe40 f i Utilities.obj
 0001:0006ee50       ?underflow@?$basic_streambuf@DU?$char_traits@D@std@@@std@@MAEHXZ 1006fe50 f i Utilities.obj
 0001:0006ee60       ?uflow@?$basic_streambuf@DU?$char_traits@D@std@@@std@@MAEHXZ 1006fe60 f i Utilities.obj
 0001:0006ee90       ?xsgetn@?$basic_streambuf@DU?$char_traits@D@std@@@std@@MAE_JPAD_J@Z 1006fe90 f i Utilities.obj
 0001:0006efb0       ?xsputn@?$basic_streambuf@DU?$char_traits@D@std@@@std@@MAE_JPBD_J@Z 1006ffb0 f i Utilities.obj
 0001:0006f0d0       ?seekoff@?$basic_streambuf@DU?$char_traits@D@std@@@std@@MAE?AV?$fpos@U_Mbstatet@@@2@_JHH@Z 100700d0 f i Utilities.obj
 0001:0006f110       ?seekpos@?$basic_streambuf@DU?$char_traits@D@std@@@std@@MAE?AV?$fpos@U_Mbstatet@@@2@V32@H@Z 10070110 f i Utilities.obj
 0001:0006f150       ?setbuf@?$basic_streambuf@DU?$char_traits@D@std@@@std@@MAEPAV12@PAD_J@Z 10070150 f i Utilities.obj
 0001:0006f160       ?imbue@?$basic_streambuf@DU?$char_traits@D@std@@@std@@MAEXABVlocale@2@@Z 10070160 f i Utilities.obj
 0001:0006f170       ??_G?$basic_streambuf@DU?$char_traits@D@std@@@std@@UAEPAXI@Z 10070170 f i Utilities.obj
 0001:0006f170       ??_E?$basic_streambuf@DU?$char_traits@D@std@@@std@@UAEPAXI@Z 10070170 f i Utilities.obj
 0001:0006f200       ?_Lock@?$basic_filebuf@DU?$char_traits@D@std@@@std@@UAEXXZ 10070200 f i Utilities.obj
 0001:0006f210       ?_Unlock@?$basic_filebuf@DU?$char_traits@D@std@@@std@@UAEXXZ 10070210 f i Utilities.obj
 0001:0006f220       ?overflow@?$basic_filebuf@DU?$char_traits@D@std@@@std@@MAEHH@Z 10070220 f i Utilities.obj
 0001:0006f430       ?pbackfail@?$basic_filebuf@DU?$char_traits@D@std@@@std@@MAEHH@Z 10070430 f i Utilities.obj
 0001:0006f4e0       ?underflow@?$basic_filebuf@DU?$char_traits@D@std@@@std@@MAEHXZ 100704e0 f i Utilities.obj
 0001:0006f520       ?uflow@?$basic_filebuf@DU?$char_traits@D@std@@@std@@MAEHXZ 10070520 f i Utilities.obj
 0001:0006f7b0       ?seekoff@?$basic_filebuf@DU?$char_traits@D@std@@@std@@MAE?AV?$fpos@U_Mbstatet@@@2@_JHH@Z 100707b0 f i Utilities.obj
 0001:0006f890       ?seekpos@?$basic_filebuf@DU?$char_traits@D@std@@@std@@MAE?AV?$fpos@U_Mbstatet@@@2@V32@H@Z 10070890 f i Utilities.obj
 0001:0006f980       ?setbuf@?$basic_filebuf@DU?$char_traits@D@std@@@std@@MAEPAV?$basic_streambuf@DU?$char_traits@D@std@@@2@PAD_J@Z 10070980 f i Utilities.obj
 0001:0006f9d0       ?sync@?$basic_filebuf@DU?$char_traits@D@std@@@std@@MAEHXZ 100709d0 f i Utilities.obj
 0001:0006fa00       ?imbue@?$basic_filebuf@DU?$char_traits@D@std@@@std@@MAEXABVlocale@2@@Z 10070a00 f i Utilities.obj
 0001:0006fa40       ??_G?$basic_filebuf@DU?$char_traits@D@std@@@std@@UAEPAXI@Z 10070a40 f i Utilities.obj
 0001:0006fa40       ??_E?$basic_filebuf@DU?$char_traits@D@std@@@std@@UAEPAXI@Z 10070a40 f i Utilities.obj
 0001:0006fa70       ??$_Immortalize_impl@V_Iostream_error_category@std@@@std@@YGHPAX0PAPAX@Z 10070a70 f i Utilities.obj
 0001:0006fa90       ??$use_facet@V?$codecvt@DDU_Mbstatet@@@std@@@std@@YAABV?$codecvt@DDU_Mbstatet@@@0@ABVlocale@0@@Z 10070a90 f i Utilities.obj
 0001:0006fbf0       ??$use_facet@V?$ctype@D@std@@@std@@YAABV?$ctype@D@0@ABVlocale@0@@Z 10070bf0 f i Utilities.obj
 0001:0006fd70       ??0?$basic_ostream@DU?$char_traits@D@std@@@std@@QAE@PAV?$basic_streambuf@DU?$char_traits@D@std@@@1@_N@Z 10070d70 f i Utilities.obj
 0001:0006ff10       ??0_Locinfo@std@@QAE@PBD@Z 10070f10 f i Utilities.obj
 0001:0006ffd0       ??0_System_error@std@@IAE@Verror_code@1@ABV?$basic_string@DU?$char_traits@D@std@@V?$allocator@D@2@@1@@Z 10070fd0 f i Utilities.obj
 0001:00070140       ??0_System_error@std@@QAE@ABV01@@Z 10071140 f i Utilities.obj
 0001:00070190       ??0failure@ios_base@std@@QAE@ABV012@@Z 10071190 f i Utilities.obj
 0001:000701e0       ??0failure@ios_base@std@@QAE@PBDABVerror_code@2@@Z 100711e0 f i Utilities.obj
 0001:000702c0       ??0system_error@std@@QAE@ABV01@@Z 100712c0 f i Utilities.obj
 0001:00070310       ??0vfunc_hook@@QAE@XZ      10071310 f   Utilities.obj
 0001:00070330       ??1?$_Yarn@D@std@@QAE@XZ   10071330 f i Utilities.obj
 0001:00070330       ??1?$_Yarn@_W@std@@QAE@XZ  10071330 f i Utilities.obj
 0001:00070350       ??1?$basic_filebuf@DU?$char_traits@D@std@@@std@@UAE@XZ 10071350 f i Utilities.obj
 0001:00070490       ??1?$basic_ios@DU?$char_traits@D@std@@@std@@UAE@XZ 10071490 f i Utilities.obj
 0001:000704e0       ??1?$basic_ostream@DU?$char_traits@D@std@@@std@@UAE@XZ 100714e0 f i Utilities.obj
 0001:00070500       ??1_Locinfo@std@@QAE@XZ    10071500 f i Utilities.obj
 0001:000705d0       ??1locale@std@@QAE@XZ      100715d0 f i Utilities.obj
 0001:00070620       ??1vfunc_hook@@QAE@XZ      10071620 f   Utilities.obj
 0001:00070740       ??_D?$basic_ofstream@DU?$char_traits@D@std@@@std@@QAEXXZ 10071740 f i Utilities.obj
 0001:000707d0       ??_E?$basic_ofstream@DU?$char_traits@D@std@@@std@@UAEPAXI@Z 100717d0 f i Utilities.obj
 0001:000707d0       ??_G?$basic_ofstream@DU?$char_traits@D@std@@@std@@UAEPAXI@Z 100717d0 f i Utilities.obj
 0001:00070800       ??_E?$basic_ostream@DU?$char_traits@D@std@@@std@@UAEPAXI@Z 10071800 f i Utilities.obj
 0001:00070800       ??_G?$basic_ostream@DU?$char_traits@D@std@@@std@@UAEPAXI@Z 10071800 f i Utilities.obj
 0001:00070880       ??_G?$codecvt@DDU_Mbstatet@@@std@@MAEPAXI@Z 10071880 f i Utilities.obj
 0001:00070880       ??_E?$codecvt@DDU_Mbstatet@@@std@@MAEPAXI@Z 10071880 f i Utilities.obj
 0001:000708b0       ??_E?$ctype@D@std@@MAEPAXI@Z 100718b0 f i Utilities.obj
 0001:000708b0       ??_G?$ctype@D@std@@MAEPAXI@Z 100718b0 f i Utilities.obj
 0001:00070910       ??_E_Facet_base@std@@UAEPAXI@Z 10071910 f i Utilities.obj
 0001:00070910       ??_G_Facet_base@std@@UAEPAXI@Z 10071910 f i Utilities.obj
 0001:00070940       ??_G_Iostream_error_category@std@@UAEPAXI@Z 10071940 f i Utilities.obj
 0001:00070940       ??_E_Iostream_error_category@std@@UAEPAXI@Z 10071940 f i Utilities.obj
 0001:00070940       ??_Eerror_category@std@@UAEPAXI@Z 10071940 f i Utilities.obj
 0001:00070940       ??_Gerror_category@std@@UAEPAXI@Z 10071940 f i Utilities.obj
 0001:00070970       ??_Gsystem_error@std@@UAEPAXI@Z 10071970 f i Utilities.obj
 0001:00070970       ??_Gfailure@ios_base@std@@UAEPAXI@Z 10071970 f i Utilities.obj
 0001:00070970       ??_G_System_error@std@@UAEPAXI@Z 10071970 f i Utilities.obj
 0001:00070970       ??_Esystem_error@std@@UAEPAXI@Z 10071970 f i Utilities.obj
 0001:00070970       ??_E_System_error@std@@UAEPAXI@Z 10071970 f i Utilities.obj
 0001:00070970       ??_Efailure@ios_base@std@@UAEPAXI@Z 10071970 f i Utilities.obj
 0001:000709a0       ?CloseConsole@U@@YAXXZ     100719a0 f   Utilities.obj
 0001:000709b0       ?FindPattern@U@@YAKV?$basic_string@DU?$char_traits@D@std@@V?$allocator@D@2@@std@@PAEPAD@Z 100719b0 f   Utilities.obj
 0001:00070ad0       ?SetConsoleColor@U@@YAXG@Z 10071ad0 f   Utilities.obj
 0001:00070af0       ?WaitOnModuleHandle@U@@YAKV?$basic_string@DU?$char_traits@D@std@@V?$allocator@D@2@@std@@@Z 10071af0 f   Utilities.obj
 0001:00070b60       ?_Decref@facet@locale@std@@UAEPAV_Facet_base@3@XZ 10071b60 f i Utilities.obj
 0001:00070b80       ?_Endwrite@?$basic_filebuf@DU?$char_traits@D@std@@@std@@IAE_NXZ 10071b80 f i Utilities.obj
 0001:00070ce0       ?_Incref@facet@locale@std@@UAEXXZ 10071ce0 f i Utilities.obj
 0001:00070cf0       ?_Init@?$basic_filebuf@DU?$char_traits@D@std@@@std@@IAEXPAU_iobuf@@W4_Initfl@12@@Z 10071cf0 f i Utilities.obj
 0001:00070dd0       ?_Init@?$basic_streambuf@DU?$char_traits@D@std@@@std@@IAEXXZ 10071dd0 f i Utilities.obj
 0001:00070e30       ?_Makestr@_System_error@std@@CA?AV?$basic_string@DU?$char_traits@D@std@@V?$allocator@D@2@@2@Verror_code@2@V32@@Z 10071e30 f i Utilities.obj
 0001:00070f90       ?_Reset_back@?$basic_filebuf@DU?$char_traits@D@std@@@std@@AAEXXZ 10071f90 f i Utilities.obj
 0001:00070fc0       ?append@?$basic_string@DU?$char_traits@D@std@@V?$allocator@D@2@@std@@QAEAAV12@ID@Z 10071fc0 f i Utilities.obj
 0001:00071020       ?default_error_condition@error_category@std@@UBE?AVerror_condition@2@H@Z 10072020 f i Utilities.obj
 0001:00071040       ?do_always_noconv@?$codecvt@DDU_Mbstatet@@@std@@MBE_NXZ 10072040 f i Utilities.obj
 0001:00071040       ___acrt_uninitialize_command_line 10072040 f i libucrt:argv_data.obj
 0001:00071050       ?do_encoding@codecvt_base@std@@MBEHXZ 10072050 f i Utilities.obj
 0001:00071050       ?do_max_length@codecvt_base@std@@MBEHXZ 10072050 f i Utilities.obj
 0001:00071060       ?do_out@?$codecvt@DDU_Mbstatet@@@std@@MBEHAAU_Mbstatet@@PBD1AAPBDPAD3AAPAD@Z 10072060 f i Utilities.obj
 0001:00071060       ?do_in@?$codecvt@DDU_Mbstatet@@@std@@MBEHAAU_Mbstatet@@PBD1AAPBDPAD3AAPAD@Z 10072060 f i Utilities.obj
 0001:00071080       ?do_length@?$codecvt@DDU_Mbstatet@@@std@@MBEHAAU_Mbstatet@@PBD1I@Z 10072080 f i Utilities.obj
 0001:000710a0       ?do_narrow@?$ctype@D@std@@MBEDDD@Z 100720a0 f i Utilities.obj
 0001:000710b0       ?do_narrow@?$ctype@D@std@@MBEPBDPBD0DPAD@Z 100720b0 f i Utilities.obj
 0001:000710d0       ?do_tolower@?$ctype@D@std@@MBEDD@Z 100720d0 f i Utilities.obj
 0001:000710f0       ?do_tolower@?$ctype@D@std@@MBEPBDPADPBD@Z 100720f0 f i Utilities.obj
 0001:00071140       ?do_toupper@?$ctype@D@std@@MBEDD@Z 10072140 f i Utilities.obj
 0001:00071160       ?do_toupper@?$ctype@D@std@@MBEPBDPADPBD@Z 10072160 f i Utilities.obj
 0001:000711b0       ?do_unshift@?$codecvt@DDU_Mbstatet@@@std@@MBEHAAU_Mbstatet@@PAD1AAPAD@Z 100721b0 f i Utilities.obj
 0001:000711d0       ?do_widen@?$ctype@D@std@@MBEDD@Z 100721d0 f i Utilities.obj
 0001:000711e0       ?do_widen@?$ctype@D@std@@MBEPBDPBD0PAD@Z 100721e0 f i Utilities.obj
 0001:00071200       ?equivalent@error_category@std@@UBE_NABVerror_code@2@H@Z 10072200 f i Utilities.obj
 0001:00071230       ?equivalent@error_category@std@@UBE_NHABVerror_condition@2@@Z 10072230 f i Utilities.obj
 0001:00071270       ?make_error_code@std@@YA?AVerror_code@1@W4io_errc@1@@Z 10072270 f i Utilities.obj
 0001:000712b0       ?message@_Iostream_error_category@std@@UBE?AV?$basic_string@DU?$char_traits@D@std@@V?$allocator@D@2@@2@H@Z 100722b0 f i Utilities.obj
 0001:00071330       ?name@_Iostream_error_category@std@@UBEPBDXZ 10072330 f i Utilities.obj
 0001:00071340       ?pattern_scan@U@@YAPAEPAXPBD@Z 10072340 f   Utilities.obj
 0001:00071400       ?setup@vfunc_hook@@QAE_NPAX@Z 10072400 f   Utilities.obj
 0001:00071570       ?widen@?$basic_ios@DU?$char_traits@D@std@@@std@@QBEDD@Z 10072570 f i Utilities.obj
 0001:00071607       _K32GetModuleInformation@16 10072607 f   kernel32:KERNEL32.dll
 0001:0007160d       @__security_check_cookie@4 1007260d f   LIBCMT:_secchk_.obj
 0001:0007161e       ??2@YAPAXI@Z               1007261e f   LIBCMT:new_scalar.obj
 0001:0007164e       ??3@YAXPAXI@Z              1007264e f   LIBCMT:delete_scalar_size.obj
 0001:0007165c       ??_Etype_info@@UAEPAXI@Z   1007265c f i LIBCMT:std_type_info_static.obj
 0001:0007165c       ??_Gtype_info@@UAEPAXI@Z   1007265c f i LIBCMT:std_type_info_static.obj
 0001:0007167f       ??$__crt_fast_encode_pointer@PAX@@YAPAXQAX@Z 1007267f f i libvcruntime:winapi_downlevel.obj
 0001:0007167f       ??$__crt_fast_encode_pointer@PAP6AXXZ@@YAPAP6AXXZQAP6AXXZ@Z 1007267f f i LIBCMT:utility.obj
 0001:000716e0       ___scrt_acquire_startup_lock 100726e0 f   LIBCMT:utility.obj
 0001:00071715       ___scrt_dllmain_after_initialize_c 10072715 f   LIBCMT:utility.obj
 0001:00071740       ___scrt_dllmain_before_initialize_c 10072740 f   LIBCMT:utility.obj
 0001:0007174e       ___scrt_dllmain_crt_thread_attach 1007274e f   LIBCMT:utility.obj
 0001:0007176d       ___scrt_dllmain_crt_thread_detach 1007276d f   LIBCMT:utility.obj
 0001:0007177a       ___scrt_dllmain_exception_filter 1007277a f   LIBCMT:utility.obj
 0001:000717ad       ___scrt_dllmain_uninitialize_c 100727ad f   LIBCMT:utility.obj
 0001:000717d0       ___scrt_dllmain_uninitialize_critical 100727d0 f   LIBCMT:utility.obj
 0001:000717dd       ___scrt_initialize_crt     100727dd f   LIBCMT:utility.obj
 0001:00071816       ___scrt_initialize_onexit_tables 10072816 f   LIBCMT:utility.obj
 0001:000718c0       ___scrt_is_nonwritable_in_current_image 100728c0 f   LIBCMT:utility.obj
 0001:0007194a       ___scrt_release_startup_lock 1007294a f   LIBCMT:utility.obj
 0001:00071967       ___scrt_uninitialize_crt   10072967 f   LIBCMT:utility.obj
 0001:0007198f       __onexit                   1007298f f   LIBCMT:utility.obj
 0001:000719ca       _atexit                    100729ca f   LIBCMT:utility.obj
 0001:00071af2       __Init_thread_abort        10072af2 f   LIBCMT:thread_safe_statics.obj
 0001:00071b16       __Init_thread_footer       10072b16 f   LIBCMT:thread_safe_statics.obj
 0001:00071b60       __Init_thread_header       10072b60 f   LIBCMT:thread_safe_statics.obj
 0001:00071bb2       __Init_thread_notify       10072bb2 f   LIBCMT:thread_safe_statics.obj
 0001:00071bf3       __Init_thread_wait         10072bf3 f   LIBCMT:thread_safe_statics.obj
 0001:00071c60       __alloca_probe             10072c60 f   LIBCMT:chkstk.obj
 0001:00071c60       __chkstk                   10072c60 f   LIBCMT:chkstk.obj
 0001:00071ca0       __ftoui3                   10072ca0 f   LIBCMT:_ftol3_.obj
 0001:00071caf       __ftoul3                   10072caf f   LIBCMT:_ftol3_.obj
 0001:00071cbe       __ftol3                    10072cbe f   LIBCMT:_ftol3_.obj
 0001:00071ccb       __ftol3_NaN                10072ccb f   LIBCMT:_ftol3_.obj
 0001:00071ce3       __ftol3_work               10072ce3 f   LIBCMT:_ftol3_.obj
 0001:00071d69       __ftol3_common             10072d69 f   LIBCMT:_ftol3_.obj
 0001:00071e2b       __ftol3_arg_error          10072e2b f   LIBCMT:_ftol3_.obj
 0001:00071e3d       __ftol3_except             10072e3d f   LIBCMT:_ftol3_.obj
 0001:00071e81       __dtoui3                   10072e81 f   LIBCMT:_ftol3_.obj
 0001:00071e90       __dtoul3                   10072e90 f   LIBCMT:_ftol3_.obj
 0001:00071e9f       __dtol3                    10072e9f f   LIBCMT:_ftol3_.obj
 0001:00071eac       __dtol3_NaN                10072eac f   LIBCMT:_ftol3_.obj
 0001:00071ec9       __dtol3_work               10072ec9 f   LIBCMT:_ftol3_.obj
 0001:00071fb0       __ultod3                   10072fb0 f   LIBCMT:_ftol3_.obj
 0001:00071ff0       __ltod3                    10072ff0 f   LIBCMT:_ftol3_.obj
 0001:00072017       ??_M@YGXPAXIIP6EX0@Z@Z     10073017 f   LIBCMT:ehvecdtr.obj
 0001:00072091       ?__ArrayUnwind@@YGXPAXIIP6EX0@Z@Z 10073091 f   LIBCMT:ehvecdtr.obj
 0001:000720ff       ??_U@YAPAXI@Z              100730ff f   LIBCMT:new_array.obj
 0001:00072108       ??_V@YAXPAX@Z              10073108 f   LIBCMT:delete_array.obj
 0001:0007210d       ??_L@YGXPAXIIP6EX0@Z1@Z    1007310d f   LIBCMT:ehvecctr.obj
 0001:00072180       ___vdecl_cos2              10073180 f   LIBCMT:_svml_dcos2_dispatch_.obj
 0001:00072190       ___vdecl_sin2              10073190 f   LIBCMT:_svml_dsin2_dispatch_.obj
 0001:00072195       ___libm_sse2_sincos_       10073195 f   LIBCMT:_svml_dsin2_dispatch_.obj
 0001:000721f0       __alloca_probe_16          100731f0 f   LIBCMT:alloca16.obj
 0001:00072206       __alloca_probe_8           10073206     LIBCMT:alloca16.obj
 0001:00072220       __ftol2_sse                10073220 f   LIBCMT:_ftol2_.obj
 0001:00072229       __ftol2_pentium4           10073229 f   LIBCMT:_ftol2_.obj
 0001:0007223c       __ftol2_sse_excpt          1007323c f   LIBCMT:_ftol2_.obj
 0001:00072260       __ftol2                    10073260 f   LIBCMT:_ftol2_.obj
 0001:000722d5       ___raise_securityfailure   100732d5 f   LIBCMT:gs_report.obj
 0001:000722fd       ___report_gsfailure        100732fd f   LIBCMT:gs_report.obj
 0001:000723f8       ___report_rangecheckfailure 100733f8 f   LIBCMT:gs_report.obj
 0001:00072404       ___report_securityfailure  10073404 f   LIBCMT:gs_report.obj
 0001:000727e1       __DllMainCRTStartup@12     100737e1 f   LIBCMT:dll_dllmain.obj
 0001:00072804       ??0bad_alloc@std@@QAE@ABV01@@Z 10073804 f i LIBCMT:throw_bad_alloc.obj
 0001:0007281f       ??0bad_alloc@std@@QAE@XZ   1007381f f i LIBCMT:throw_bad_alloc.obj
 0001:00072837       ??0bad_array_new_length@std@@QAE@ABV01@@Z 10073837 f i LIBCMT:throw_bad_alloc.obj
 0001:00072852       ??0bad_array_new_length@std@@QAE@XZ 10073852 f i LIBCMT:throw_bad_alloc.obj
 0001:0007286a       ??_Ginvalid_argument@std@@UAEPAXI@Z 1007386a f i libcpmt:xthrow.obj
 0001:0007286a       ??_Ebad_alloc@std@@UAEPAXI@Z 1007386a f i LIBCMT:throw_bad_alloc.obj
 0001:0007286a       ??_Eout_of_range@std@@UAEPAXI@Z 1007386a f i libcpmt:xthrow.obj
 0001:0007286a       ??_Gout_of_range@std@@UAEPAXI@Z 1007386a f i libcpmt:xthrow.obj
 0001:0007286a       ??_Glogic_error@std@@UAEPAXI@Z 1007386a f i libcpmt:xthrow.obj
 0001:0007286a       ??_Elength_error@std@@UAEPAXI@Z 1007386a f i libcpmt:xthrow.obj
 0001:0007286a       ??_Gbad_array_new_length@std@@UAEPAXI@Z 1007386a f i LIBCMT:throw_bad_alloc.obj
 0001:0007286a       ??_Gbad_alloc@std@@UAEPAXI@Z 1007386a f i LIBCMT:throw_bad_alloc.obj
 0001:0007286a       ??_Elogic_error@std@@UAEPAXI@Z 1007386a f i libcpmt:xthrow.obj
 0001:0007286a       ??_Ebad_array_new_length@std@@UAEPAXI@Z 1007386a f i LIBCMT:throw_bad_alloc.obj
 0001:0007286a       ??_Glength_error@std@@UAEPAXI@Z 1007386a f i libcpmt:xthrow.obj
 0001:0007286a       ??_Ebad_exception@std@@UAEPAXI@Z 1007386a f i libvcruntime:frame.obj
 0001:0007286a       ??_Einvalid_argument@std@@UAEPAXI@Z 1007386a f i libcpmt:xthrow.obj
 0001:0007286a       ??_Gbad_exception@std@@UAEPAXI@Z 1007386a f i libvcruntime:frame.obj
 0001:00072897       ?__scrt_throw_std_bad_alloc@@YAXXZ 10073897 f   LIBCMT:throw_bad_alloc.obj
 0001:000728b4       ?__scrt_throw_std_bad_array_new_length@@YAXXZ 100738b4 f   LIBCMT:throw_bad_alloc.obj
 0001:000728d1       ??3@YAXPAX@Z               100738d1 f   LIBCMT:delete_scalar.obj
 0001:000728d6       ___isa_available_init      100738d6 f   LIBCMT:_cpu_disp_.obj
 0001:00072a6f       __get_startup_argv_mode    10073a6f f   LIBCMT:argv_mode.obj
 0001:00072a73       ___scrt_is_ucrt_dll_in_use 10073a73 f   LIBCMT:ucrt_detection.obj
 0001:00072a7f       ___scrt_fastfail           10073a7f f   LIBCMT:utility_desktop.obj
 0001:00072b9b       __crt_debugger_hook        10073b9b f   LIBCMT:utility_desktop.obj
 0001:00072ba3       @_guard_check_icall@4      10073ba3 f i LIBCMT:checkcfg.obj
 0001:00072bb0       __SEH_prolog4              10073bb0 f   LIBCMT:_sehprolg4_.obj
 0001:00072bf6       __SEH_epilog4              10073bf6 f   LIBCMT:_sehprolg4_.obj
 0001:00072c10       ___sse2_cos2               10073c10 f   LIBCMT:_svml_dcos2_sse2_.obj
 0001:00072db0       ___sse2_sin2               10073db0 f   LIBCMT:_svml_dsin2_sse2_.obj
 0001:00072fbf       ___security_init_cookie    10073fbf f   LIBCMT:gs_support.obj
 0001:0007300a       ?__scrt_initialize_type_info@@YAXXZ 1007400a f   LIBCMT:tncleanup.obj
 0001:00073016       ?__scrt_uninitialize_type_info@@YAXXZ 10074016 f   LIBCMT:tncleanup.obj
 0001:00073022       ___scrt_initialize_default_local_stdio_options 10074022 f   LIBCMT:default_local_stdio_options.obj
 0001:0007303f       ___scrt_get_dyn_tls_init_callback 1007403f f   LIBCMT:dyn_tls_init.obj
 0001:00073045       __RTC_Initialize           10074045 f   LIBCMT:_initsect_.obj
 0001:00073070       __RTC_Terminate            10074070 f   LIBCMT:_initsect_.obj
 0001:000730a0       ___common_sin_reduction_LA 100740a0 f   LIBCMT:_svml_dtrig_.obj
 0001:000733f0       ___common_cos_reduction_LA 100743f0 f   LIBCMT:_svml_dtrig_.obj
 0001:000736e0       ___common_pi04_reduction_LA 100746e0 f   LIBCMT:_svml_dtrig_.obj
 0001:000739f0       ??0exception@std@@QAE@QBD@Z 100749f0 f i libcpmt:xthrow.obj
 0001:00073a27       ??0invalid_argument@std@@QAE@ABV01@@Z 10074a27 f i libcpmt:xthrow.obj
 0001:00073a42       ??0invalid_argument@std@@QAE@PBD@Z 10074a42 f i libcpmt:xthrow.obj
 0001:00073a63       ??0length_error@std@@QAE@ABV01@@Z 10074a63 f i libcpmt:xthrow.obj
 0001:00073a7e       ??0length_error@std@@QAE@PBD@Z 10074a7e f i libcpmt:xthrow.obj
 0001:00073a9f       ??0logic_error@std@@QAE@ABV01@@Z 10074a9f f i libcpmt:xthrow.obj
 0001:00073aba       ??0out_of_range@std@@QAE@ABV01@@Z 10074aba f i libcpmt:xthrow.obj
 0001:00073ad5       ??0out_of_range@std@@QAE@PBD@Z 10074ad5 f i libcpmt:xthrow.obj
 0001:00073af6       ?_Xinvalid_argument@std@@YAXPBD@Z 10074af6 f   libcpmt:xthrow.obj
 0001:00073b16       ?_Xlength_error@std@@YAXPBD@Z 10074b16 f   libcpmt:xthrow.obj
 0001:00073b36       ?_Xout_of_range@std@@YAXPBD@Z 10074b36 f   libcpmt:xthrow.obj
 0001:00073b56       ?_Random_device@std@@YAIXZ 10074b56 f   libcpmt:xrngdev.obj
 0001:00073b7a       ?_Addstd@ios_base@std@@SAXPAV12@@Z 10074b7a f   libcpmt:ios.obj
 0001:00073bc8       ?_Callfns@ios_base@std@@AAEXW4event@12@@Z 10074bc8 f i libcpmt:ios.obj
 0001:00073bfa       ?_Ios_base_dtor@ios_base@std@@CAXPAV12@@Z 10074bfa f   libcpmt:ios.obj
 0001:00073c3a       ?_Tidy@ios_base@std@@AAEXXZ 10074c3a f i libcpmt:ios.obj
 0001:00073c82       ??0_Init_locks@std@@QAE@XZ 10074c82 f   libcpmt:xlock.obj
 0001:00073caf       ??0_Lockit@std@@QAE@H@Z    10074caf f   libcpmt:xlock.obj
 0001:00073ce0       ??1_Init_locks@std@@QAE@XZ 10074ce0 f   libcpmt:xlock.obj
 0001:00073d07       ??1_Lockit@std@@QAE@XZ     10074d07 f   libcpmt:xlock.obj
 0001:00073d26       __Getctype                 10074d26 f   libcpmt:_tolower.obj
 0001:00073d8e       __Tolower                  10074d8e f   libcpmt:_tolower.obj
 0001:00073e8e       __Toupper                  10074e8e f   libcpmt:_toupper.obj
 0001:00073f8e       ??0_Locimp@locale@std@@AAE@_N@Z 10074f8e f i libcpmt:locale0.obj
 0001:00073fd1       ??1_Fac_node@std@@QAE@XZ   10074fd1 f i libcpmt:locale0.obj
 0001:00074030       ??1_Fac_tidy_reg_t@std@@QAE@XZ 10075030 f i libcpmt:locale0.obj
 0001:00074057       ??1_Locimp@locale@std@@MAE@XZ 10075057 f i libcpmt:locale0.obj
 0001:000740b2       ??4?$_Yarn@D@std@@QAEAAV01@PBD@Z 100750b2 f i libcpmt:locale0.obj
 0001:00074106       ??_E_Locimp@locale@std@@MAEPAXI@Z 10075106 f i libcpmt:locale0.obj
 0001:00074106       ??_G_Locimp@locale@std@@MAEPAXI@Z 10075106 f i libcpmt:locale0.obj
 0001:00074128       ?_Facet_Register@std@@YAXPAV_Facet_base@1@@Z 10075128 f   libcpmt:locale0.obj
 0001:00074156       ?_Getgloballocale@locale@std@@CAPAV_Locimp@12@XZ 10075156 f   libcpmt:locale0.obj
 0001:0007415c       ?_Init@locale@std@@CAPAV_Locimp@12@_N@Z 1007515c f   libcpmt:locale0.obj
 0001:00074204       ?_Locimp_dtor@_Locimp@locale@std@@CAXPAV123@@Z 10075204 f   libcpmt:locale0.obj
 0001:00074279       ?_Locinfo_ctor@_Locinfo@std@@SAXPAV12@PBD@Z 10075279 f   libcpmt:locale0.obj
 0001:000742c4       ?_Locinfo_dtor@_Locinfo@std@@SAXPAV12@@Z 100752c4 f   libcpmt:locale0.obj
 0001:000742de       ?_New_Locimp@_Locimp@locale@std@@CAPAV123@_N@Z 100752de f   libcpmt:locale0.obj
 0001:00074303       __Deletegloballocale       10075303 f   libcpmt:locale0.obj
 0001:00074368       ?_Execute_once@std@@YAHAAUonce_flag@1@P6GHPAX1PAPAX@Z1@Z 10075368 f   libcpmt:xonce.obj
 0001:00074380       ?_Syserror_map@std@@YAPBDH@Z 10075380 f   libcpmt:syserror.obj
 0001:000743a5       __Mtxdst                   100753a5 f   libcpmt:xmtx.obj
 0001:000743b3       __Mtxinit                  100753b3 f   libcpmt:xmtx.obj
 0001:000743ca       __Mtxlock                  100753ca f   libcpmt:xmtx.obj
 0001:000743d8       __Mtxunlock                100753d8 f   libcpmt:xmtx.obj
 0001:000743e6       ___crtLCMapStringA         100753e6 f   libcpmt:StlLCMapStringA.obj
 0001:000745bd       __freea_crt                100755bd f i libcpmt:StlLCMapStringA.obj
 0001:000745db       ??1_Init_atexit@@QAE@XZ    100755db f i libcpmt:iosptrs.obj
 0001:0007463f       ?_Atexit@@YAXP6AXXZ@Z      1007563f f   libcpmt:iosptrs.obj
 0001:00074a17       ___crtInitOnceExecuteOnce  10075a17 f   libcpmt:winapisupp.obj
 0001:00074aa5       ___crtInitializeCriticalSectionEx 10075aa5 f   libcpmt:winapisupp.obj
 0001:00074add       _GetTableIndexFromLocaleName 10075add f   libcpmt:winapinls.obj
 0001:00074b2b       ___crtDownlevelLocaleNameToLCID 10075b2b f   libcpmt:winapinls.obj
 0001:00074b55       ___crtLCMapStringEx        10075b55 f   libcpmt:winapinls.obj
 0001:00074bab       ___wcsnicmp_ascii          10075bab f   libcpmt:winapinls.obj
 0001:00074c15       _ImmGetContext@4           10075c15 f   imm32:IMM32.dll
 0001:00074c1b       _ImmSetCompositionWindow@8 10075c1b f   imm32:IMM32.dll
 0001:00074c21       __purecall                 10075c21 f   libvcruntime:purevirt.obj
 0001:00074c50       _memmove                   10075c50 f   libvcruntime:memmove.obj
 0001:000751c4       __CxxThrowException@8      100761c4 f   libvcruntime:throw.obj
 0001:00075232       ?_CallCatchBlock2@@YAPAXPAUEHRegistrationNode@@PBU_s_FuncInfo@@PAXHK@Z 10076232 f   libvcruntime:trnsctrl.obj
 0001:00075292       ?_CallSETranslator@@YAHPAUEHExceptionRecord@@PAUEHRegistrationNode@@PAX2PBU_s_FuncInfo@@H1@Z 10076292 f   libvcruntime:trnsctrl.obj
 0001:0007536f       ?_GetRangeOfTrysToCheck@@YAPBU_s_TryBlockMapEntry@@PBU_s_FuncInfo@@HHPAI1@Z 1007636f f   libvcruntime:trnsctrl.obj
 0001:000753e7       ?_JumpToContinuation@@YGXPAXPAUEHRegistrationNode@@@Z 100763e7 f   libvcruntime:trnsctrl.obj
 0001:00075419       ?_UnwindNestedFrames@@YGXPAUEHRegistrationNode@@PAUEHExceptionRecord@@@Z 10076419 f   libvcruntime:trnsctrl.obj
 0001:0007546e       __CatchGuardHandler        1007646e f   libvcruntime:trnsctrl.obj
 0001:0007549f       __CreateFrameInfo          1007649f f   libvcruntime:trnsctrl.obj
 0001:000754c3       __FindAndUnlinkFrame       100764c3 f   libvcruntime:trnsctrl.obj
 0001:00075508       __TranslatorGuardHandler   10076508 f   libvcruntime:trnsctrl.obj
 0001:000755a7       ___CxxFrameHandler3        100765a7 f   libvcruntime:trnsctrl.obj
 0001:000755e0       _memcpy                    100765e0 f   libvcruntime:memcpy.obj
 0001:00075b54       ___DestructExceptionObject 10076b54 f   libvcruntime:ehhelpers.obj
 0001:00075be9       ?_CallMemberFunction0@@YGXQAX0@Z 10076be9 f i libvcruntime:ehhelpers.obj
 0001:00075bf6       __IsExceptionObjectToBeDestroyed 10076bf6 f   libvcruntime:ehhelpers.obj
 0001:00075c1c       ___AdjustPointer           10076c1c f   libvcruntime:ehhelpers.obj
 0001:00075c41       ___FrameUnwindFilter       10076c41 f   libvcruntime:ehhelpers.obj
 0001:00075c86       ___std_terminate           10076c86 f   libvcruntime:ehhelpers.obj
 0001:00075c90       _memset                    10076c90 f   libvcruntime:memset.obj
 0001:00075df0       _strstr                    10076df0 f   libvcruntime:strstr.obj
 0001:00076060       _memchr                    10077060 f   libvcruntime:memchr.obj
 0001:0007610d       ___std_exception_copy      1007710d f   libvcruntime:std_exception.obj
 0001:00076170       ___std_exception_destroy   10077170 f   libvcruntime:std_exception.obj
 0001:00076190       _strchr                    10077190 f   libvcruntime:strchr.obj
 0001:000761fe       ___from_strstr_to_strchr   100771fe     libvcruntime:strchr.obj
 0001:000762bb       ___vcrt_initialize         100772bb f   libvcruntime:initialization.obj
 0001:000762e4       ___vcrt_thread_attach      100772e4 f   libvcruntime:initialization.obj
 0001:000762ef       ___vcrt_thread_detach      100772ef f   libvcruntime:initialization.obj
 0001:000762fa       ___vcrt_uninitialize       100772fa f   libvcruntime:initialization.obj
 0001:00076319       ___vcrt_uninitialize_critical 10077319 f   libvcruntime:initialization.obj
 0001:00076370       __except_handler4          10077370 f   libvcruntime:_chandler4_.obj
 0001:0007661a       ___vcrt_FlsAlloc           1007761a f   libvcruntime:winapi_downlevel.obj
 0001:00076654       ___vcrt_FlsFree            10077654 f   libvcruntime:winapi_downlevel.obj
 0001:0007668e       ___vcrt_FlsGetValue        1007768e f   libvcruntime:winapi_downlevel.obj
 0001:000766c8       ___vcrt_FlsSetValue        100776c8 f   libvcruntime:winapi_downlevel.obj
 0001:00076705       ___vcrt_InitializeCriticalSectionEx 10077705 f   libvcruntime:winapi_downlevel.obj
 0001:0007674b       ___vcrt_initialize_winapi_thunks 1007774b f   libvcruntime:winapi_downlevel.obj
 0001:00076785       ___vcrt_uninitialize_winapi_thunks 10077785 f   libvcruntime:winapi_downlevel.obj
 0001:000767b7       ___std_type_info_compare   100777b7 f   libvcruntime:std_type_info.obj
 0001:000767f3       ___std_type_info_destroy_list 100777f3 f   libvcruntime:std_type_info.obj
 0001:00076816       _memcmp                    10077816 f   libvcruntime:_memcmp_.obj
 0001:0007842a       ___vcrt_initialize_pure_virtual_call_handler 1007942a f   libvcruntime:purevirt_data.obj
 0001:00078447       ___vcrt_freefls@4          10079447 f   libvcruntime:per_thread_data.obj
 0001:00078463       ___vcrt_freeptd            10079463 f   libvcruntime:per_thread_data.obj
 0001:000784a6       ___vcrt_getptd             100794a6 f   libvcruntime:per_thread_data.obj
 0001:000784b4       ___vcrt_getptd_noexit      100794b4 f   libvcruntime:per_thread_data.obj
 0001:00078546       ___vcrt_initialize_ptd     10079546 f   libvcruntime:per_thread_data.obj
 0001:0007858c       ___vcrt_uninitialize_ptd   1007958c f   libvcruntime:per_thread_data.obj
 0001:000785b0       __CallSettingFrame@12      100795b0 f   libvcruntime:lowhelpr.obj
 0001:000785d7       __NLG_Return               100795d7     libvcruntime:lowhelpr.obj
 0001:000785fc       ??0bad_exception@std@@QAE@ABV01@@Z 100795fc f i libvcruntime:frame.obj
 0001:00078617       ??0bad_exception@std@@QAE@XZ 10079617 f i libvcruntime:frame.obj
 0001:00078e3f       ?_CallMemberFunction1@@YGXQAX00@Z 10079e3f f i libvcruntime:frame.obj
 0001:00078e4f       ?_CallMemberFunction2@@YGXQAX00H@Z 10079e4f f i libvcruntime:frame.obj
 0001:00078e62       ___BuildCatchObject        10079e62 f   libvcruntime:frame.obj
 0001:00078ef1       ___BuildCatchObjectHelper  10079ef1 f   libvcruntime:frame.obj
 0001:00079024       ___FrameUnwindToState      1007a024 f   libvcruntime:frame.obj
 0001:000790f1       ___InternalCxxFrameHandler 1007a0f1 f   libvcruntime:frame.obj
 0001:000791ed       ___TypeMatch               1007a1ed f   libvcruntime:frame.obj
 0001:0007927b       ___except_validate_context_record 1007a27b f   libvcruntime:jbcxrval.obj
 0001:000792ab       ___except_validate_jump_buffer 1007a2ab f   libvcruntime:jbcxrval.obj
 0001:000792d8       ___vcrt_initialize_locks   1007a2d8 f   libvcruntime:locks.obj
 0001:00079314       ___vcrt_uninitialize_locks 1007a314 f   libvcruntime:locks.obj
 0001:00079350       __local_unwind4            1007a350 f   libvcruntime:_exsup4_.obj
 0001:00079428       __seh_longjmp_unwind4@4    1007a428 f   libvcruntime:_exsup4_.obj
 0001:00079450       @_EH4_CallFilterFunc@8     1007a450 f   libvcruntime:_exsup4_.obj
 0001:00079468       @_EH4_TransferToHandler@8  1007a468 f   libvcruntime:_exsup4_.obj
 0001:00079484       @_EH4_GlobalUnwind2@8      1007a484 f   libvcruntime:_exsup4_.obj
 0001:000794a0       @_EH4_LocalUnwind@16       1007a4a0 f   libvcruntime:_exsup4_.obj
 0001:000794c0       __global_unwind2           1007a4c0 f   libvcruntime:_exsup_.obj
 0001:00079526       __local_unwind2            1007a526 f   libvcruntime:_exsup_.obj
 0001:000795aa       __abnormal_termination     1007a5aa f   libvcruntime:_exsup_.obj
 0001:000795d0       __NLG_Notify1              1007a5d0 f   libvcruntime:_exsup_.obj
 0001:000795dc       __NLG_Notify               1007a5dc f   libvcruntime:_exsup_.obj
 0001:000795f3       __NLG_Dispatch             1007a5f3     libvcruntime:_exsup_.obj
 0001:000795f3       __NLG_Dispatch2            1007a5f3     libvcruntime:_exsup_.obj
 0001:000795fb       __NLG_Call                 1007a5fb f   libvcruntime:_exsup_.obj
 0001:000795fd       __NLG_Return2              1007a5fd     libvcruntime:_exsup_.obj
 0001:000795fe       _unexpected                1007a5fe f   libvcruntime:unexpected.obj
 0001:0007961a       ??$assemble_floating_point_ind@N@__crt_strtox@@YAXAAN@Z 1007a61a f i libucrt:input.obj
 0001:00079649       ??$assemble_floating_point_infinity@N@__crt_strtox@@YAX_NAAN@Z 1007a649 f i libucrt:input.obj
 0001:00079684       ??$assemble_floating_point_qnan@N@__crt_strtox@@YAX_NAAN@Z 1007a684 f i libucrt:input.obj
 0001:000796bf       ??$assemble_floating_point_snan@N@__crt_strtox@@YAX_NAAN@Z 1007a6bf f i libucrt:input.obj
 0001:000796ff       ??$assemble_floating_point_value_t@M@__crt_strtox@@YA?AW4SLD_STATUS@@_NH_KAAM@Z 1007a6ff f i libucrt:input.obj
 0001:0007972f       ??$assemble_floating_point_value_t@N@__crt_strtox@@YA?AW4SLD_STATUS@@_NH_KAAN@Z 1007a72f f i libucrt:input.obj
 0001:00079788       ??$assemble_floating_point_zero@N@__crt_strtox@@YAX_NAAN@Z 1007a788 f i libucrt:input.obj
 0001:00079879       ??$convert_decimal_string_to_floating_type@M@__crt_strtox@@YA?AW4SLD_STATUS@@ABUfloating_point_string@0@AAM@Z 1007a879 f i libucrt:input.obj
 0001:0007989c       ??$convert_decimal_string_to_floating_type@N@__crt_strtox@@YA?AW4SLD_STATUS@@ABUfloating_point_string@0@AAN@Z 1007a89c f i libucrt:input.obj
 0001:000798bf       ??$convert_hexadecimal_string_to_floating_type@M@__crt_strtox@@YA?AW4SLD_STATUS@@ABUfloating_point_string@0@AAM@Z 1007a8bf f i libucrt:input.obj
 0001:000798e2       ??$convert_hexadecimal_string_to_floating_type@N@__crt_strtox@@YA?AW4SLD_STATUS@@ABUfloating_point_string@0@AAN@Z 1007a8e2 f i libucrt:input.obj
 0001:00079905       ??$is_overflow_condition@_K@__crt_strtox@@YA_NI_K@Z 1007a905 f i libucrt:input.obj
 0001:00079946       ??$make_input_adapter_character_source@V?$string_input_adapter@D@__crt_stdio_input@@@__crt_strtox@@YA?AV?$input_adapter_character_source@V?$string_input_adapter@D@__crt_stdio_input@@@0@QAV?$string_input_adapter@D@__crt_stdio_input@@_KQA_N@Z 1007a946 f i libucrt:input.obj
 0001:00079964       ??$parse_floating_point@V?$input_adapter_character_source@V?$string_input_adapter@D@__crt_stdio_input@@@__crt_strtox@@M@__crt_strtox@@YA?AW4SLD_STATUS@@QAU__crt_locale_pointers@@V?$input_adapter_character_source@V?$string_input_adapter@D@__crt_stdio_input@@@0@QAM@Z 1007a964 f i libucrt:input.obj
 0001:000799df       ??$parse_floating_point@V?$input_adapter_character_source@V?$string_input_adapter@D@__crt_stdio_input@@@__crt_strtox@@N@__crt_strtox@@YA?AW4SLD_STATUS@@QAU__crt_locale_pointers@@V?$input_adapter_character_source@V?$string_input_adapter@D@__crt_stdio_input@@@0@QAN@Z 1007a9df f i libucrt:input.obj
 0001:00079a5a       ??$parse_floating_point_from_source@V?$input_adapter_character_source@V?$string_input_adapter@D@__crt_stdio_input@@@__crt_strtox@@@__crt_strtox@@YA?AW4floating_point_parse_result@0@QAU__crt_locale_pointers@@AAV?$input_adapter_character_source@V?$string_input_adapter@D@__crt_stdio_input@@@0@AAUfloating_point_string@0@@Z 1007aa5a f i libucrt:input.obj
 0001:00079ebc       ??$parse_floating_point_possible_infinity@DV?$input_adapter_character_source@V?$string_input_adapter@D@__crt_stdio_input@@@__crt_strtox@@_K@__crt_strtox@@YA?AW4floating_point_parse_result@0@AADAAV?$input_adapter_character_source@V?$string_input_adapter@D@__crt_stdio_input@@@0@_K@Z 1007aebc f i libucrt:input.obj
 0001:00079f7d       ??$parse_floating_point_possible_nan@DV?$input_adapter_character_source@V?$string_input_adapter@D@__crt_stdio_input@@@__crt_strtox@@_K@__crt_strtox@@YA?AW4floating_point_parse_result@0@AADAAV?$input_adapter_character_source@V?$string_input_adapter@D@__crt_stdio_input@@@0@_K@Z 1007af7d f i libucrt:input.obj
 0001:0007a08f       ??$parse_floating_point_possible_nan_is_ind@DV?$input_adapter_character_source@V?$string_input_adapter@D@__crt_stdio_input@@@__crt_strtox@@@__crt_strtox@@YA_NAADAAV?$input_adapter_character_source@V?$string_input_adapter@D@__crt_stdio_input@@@0@@Z 1007b08f f i libucrt:input.obj
 0001:0007a0c9       ??$parse_floating_point_possible_nan_is_snan@DV?$input_adapter_character_source@V?$string_input_adapter@D@__crt_stdio_input@@@__crt_strtox@@@__crt_strtox@@YA_NAADAAV?$input_adapter_character_source@V?$string_input_adapter@D@__crt_stdio_input@@@0@@Z 1007b0c9 f i libucrt:input.obj
 0001:0007a103       ??$parse_floating_point_write_result@M@__crt_strtox@@YA?AW4SLD_STATUS@@W4floating_point_parse_result@0@ABUfloating_point_string@0@QAM@Z 1007b103 f i libucrt:input.obj
 0001:0007a213       ??$parse_floating_point_write_result@N@__crt_strtox@@YA?AW4SLD_STATUS@@W4floating_point_parse_result@0@ABUfloating_point_string@0@QAN@Z 1007b213 f i libucrt:input.obj
 0001:0007a317       ??$parse_integer@_KV?$input_adapter_character_source@V?$string_input_adapter@D@__crt_stdio_input@@@__crt_strtox@@@__crt_strtox@@YA_KQAU__crt_locale_pointers@@V?$input_adapter_character_source@V?$string_input_adapter@D@__crt_stdio_input@@@0@H_N@Z 1007b317 f i libucrt:input.obj
 0001:0007a5ce       ??$process_floating_point_specifier_t@M@?$input_processor@DV?$string_input_adapter@D@__crt_stdio_input@@@__crt_stdio_input@@AAE_NXZ 1007b5ce f i libucrt:input.obj
 0001:0007a636       ??$process_floating_point_specifier_t@N@?$input_processor@DV?$string_input_adapter@D@__crt_stdio_input@@@__crt_stdio_input@@AAE_NXZ 1007b636 f i libucrt:input.obj
 0001:0007a69e       ??$process_string_specifier_tchar@D@?$input_processor@DV?$string_input_adapter@D@__crt_stdio_input@@@__crt_stdio_input@@AAE_NW4conversion_mode@1@D@Z 1007b69e f i libucrt:input.obj
 0001:0007a7fd       ??$process_string_specifier_tchar@_W@?$input_processor@DV?$string_input_adapter@D@__crt_stdio_input@@@__crt_stdio_input@@AAE_NW4conversion_mode@1@_W@Z 1007b7fd f i libucrt:input.obj
 0001:0007a966       ??$skip_whitespace@Vstring_input_adapter@__crt_stdio_input@@D@__crt_stdio_input@@YAHAAV?$string_input_adapter@D@0@QAU__crt_locale_pointers@@@Z 1007b966 f i libucrt:input.obj
 0001:0007a995       ??$write_floating_point@M@?$input_processor@DV?$string_input_adapter@D@__crt_stdio_input@@@__crt_stdio_input@@AAE_NABM@Z 1007b995 f i libucrt:input.obj
 0001:0007a9c9       ??$write_floating_point@N@?$input_processor@DV?$string_input_adapter@D@__crt_stdio_input@@@__crt_stdio_input@@AAE_NABN@Z 1007b9c9 f i libucrt:input.obj
 0001:0007aa03       ??0?$format_string_parser@D@__crt_stdio_input@@QAE@_KQBE@Z 1007ba03 f i libucrt:input.obj
 0001:0007aa4d       ??0?$input_adapter_character_source@V?$string_input_adapter@D@__crt_stdio_input@@@__crt_strtox@@QAE@QAV?$string_input_adapter@D@__crt_stdio_input@@_KQA_N@Z 1007ba4d f i libucrt:input.obj
 0001:0007aa7e       ??0?$input_processor@DV?$string_input_adapter@D@__crt_stdio_input@@@__crt_stdio_input@@QAE@ABV?$string_input_adapter@D@1@_KQBDQAU__crt_locale_pointers@@QAD@Z 1007ba7e f i libucrt:input.obj
 0001:0007aac2       ??0_LocaleUpdate@@QAE@QAU__crt_locale_pointers@@@Z 1007bac2 f i libucrt:input.obj
 0001:0007ab6f       ?advance@?$format_string_parser@D@__crt_stdio_input@@QAE_NXZ 1007bb6f f i libucrt:input.obj
 0001:0007ac91       ?as_double@floating_point_value@__crt_strtox@@QBEAANXZ 1007bc91 f i libucrt:input.obj
 0001:0007acb6       ?as_float@floating_point_value@__crt_strtox@@QBEAAMXZ 1007bcb6 f i libucrt:input.obj
 0001:0007acdb       ?assemble_floating_point_infinity@__crt_strtox@@YAX_NABVfloating_point_value@1@@Z 1007bcdb f i libucrt:input.obj
 0001:0007ad11       ?assemble_floating_point_value@__crt_strtox@@YA?AW4SLD_STATUS@@_KH_N1ABVfloating_point_value@1@@Z 1007bd11 f i libucrt:input.obj
 0001:0007b059       ?assemble_floating_point_value_from_big_integer@__crt_strtox@@YA?AW4SLD_STATUS@@ABUbig_integer@1@I_N1ABVfloating_point_value@1@@Z 1007c059 f i libucrt:input.obj
 0001:0007b1e9       ?assemble_floating_point_zero@__crt_strtox@@YAX_NABVfloating_point_value@1@@Z 1007c1e9 f i libucrt:input.obj
 0001:0007b219       ?convert_decimal_string_to_floating_type_common@__crt_strtox@@YA?AW4SLD_STATUS@@ABUfloating_point_string@1@ABVfloating_point_value@1@@Z 1007c219 f i libucrt:input.obj
 0001:0007cf4b       ?convert_hexadecimal_string_to_floating_type_common@__crt_strtox@@YA?AW4SLD_STATUS@@ABUfloating_point_string@1@ABVfloating_point_value@1@@Z 1007df4b f i libucrt:input.obj
 0001:0007cff3       ?denormal_mantissa_mask@floating_point_value@__crt_strtox@@QBE_KXZ 1007dff3 f i libucrt:input.obj
 0001:0007d010       ?divide@__crt_strtox@@YA_KAAUbig_integer@1@ABU21@@Z 1007e010 f i libucrt:input.obj
 0001:0007d4b2       ?get@?$input_adapter_character_source@V?$string_input_adapter@D@__crt_stdio_input@@@__crt_strtox@@QAEDXZ 1007e4b2 f i libucrt:input.obj
 0001:0007d4ec       ?get@?$string_input_adapter@D@__crt_stdio_input@@QAEHXZ 1007e4ec f i libucrt:input.obj
 0001:0007d502       ?invert@?$scanset_buffer@E@__crt_stdio_input@@QAEXXZ 1007e502 f i libucrt:input.obj
 0001:0007d520       ?is_character_allowed_in_string@?$input_processor@DV?$string_input_adapter@D@__crt_stdio_input@@@__crt_stdio_input@@ABE_NW4conversion_mode@2@H@Z 1007e520 f i libucrt:input.obj
 0001:0007d574       ?length@?$format_string_parser@D@__crt_stdio_input@@QBEIXZ 1007e574 f i libucrt:input.obj
 0001:0007d5b5       ?normal_mantissa_mask@floating_point_value@__crt_strtox@@QBE_KXZ 1007e5b5 f i libucrt:input.obj
 0001:0007d5cc       ?process@?$input_processor@DV?$string_input_adapter@D@__crt_stdio_input@@@__crt_stdio_input@@QAEHXZ 1007e5cc f i libucrt:input.obj
 0001:0007d655       ?process_character_count_specifier@?$input_processor@DV?$string_input_adapter@D@__crt_stdio_input@@@__crt_stdio_input@@AAE_NXZ 1007e655 f i libucrt:input.obj
 0001:0007d66d       ?process_conversion_specifier@?$input_processor@DV?$string_input_adapter@D@__crt_stdio_input@@@__crt_stdio_input@@AAE_NXZ 1007e66d f i libucrt:input.obj
 0001:0007d6e1       ?process_floating_point_specifier@?$input_processor@DV?$string_input_adapter@D@__crt_stdio_input@@@__crt_stdio_input@@AAE_NXZ 1007e6e1 f i libucrt:input.obj
 0001:0007d711       ?process_integer_specifier@?$input_processor@DV?$string_input_adapter@D@__crt_stdio_input@@@__crt_stdio_input@@AAE_NI_N@Z 1007e711 f i libucrt:input.obj
 0001:0007d775       ?process_literal_character@?$input_processor@DV?$string_input_adapter@D@__crt_stdio_input@@@__crt_stdio_input@@AAE_NXZ 1007e775 f i libucrt:input.obj
 0001:0007d7ab       ?process_literal_character_tchar@?$input_processor@DV?$string_input_adapter@D@__crt_stdio_input@@@__crt_stdio_input@@AAE_ND@Z 1007e7ab f i libucrt:input.obj
 0001:0007d7fd       ?process_state@?$input_processor@DV?$string_input_adapter@D@__crt_stdio_input@@@__crt_stdio_input@@AAE_NXZ 1007e7fd f i libucrt:input.obj
 0001:0007d83f       ?process_string_specifier@?$input_processor@DV?$string_input_adapter@D@__crt_stdio_input@@@__crt_stdio_input@@AAE_NW4conversion_mode@2@@Z 1007e83f f i libucrt:input.obj
 0001:0007d887       ?process_whitespace@?$input_processor@DV?$string_input_adapter@D@__crt_stdio_input@@@__crt_stdio_input@@AAE_NXZ 1007e887 f i libucrt:input.obj
 0001:0007d8a4       ?restore_state@?$input_adapter_character_source@V?$string_input_adapter@D@__crt_stdio_input@@@__crt_strtox@@QAE_N_K@Z 1007e8a4 f i libucrt:input.obj
 0001:0007d8c9       ?scan_conversion_specifier@?$format_string_parser@D@__crt_stdio_input@@AAE_NXZ 1007e8c9 f i libucrt:input.obj
 0001:0007da39       ?scan_optional_field_width@?$format_string_parser@D@__crt_stdio_input@@AAE_NXZ 1007ea39 f i libucrt:input.obj
 0001:0007dad8       ?scan_optional_length_modifier@?$format_string_parser@D@__crt_stdio_input@@AAEXXZ 1007ead8 f i libucrt:input.obj
 0001:0007dbf8       ?scan_optional_literal_character_trail_bytes_tchar@?$format_string_parser@D@__crt_stdio_input@@AAE_ND@Z 1007ebf8 f i libucrt:input.obj
 0001:0007dc4a       ?scan_optional_wide_modifier@?$format_string_parser@D@__crt_stdio_input@@AAEXXZ 1007ec4a f i libucrt:input.obj
 0001:0007dc68       ?scan_scanset_range@?$format_string_parser@D@__crt_stdio_input@@AAE_NXZ 1007ec68 f i libucrt:input.obj
 0001:0007dd73       ?set_wide_for_c_s_or_scanset@?$format_string_parser@D@__crt_stdio_input@@AAEXXZ 1007ed73 f i libucrt:input.obj
 0001:0007dd93       ?to_floating_point_length@__crt_stdio_input@@YAIW4length_modifier@1@@Z 1007ed93 f i libucrt:input.obj
 0001:0007ddb6       ?to_integer_length@__crt_stdio_input@@YAIW4length_modifier@1@@Z 1007edb6 f i libucrt:input.obj
 0001:0007de0e       ?unget@?$input_adapter_character_source@V?$string_input_adapter@D@__crt_stdio_input@@@__crt_strtox@@QAEXD@Z 1007ee0e f i libucrt:input.obj
 0001:0007de4f       ?unget@?$string_input_adapter@D@__crt_stdio_input@@QAEXH@Z 1007ee4f f i libucrt:input.obj
 0001:0007de6e       ?validate@?$format_string_parser@D@__crt_stdio_input@@QBE_NXZ 1007ee6e f i libucrt:input.obj
 0001:0007de8a       ?validate@?$input_adapter_character_source@V?$string_input_adapter@D@__crt_stdio_input@@@__crt_strtox@@QBE_NXZ 1007ee8a f i libucrt:input.obj
 0001:0007deab       ?validate@?$string_input_adapter@D@__crt_stdio_input@@QAE_NXZ 1007eeab f i libucrt:input.obj
 0001:0007decd       ?validate_stream_is_ansi_if_required@?$__acrt_stdio_char_traits@D@@SA_NQAU_iobuf@@@Z 1007eecd f i libucrt:input.obj
 0001:0007df4f       ?write_character@?$input_processor@DV?$string_input_adapter@D@__crt_stdio_input@@@__crt_stdio_input@@AAE_NQA_WIAAPA_WAAID@Z 1007ef4f f i libucrt:input.obj
 0001:0007dfbe       ?write_integer@?$input_processor@DV?$string_input_adapter@D@__crt_stdio_input@@@__crt_stdio_input@@AAE_N_K@Z 1007efbe f i libucrt:input.obj
 0001:0007e02c       ___stdio_common_vsscanf    1007f02c f   libucrt:input.obj
 0001:0007e050       __chvalidchk_l             1007f050 f i libucrt:input.obj
 0001:0007e07a       __ischartype_l             1007f07a f i libucrt:input.obj
 0001:0007e12e       ___acrt_call_reportfault   1007f12e f   libucrt:invalid_parameter.obj
 0001:0007e269       ___acrt_initialize_invalid_parameter_handler 1007f269 f   libucrt:invalid_parameter.obj
 0001:0007e278       __invalid_parameter        1007f278 f   libucrt:invalid_parameter.obj
 0001:0007e2f3       __invalid_parameter_noinfo 1007f2f3 f   libucrt:invalid_parameter.obj
 0001:0007e303       __invalid_parameter_noinfo_noreturn 1007f303 f   libucrt:invalid_parameter.obj
 0001:0007e320       __invoke_watson            1007f320 f   libucrt:invalid_parameter.obj
 0001:0007e354       _rand                      1007f354 f   libucrt:rand.obj
 0001:0007e375       _fmaxf                     1007f375 f   libucrt:fmaxf.obj
 0001:0007e3e0       __libm_sse2_pow_precise    1007f3e0 f   libucrt:pow_sse2_precise.obj
 0001:0007ef30       __libm_sse2_sqrt_precise   1007ff30 f   libucrt:sqrt_sse2_precise.obj
 0001:0007f030       _malloc                    10080030 f   libucrt:malloc.obj
 0001:0007f508       ??$count@D@formatting_buffer@__crt_stdio_output@@QBEIXZ 10080508 f i libucrt:output.obj
 0001:0007f520       ??$ensure_buffer_is_big_enough@D@formatting_buffer@__crt_stdio_output@@QAE_NI@Z 10080520 f i libucrt:output.obj
 0001:0007f59f       ??$is_wide_character_specifier@D@__crt_stdio_output@@YA_N_KDW4length_modifier@0@@Z 1008059f f i libucrt:output.obj
 0001:0007f5d0       ??$scratch_data@D@formatting_buffer@__crt_stdio_output@@QAEPADXZ 100805d0 f i libucrt:output.obj
 0001:0007f5ee       ??$type_case_integer_parse_into_buffer@I@?$output_processor@DV?$string_output_adapter@D@__crt_stdio_output@@V?$format_validation_base@DV?$string_output_adapter@D@__crt_stdio_output@@@2@@__crt_stdio_output@@AAEXII_N@Z 100805ee f i libucrt:output.obj
 0001:0007f5ee       ??$type_case_integer_parse_into_buffer@I@?$output_processor@DV?$stream_output_adapter@D@__crt_stdio_output@@V?$standard_base@DV?$stream_output_adapter@D@__crt_stdio_output@@@2@@__crt_stdio_output@@AAEXII_N@Z 100805ee f i libucrt:output.obj
 0001:0007f5ee       ??$type_case_integer_parse_into_buffer@I@?$output_processor@DV?$string_output_adapter@D@__crt_stdio_output@@V?$standard_base@DV?$string_output_adapter@D@__crt_stdio_output@@@2@@__crt_stdio_output@@AAEXII_N@Z 100805ee f i libucrt:output.obj
 0001:0007f65b       ??$type_case_integer_parse_into_buffer@_K@?$output_processor@DV?$string_output_adapter@D@__crt_stdio_output@@V?$format_validation_base@DV?$string_output_adapter@D@__crt_stdio_output@@@2@@__crt_stdio_output@@AAEX_KI_N@Z 1008065b f i libucrt:output.obj
 0001:0007f65b       ??$type_case_integer_parse_into_buffer@_K@?$output_processor@DV?$stream_output_adapter@D@__crt_stdio_output@@V?$standard_base@DV?$stream_output_adapter@D@__crt_stdio_output@@@2@@__crt_stdio_output@@AAEX_KI_N@Z 1008065b f i libucrt:output.obj
 0001:0007f65b       ??$type_case_integer_parse_into_buffer@_K@?$output_processor@DV?$string_output_adapter@D@__crt_stdio_output@@V?$standard_base@DV?$string_output_adapter@D@__crt_stdio_output@@@2@@__crt_stdio_output@@AAEX_KI_N@Z 1008065b f i libucrt:output.obj
 0001:0007f6dd       ??$write_multiple_characters@V?$stream_output_adapter@D@__crt_stdio_output@@D@__crt_stdio_output@@YAXABV?$stream_output_adapter@D@0@DHQAH@Z 100806dd f i libucrt:output.obj
 0001:0007f713       ??$write_multiple_characters@V?$string_output_adapter@D@__crt_stdio_output@@D@__crt_stdio_output@@YAXABV?$string_output_adapter@D@0@DHQAH@Z 10080713 f i libucrt:output.obj
 0001:0007f73f       ??0?$common_data@D@__crt_stdio_output@@IAE@XZ 1008073f f i libucrt:output.obj
 0001:0007f786       ??0?$output_adapter_data@DV?$string_output_adapter@D@__crt_stdio_output@@@__crt_stdio_output@@IAE@ABV?$string_output_adapter@D@1@_KQBDQAU__crt_locale_pointers@@QAD@Z 10080786 f i libucrt:output.obj
 0001:0007f786       ??0?$output_adapter_data@DV?$stream_output_adapter@D@__crt_stdio_output@@@__crt_stdio_output@@IAE@ABV?$stream_output_adapter@D@1@_KQBDQAU__crt_locale_pointers@@QAD@Z 10080786 f i libucrt:output.obj
 0001:0007f7c2       ??1formatting_buffer@__crt_stdio_output@@QAE@XZ 100807c2 f i libucrt:output.obj
 0001:0007f7dc       ??4?$__crt_unique_heap_ptr@DU__crt_internal_free_policy@@@@QAEAAV0@$$QAV0@@Z 100807dc f i libucrt:output.obj
 0001:0007f8c1       ?crop_zeroes@__crt_stdio_output@@YAXPADQAU__crt_locale_pointers@@@Z 100808c1 f i libucrt:output.obj
 0001:0007f918       ?find_next_state@?$output_processor@DV?$string_output_adapter@D@__crt_stdio_output@@V?$standard_base@DV?$string_output_adapter@D@__crt_stdio_output@@@2@@__crt_stdio_output@@ABE?AW4state@2@DW432@@Z 10080918 f i libucrt:output.obj
 0001:0007f918       ?find_next_state@?$output_processor@DV?$stream_output_adapter@D@__crt_stdio_output@@V?$standard_base@DV?$stream_output_adapter@D@__crt_stdio_output@@@2@@__crt_stdio_output@@ABE?AW4state@2@DW432@@Z 10080918 f i libucrt:output.obj
 0001:0007f94a       ?find_next_state@?$output_processor@DV?$string_output_adapter@D@__crt_stdio_output@@V?$format_validation_base@DV?$string_output_adapter@D@__crt_stdio_output@@@2@@__crt_stdio_output@@ABE?AW4state@2@DW432@@Z 1008094a f i libucrt:output.obj
 0001:0007f97f       ?force_decimal_point@__crt_stdio_output@@YAXPADQAU__crt_locale_pointers@@@Z 1008097f f i libucrt:output.obj
 0001:0007f9db       ?parse_int_from_format_string@?$output_processor@DV?$stream_output_adapter@D@__crt_stdio_output@@V?$standard_base@DV?$stream_output_adapter@D@__crt_stdio_output@@@2@@__crt_stdio_output@@AAE_NQAH@Z 100809db f i libucrt:output.obj
 0001:0007f9db       ?parse_int_from_format_string@?$output_processor@DV?$string_output_adapter@D@__crt_stdio_output@@V?$format_validation_base@DV?$string_output_adapter@D@__crt_stdio_output@@@2@@__crt_stdio_output@@AAE_NQAH@Z 100809db f i libucrt:output.obj
 0001:0007f9db       ?parse_int_from_format_string@?$output_processor@DV?$string_output_adapter@D@__crt_stdio_output@@V?$standard_base@DV?$string_output_adapter@D@__crt_stdio_output@@@2@@__crt_stdio_output@@AAE_NQAH@Z 100809db f i libucrt:output.obj
 0001:0007fa53       ?process@?$output_processor@DV?$stream_output_adapter@D@__crt_stdio_output@@V?$standard_base@DV?$stream_output_adapter@D@__crt_stdio_output@@@2@@__crt_stdio_output@@QAEHXZ 10080a53 f i libucrt:output.obj
 0001:0007fb6f       ?process@?$output_processor@DV?$string_output_adapter@D@__crt_stdio_output@@V?$format_validation_base@DV?$string_output_adapter@D@__crt_stdio_output@@@2@@__crt_stdio_output@@QAEHXZ 10080b6f f i libucrt:output.obj
 0001:0007fc97       ?process@?$output_processor@DV?$string_output_adapter@D@__crt_stdio_output@@V?$standard_base@DV?$string_output_adapter@D@__crt_stdio_output@@@2@@__crt_stdio_output@@QAEHXZ 10080c97 f i libucrt:output.obj
 0001:0007fdb3       ?state_case_flag@?$output_processor@DV?$stream_output_adapter@D@__crt_stdio_output@@V?$standard_base@DV?$stream_output_adapter@D@__crt_stdio_output@@@2@@__crt_stdio_output@@AAE_NXZ 10080db3 f i libucrt:output.obj
 0001:0007fdb3       ?state_case_flag@?$output_processor@DV?$string_output_adapter@D@__crt_stdio_output@@V?$format_validation_base@DV?$string_output_adapter@D@__crt_stdio_output@@@2@@__crt_stdio_output@@AAE_NXZ 10080db3 f i libucrt:output.obj
 0001:0007fdb3       ?state_case_flag@?$output_processor@DV?$string_output_adapter@D@__crt_stdio_output@@V?$standard_base@DV?$string_output_adapter@D@__crt_stdio_output@@@2@@__crt_stdio_output@@AAE_NXZ 10080db3 f i libucrt:output.obj
 0001:0007fdf0       ?state_case_normal@?$output_processor@DV?$stream_output_adapter@D@__crt_stdio_output@@V?$standard_base@DV?$stream_output_adapter@D@__crt_stdio_output@@@2@@__crt_stdio_output@@AAE_NXZ 10080df0 f i libucrt:output.obj
 0001:0007fe0f       ?state_case_normal@?$output_processor@DV?$string_output_adapter@D@__crt_stdio_output@@V?$format_validation_base@DV?$string_output_adapter@D@__crt_stdio_output@@@2@@__crt_stdio_output@@AAE_NXZ 10080e0f f i libucrt:output.obj
 0001:0007fe0f       ?state_case_normal@?$output_processor@DV?$string_output_adapter@D@__crt_stdio_output@@V?$standard_base@DV?$string_output_adapter@D@__crt_stdio_output@@@2@@__crt_stdio_output@@AAE_NXZ 10080e0f f i libucrt:output.obj
 0001:0007fe2e       ?state_case_normal_common@?$output_processor@DV?$stream_output_adapter@D@__crt_stdio_output@@V?$standard_base@DV?$stream_output_adapter@D@__crt_stdio_output@@@2@@__crt_stdio_output@@AAE_NXZ 10080e2e f i libucrt:output.obj
 0001:0007fe6a       ?state_case_normal_common@?$output_processor@DV?$string_output_adapter@D@__crt_stdio_output@@V?$format_validation_base@DV?$string_output_adapter@D@__crt_stdio_output@@@2@@__crt_stdio_output@@AAE_NXZ 10080e6a f i libucrt:output.obj
 0001:0007fe6a       ?state_case_normal_common@?$output_processor@DV?$string_output_adapter@D@__crt_stdio_output@@V?$standard_base@DV?$string_output_adapter@D@__crt_stdio_output@@@2@@__crt_stdio_output@@AAE_NXZ 10080e6a f i libucrt:output.obj
 0001:0007fe94       ?state_case_normal_tchar@?$output_processor@DV?$stream_output_adapter@D@__crt_stdio_output@@V?$standard_base@DV?$stream_output_adapter@D@__crt_stdio_output@@@2@@__crt_stdio_output@@AAE_ND@Z 10080e94 f i libucrt:output.obj
 0001:0007ff05       ?state_case_normal_tchar@?$output_processor@DV?$string_output_adapter@D@__crt_stdio_output@@V?$standard_base@DV?$string_output_adapter@D@__crt_stdio_output@@@2@@__crt_stdio_output@@AAE_ND@Z 10080f05 f i libucrt:output.obj
 0001:0007ff05       ?state_case_normal_tchar@?$output_processor@DV?$string_output_adapter@D@__crt_stdio_output@@V?$format_validation_base@DV?$string_output_adapter@D@__crt_stdio_output@@@2@@__crt_stdio_output@@AAE_ND@Z 10080f05 f i libucrt:output.obj
 0001:0007ff61       ?state_case_precision@?$output_processor@DV?$string_output_adapter@D@__crt_stdio_output@@V?$standard_base@DV?$string_output_adapter@D@__crt_stdio_output@@@2@@__crt_stdio_output@@AAE_NXZ 10080f61 f i libucrt:output.obj
 0001:0007ff61       ?state_case_precision@?$output_processor@DV?$stream_output_adapter@D@__crt_stdio_output@@V?$standard_base@DV?$stream_output_adapter@D@__crt_stdio_output@@@2@@__crt_stdio_output@@AAE_NXZ 10080f61 f i libucrt:output.obj
 0001:0007ff61       ?state_case_precision@?$output_processor@DV?$string_output_adapter@D@__crt_stdio_output@@V?$format_validation_base@DV?$string_output_adapter@D@__crt_stdio_output@@@2@@__crt_stdio_output@@AAE_NXZ 10080f61 f i libucrt:output.obj
 0001:0007ff89       ?state_case_size@?$output_processor@DV?$stream_output_adapter@D@__crt_stdio_output@@V?$standard_base@DV?$stream_output_adapter@D@__crt_stdio_output@@@2@@__crt_stdio_output@@AAE_NXZ 10080f89 f i libucrt:output.obj
 0001:000800fa       ?state_case_size@?$output_processor@DV?$string_output_adapter@D@__crt_stdio_output@@V?$format_validation_base@DV?$string_output_adapter@D@__crt_stdio_output@@@2@@__crt_stdio_output@@AAE_NXZ 100810fa f i libucrt:output.obj
 0001:000800fa       ?state_case_size@?$output_processor@DV?$string_output_adapter@D@__crt_stdio_output@@V?$standard_base@DV?$string_output_adapter@D@__crt_stdio_output@@@2@@__crt_stdio_output@@AAE_NXZ 100810fa f i libucrt:output.obj
 0001:0008026b       ?state_case_type@?$output_processor@DV?$stream_output_adapter@D@__crt_stdio_output@@V?$standard_base@DV?$stream_output_adapter@D@__crt_stdio_output@@@2@@__crt_stdio_output@@AAE_NXZ 1008126b f i libucrt:output.obj
 0001:00080493       ?state_case_type@?$output_processor@DV?$string_output_adapter@D@__crt_stdio_output@@V?$format_validation_base@DV?$string_output_adapter@D@__crt_stdio_output@@@2@@__crt_stdio_output@@AAE_NXZ 10081493 f i libucrt:output.obj
 0001:00080493       ?state_case_type@?$output_processor@DV?$string_output_adapter@D@__crt_stdio_output@@V?$standard_base@DV?$string_output_adapter@D@__crt_stdio_output@@@2@@__crt_stdio_output@@AAE_NXZ 10081493 f i libucrt:output.obj
 0001:000806bb       ?state_case_width@?$output_processor@DV?$string_output_adapter@D@__crt_stdio_output@@V?$standard_base@DV?$string_output_adapter@D@__crt_stdio_output@@@2@@__crt_stdio_output@@AAE_NXZ 100816bb f i libucrt:output.obj
 0001:000806bb       ?state_case_width@?$output_processor@DV?$string_output_adapter@D@__crt_stdio_output@@V?$format_validation_base@DV?$string_output_adapter@D@__crt_stdio_output@@@2@@__crt_stdio_output@@AAE_NXZ 100816bb f i libucrt:output.obj
 0001:000806bb       ?state_case_width@?$output_processor@DV?$stream_output_adapter@D@__crt_stdio_output@@V?$standard_base@DV?$stream_output_adapter@D@__crt_stdio_output@@@2@@__crt_stdio_output@@AAE_NXZ 100816bb f i libucrt:output.obj
 0001:000806e8       ?to_integer_size@__crt_stdio_output@@YAIW4length_modifier@1@@Z 100816e8 f i libucrt:output.obj
 0001:00080744       ?type_case_Z@?$output_processor@DV?$string_output_adapter@D@__crt_stdio_output@@V?$standard_base@DV?$string_output_adapter@D@__crt_stdio_output@@@2@@__crt_stdio_output@@AAE_NXZ 10081744 f i libucrt:output.obj
 0001:00080744       ?type_case_Z@?$output_processor@DV?$string_output_adapter@D@__crt_stdio_output@@V?$format_validation_base@DV?$string_output_adapter@D@__crt_stdio_output@@@2@@__crt_stdio_output@@AAE_NXZ 10081744 f i libucrt:output.obj
 0001:00080744       ?type_case_Z@?$output_processor@DV?$stream_output_adapter@D@__crt_stdio_output@@V?$standard_base@DV?$stream_output_adapter@D@__crt_stdio_output@@@2@@__crt_stdio_output@@AAE_NXZ 10081744 f i libucrt:output.obj
 0001:000807a7       ?type_case_a@?$output_processor@DV?$string_output_adapter@D@__crt_stdio_output@@V?$format_validation_base@DV?$string_output_adapter@D@__crt_stdio_output@@@2@@__crt_stdio_output@@AAE_NXZ 100817a7 f i libucrt:output.obj
 0001:000807a7       ?type_case_a@?$output_processor@DV?$stream_output_adapter@D@__crt_stdio_output@@V?$standard_base@DV?$stream_output_adapter@D@__crt_stdio_output@@@2@@__crt_stdio_output@@AAE_NXZ 100817a7 f i libucrt:output.obj
 0001:000807a7       ?type_case_a@?$output_processor@DV?$string_output_adapter@D@__crt_stdio_output@@V?$standard_base@DV?$string_output_adapter@D@__crt_stdio_output@@@2@@__crt_stdio_output@@AAE_NXZ 100817a7 f i libucrt:output.obj
 0001:00080905       ?type_case_c_tchar@?$output_processor@DV?$string_output_adapter@D@__crt_stdio_output@@V?$standard_base@DV?$string_output_adapter@D@__crt_stdio_output@@@2@@__crt_stdio_output@@AAE_ND@Z 10081905 f i libucrt:output.obj
 0001:00080905       ?type_case_c_tchar@?$output_processor@DV?$stream_output_adapter@D@__crt_stdio_output@@V?$standard_base@DV?$stream_output_adapter@D@__crt_stdio_output@@@2@@__crt_stdio_output@@AAE_ND@Z 10081905 f i libucrt:output.obj
 0001:00080905       ?type_case_c_tchar@?$output_processor@DV?$string_output_adapter@D@__crt_stdio_output@@V?$format_validation_base@DV?$string_output_adapter@D@__crt_stdio_output@@@2@@__crt_stdio_output@@AAE_ND@Z 10081905 f i libucrt:output.obj
 0001:00080995       ?type_case_integer@?$output_processor@DV?$string_output_adapter@D@__crt_stdio_output@@V?$standard_base@DV?$string_output_adapter@D@__crt_stdio_output@@@2@@__crt_stdio_output@@AAE_NI_N@Z 10081995 f i libucrt:output.obj
 0001:00080995       ?type_case_integer@?$output_processor@DV?$string_output_adapter@D@__crt_stdio_output@@V?$format_validation_base@DV?$string_output_adapter@D@__crt_stdio_output@@@2@@__crt_stdio_output@@AAE_NI_N@Z 10081995 f i libucrt:output.obj
 0001:00080995       ?type_case_integer@?$output_processor@DV?$stream_output_adapter@D@__crt_stdio_output@@V?$standard_base@DV?$stream_output_adapter@D@__crt_stdio_output@@@2@@__crt_stdio_output@@AAE_NI_N@Z 10081995 f i libucrt:output.obj
 0001:00080ae6       ?type_case_n@?$output_processor@DV?$stream_output_adapter@D@__crt_stdio_output@@V?$standard_base@DV?$stream_output_adapter@D@__crt_stdio_output@@@2@@__crt_stdio_output@@AAE_NXZ 10081ae6 f i libucrt:output.obj
 0001:00080ae6       ?type_case_n@?$output_processor@DV?$string_output_adapter@D@__crt_stdio_output@@V?$standard_base@DV?$string_output_adapter@D@__crt_stdio_output@@@2@@__crt_stdio_output@@AAE_NXZ 10081ae6 f i libucrt:output.obj
 0001:00080ae6       ?type_case_n@?$output_processor@DV?$string_output_adapter@D@__crt_stdio_output@@V?$format_validation_base@DV?$string_output_adapter@D@__crt_stdio_output@@@2@@__crt_stdio_output@@AAE_NXZ 10081ae6 f i libucrt:output.obj
 0001:00080b5a       ?type_case_o@?$output_processor@DV?$stream_output_adapter@D@__crt_stdio_output@@V?$standard_base@DV?$stream_output_adapter@D@__crt_stdio_output@@@2@@__crt_stdio_output@@AAE_NXZ 10081b5a f i libucrt:output.obj
 0001:00080b5a       ?type_case_o@?$output_processor@DV?$string_output_adapter@D@__crt_stdio_output@@V?$standard_base@DV?$string_output_adapter@D@__crt_stdio_output@@@2@@__crt_stdio_output@@AAE_NXZ 10081b5a f i libucrt:output.obj
 0001:00080b5a       ?type_case_o@?$output_processor@DV?$string_output_adapter@D@__crt_stdio_output@@V?$format_validation_base@DV?$string_output_adapter@D@__crt_stdio_output@@@2@@__crt_stdio_output@@AAE_NXZ 10081b5a f i libucrt:output.obj
 0001:00080b79       ?type_case_p@?$output_processor@DV?$stream_output_adapter@D@__crt_stdio_output@@V?$standard_base@DV?$stream_output_adapter@D@__crt_stdio_output@@@2@@__crt_stdio_output@@AAE_NXZ 10081b79 f i libucrt:output.obj
 0001:00080b79       ?type_case_p@?$output_processor@DV?$string_output_adapter@D@__crt_stdio_output@@V?$format_validation_base@DV?$string_output_adapter@D@__crt_stdio_output@@@2@@__crt_stdio_output@@AAE_NXZ 10081b79 f i libucrt:output.obj
 0001:00080b79       ?type_case_p@?$output_processor@DV?$string_output_adapter@D@__crt_stdio_output@@V?$standard_base@DV?$string_output_adapter@D@__crt_stdio_output@@@2@@__crt_stdio_output@@AAE_NXZ 10081b79 f i libucrt:output.obj
 0001:00080b91       ?type_case_s@?$output_processor@DV?$stream_output_adapter@D@__crt_stdio_output@@V?$standard_base@DV?$stream_output_adapter@D@__crt_stdio_output@@@2@@__crt_stdio_output@@AAE_NXZ 10081b91 f i libucrt:output.obj
 0001:00080b91       ?type_case_s@?$output_processor@DV?$string_output_adapter@D@__crt_stdio_output@@V?$standard_base@DV?$string_output_adapter@D@__crt_stdio_output@@@2@@__crt_stdio_output@@AAE_NXZ 10081b91 f i libucrt:output.obj
 0001:00080b91       ?type_case_s@?$output_processor@DV?$string_output_adapter@D@__crt_stdio_output@@V?$format_validation_base@DV?$string_output_adapter@D@__crt_stdio_output@@@2@@__crt_stdio_output@@AAE_NXZ 10081b91 f i libucrt:output.obj
 0001:00080c04       ?validate@?$stream_output_adapter@D@__crt_stdio_output@@QBE_NXZ 10081c04 f i libucrt:output.obj
 0001:00080c25       ?validate@?$string_output_adapter@D@__crt_stdio_output@@QBE_NXZ 10081c25 f i libucrt:output.obj
 0001:00080c25       ?validate@?$c_string_character_source@D@__crt_strtox@@QBE_NXZ 10081c25 f i libucrt:atof.obj
 0001:00080c25       ?validate@?$c_string_character_source@_W@__crt_strtox@@QBE_NXZ 10081c25 f i libucrt:atof.obj
 0001:00080c40       ?validate_and_update_state_at_end_of_format_string@?$format_validation_base@DV?$string_output_adapter@D@__crt_stdio_output@@@__crt_stdio_output@@IBE_NXZ 10081c40 f i libucrt:output.obj
 0001:00080c62       ?write_character@?$string_output_adapter@D@__crt_stdio_output@@QBE_NDQAH@Z 10081c62 f i libucrt:output.obj
 0001:00080ca4       ?write_character_without_count_update@?$stream_output_adapter@D@__crt_stdio_output@@QBE_ND@Z 10081ca4 f i libucrt:output.obj
 0001:00080cd9       ?write_stored_string_tchar@?$output_processor@DV?$stream_output_adapter@D@__crt_stdio_output@@V?$standard_base@DV?$stream_output_adapter@D@__crt_stdio_output@@@2@@__crt_stdio_output@@AAE_ND@Z 10081cd9 f i libucrt:output.obj
 0001:00080d82       ?write_stored_string_tchar@?$output_processor@DV?$string_output_adapter@D@__crt_stdio_output@@V?$standard_base@DV?$string_output_adapter@D@__crt_stdio_output@@@2@@__crt_stdio_output@@AAE_ND@Z 10081d82 f i libucrt:output.obj
 0001:00080d82       ?write_stored_string_tchar@?$output_processor@DV?$string_output_adapter@D@__crt_stdio_output@@V?$format_validation_base@DV?$string_output_adapter@D@__crt_stdio_output@@@2@@__crt_stdio_output@@AAE_ND@Z 10081d82 f i libucrt:output.obj
 0001:00080e2b       ?write_string@?$stream_output_adapter@D@__crt_stdio_output@@QBEXQBDHQAHAAV__crt_deferred_errno_cache@@@Z 10081e2b f i libucrt:output.obj
 0001:00080e56       ?write_string@?$string_output_adapter@D@__crt_stdio_output@@QBEXQBDHQAHAAV__crt_deferred_errno_cache@@@Z 10081e56 f i libucrt:output.obj
 0001:00080ebd       ?write_string_impl@?$output_adapter_common@DV?$stream_output_adapter@D@__crt_stdio_output@@@__crt_stdio_output@@IBEXQBDHQAHAAV__crt_deferred_errno_cache@@@Z 10081ebd f i libucrt:output.obj
 0001:00080f5d       ___stdio_common_vfprintf   10081f5d f   libucrt:output.obj
 0001:00080fe2       ___stdio_common_vsnprintf_s 10081fe2 f   libucrt:output.obj
 0001:00081009       ___stdio_common_vsprintf   10082009 f   libucrt:output.obj
 0001:0008102d       ___stdio_common_vsprintf_s 1008202d f   libucrt:output.obj
 0001:000810b7       ??$parse_floating_point@V?$c_string_character_source@D@__crt_strtox@@N@__crt_strtox@@YA?AW4SLD_STATUS@@QAU__crt_locale_pointers@@V?$c_string_character_source@D@0@QAN@Z 100820b7 f i libucrt:atof.obj
 0001:0008112d       ??$parse_floating_point_from_source@V?$c_string_character_source@D@__crt_strtox@@@__crt_strtox@@YA?AW4floating_point_parse_result@0@QAU__crt_locale_pointers@@AAV?$c_string_character_source@D@0@AAUfloating_point_string@0@@Z 1008212d f i libucrt:atof.obj
 0001:00081505       ??$parse_floating_point_possible_infinity@DV?$c_string_character_source@D@__crt_strtox@@PBD@__crt_strtox@@YA?AW4floating_point_parse_result@0@AADAAV?$c_string_character_source@D@0@PBD@Z 10082505 f i libucrt:atof.obj
 0001:000815a7       ??$parse_floating_point_possible_nan@DV?$c_string_character_source@D@__crt_strtox@@PBD@__crt_strtox@@YA?AW4floating_point_parse_result@0@AADAAV?$c_string_character_source@D@0@PBD@Z 100825a7 f i libucrt:atof.obj
 0001:000816c2       ??$parse_floating_point_possible_nan_is_ind@DV?$c_string_character_source@D@__crt_strtox@@@__crt_strtox@@YA_NAADAAV?$c_string_character_source@D@0@@Z 100826c2 f i libucrt:atof.obj
 0001:000816fe       ??$parse_floating_point_possible_nan_is_snan@DV?$c_string_character_source@D@__crt_strtox@@@__crt_strtox@@YA_NAADAAV?$c_string_character_source@D@0@@Z 100826fe f i libucrt:atof.obj
 0001:00081760       ?unget@?$c_string_character_source@D@__crt_strtox@@QAEXD@Z 10082760 f i libucrt:atof.obj
 0001:00081788       ?unget@?$c_string_character_source@_W@__crt_strtox@@QAEX_W@Z 10082788 f i libucrt:atof.obj
 0001:000817b4       _atof                      100827b4 f   libucrt:atof.obj
 0001:000817c7       ??$is_overflow_condition@K@__crt_strtox@@YA_NIK@Z 100827c7 f i libucrt:atox.obj
 0001:000817f8       ??$parse_integer@KV?$c_string_character_source@D@__crt_strtox@@@__crt_strtox@@YAKQAU__crt_locale_pointers@@V?$c_string_character_source@D@0@H_N@Z 100827f8 f i libucrt:atox.obj
 0001:00081a21       ??$parse_integer@KV?$c_string_character_source@_W@__crt_strtox@@@__crt_strtox@@YAKQAU__crt_locale_pointers@@V?$c_string_character_source@_W@0@H_N@Z 10082a21 f i libucrt:atox.obj
 0001:00082102       ??$parse_integer@_KV?$c_string_character_source@D@__crt_strtox@@@__crt_strtox@@YA_KQAU__crt_locale_pointers@@V?$c_string_character_source@D@0@H_N@Z 10083102 f i libucrt:atox.obj
 0001:000823a8       __wtol                     100833a8 f   libucrt:atox.obj
 0001:000823cd       _atoi                      100833cd f   libucrt:atox.obj
 0001:000823cd       _atol                      100833cd f   libucrt:atox.obj
 0001:000824a4       _puts                      100834a4 f   libucrt:puts.obj
 0001:000825a0       __libm_sse2_cos_precise    100835a0 f   libucrt:cos_sse2_precise.obj
 0001:00082760       __libm_sse2_exp_precise    10083760 f   libucrt:exp_sse2_precise.obj
 0001:00082a40       __libm_sse2_sin_precise    10083a40 f   libucrt:sin_sse2_precise.obj
 0001:00082c10       _ceil                      10083c10 f   libucrt:ceil_pentium4.obj
 0001:00082c50       __ceil_pentium4            10083c50 f   libucrt:ceil_pentium4.obj
 0001:00082d30       _floor                     10083d30 f   libucrt:floor_pentium4.obj
 0001:00082d70       __floor_pentium4           10083d70 f   libucrt:floor_pentium4.obj
 0001:00082e2d       __towlower_l               10083e2d f   libucrt:towlower.obj
 0001:00082ef6       _towlower                  10083ef6 f   libucrt:towlower.obj
 0001:0008306f       __tolower_l                1008406f f   libucrt:tolower_toupper.obj
 0001:00083089       _tolower                   10084089 f   libucrt:tolower_toupper.obj
 0001:000830b9       ___acrt_errno_from_os_error 100840b9 f   libucrt:errno.obj
 0001:000830fc       ___acrt_errno_map_os_error 100840fc f   libucrt:errno.obj
 0001:0008311f       ___doserrno                1008411f f   libucrt:errno.obj
 0001:00083132       __errno                    10084132 f   libucrt:errno.obj
 0001:00083145       ??$make_c_string_character_source@DPAPAD@__crt_strtox@@YA?AV?$c_string_character_source@D@0@QBDQAPAD@Z 10084145 f i libucrt:strtox.obj
 0001:00083160       _strtol                    10084160 f   libucrt:strtox.obj
 0001:0008318c       _strtoul                   1008418c f   libucrt:strtox.obj
 0001:000831b8       _strtoull                  100841b8 f   libucrt:strtox.obj
 0001:0008325c       __fdtest                   1008425c f   libucrt:_test.obj
 0001:000832aa       __fperrraise               100842aa f   libucrt:_test.obj
 0001:000832cd       __fclose_nolock            100842cd f   libucrt:fclose.obj
 0001:00083343       _fclose                    10084343 f   libucrt:fclose.obj
 0001:00083515       __wfopen                   10084515 f   libucrt:fopen.obj
 0001:0008352c       _fopen                     1008452c f   libucrt:fopen.obj
 0001:00083543       __fread_nolock_s           10084543 f   libucrt:fread.obj
 0001:0008371c       _fread                     1008471c f   libucrt:fread.obj
 0001:00083739       _fread_s                   10084739 f   libucrt:fread.obj
 0001:000837cc       ?LongLongSub@@YAJ_J0PA_J@Z 100847cc f i libucrt:fseek.obj
 0001:00083a80       __fseeki64                 10084a80 f   libucrt:fseek.obj
 0001:00083a9b       _fseek                     10084a9b f   libucrt:fseek.obj
 0001:0008411e       __ftelli64                 1008511e f   libucrt:ftell.obj
 0001:00084129       __ftelli64_nolock          10085129 f   libucrt:ftell.obj
 0001:00084134       _ftell                     10085134 f   libucrt:ftell.obj
 0001:0008413f       ??$__crt_time_is_leap_year@H@@YA_NH@Z 1008513f f i libucrt:asctime.obj
 0001:0008432c       ?__crt_time_is_day_valid@@YA_NHHH@Z 1008532c f i libucrt:asctime.obj
 0001:00084373       _asctime                   10085373 f   libucrt:asctime.obj
 0001:00084650       __localtime64              10085650 f   libucrt:localtime.obj
 0001:000846fb       __time64                   100856fb f   libucrt:time.obj
 0001:00084740       __CIatan2                  10085740 f   libucrt:87ctriga.obj
 0001:00084750       _strncpy                   10085750 f   libucrt:strncpy.obj
 0001:00084874       ___acrt_initialize_stdio   10085874 f   libucrt:_file.obj
 0001:0008493c       ___acrt_iob_func           1008593c f   libucrt:_file.obj
 0001:0008494c       ___acrt_uninitialize_stdio 1008594c f   libucrt:_file.obj
 0001:00084998       __get_stream_buffer_pointers 10085998 f   libucrt:_file.obj
 0001:000849de       __lock_file                100859de f   libucrt:_file.obj
 0001:000849f2       __unlock_file              100859f2 f   libucrt:_file.obj
 0001:00084c23       ___acrt_stdio_flush_nolock 10085c23 f   libucrt:fflush.obj
 0001:00084c86       __fflush_nolock            10085c86 f   libucrt:fflush.obj
 0001:00084ccd       __flushall                 10085ccd f   libucrt:fflush.obj
 0001:00084cd6       _fflush                    10085cd6 f   libucrt:fflush.obj
 0001:00084d2a       __isdigit_l                10085d2a f i libucrt:_ctype.obj
 0001:00084d62       __islower_l                10085d62 f i libucrt:_ctype.obj
 0001:00084d9a       __isprint_l                10085d9a f i libucrt:_ctype.obj
 0001:00084dd5       __isspace_l                10085dd5 f i libucrt:_ctype.obj
 0001:00084e0d       __isupper_l                10085e0d f i libucrt:_ctype.obj
 0001:00084e45       _isdigit                   10085e45 f i libucrt:_ctype.obj
 0001:00084e72       _islower                   10085e72 f i libucrt:_ctype.obj
 0001:00084e9f       _isprint                   10085e9f f i libucrt:_ctype.obj
 0001:00084ece       _isspace                   10085ece f i libucrt:_ctype.obj
 0001:00084efb       _isupper                   10085efb f i libucrt:_ctype.obj
 0001:00084f28       _free                      10085f28 f   libucrt:free.obj
 0001:00084f90       _qsort                     10085f90 f   libucrt:qsort.obj
 0001:000853e0       __CIfmod                   100863e0 f   libucrt:87fmod_impl.obj
 0001:000853f8       __dlog                     100863f8 f   libucrt:log2d.obj
 0001:00085540       _log2                      10086540 f   libucrt:log2d.obj
 0001:00085560       __libm_sse2_acos_precise   10086560 f   libucrt:acos_sse2_precise.obj
 0001:00085a80       __libm_sse2_asin_precise   10086a80 f   libucrt:asin_sse2_precise.obj
 0001:00085fd0       __libm_sse2_atan_precise   10086fd0 f   libucrt:atan_sse2_precise.obj
 0001:000862bc       _copysign                  100872bc f   libucrt:copysign.obj
 0001:00086562       _hypot                     10087562 f   libucrt:hypot.obj
 0001:00086583       ___ascii_stricmp           10087583 f   libucrt:stricmp.obj
 0001:000865be       __stricmp                  100875be f   libucrt:stricmp.obj
 0001:00086607       __stricmp_l                10087607 f   libucrt:stricmp.obj
 0001:00086820       __mbstowcs_s_l             10087820 f   libucrt:mbstowcs.obj
 0001:00086902       _mbstowcs_s                10087902 f   libucrt:mbstowcs.obj
 0001:00086922       __fgetc_nolock             10087922 f   libucrt:fgetc.obj
 0001:0008695e       _fgetc                     1008795e f   libucrt:fgetc.obj
 0001:00086a59       _fgetpos                   10087a59 f   libucrt:fgetpos.obj
 0001:00086ab4       __fputc_nolock             10087ab4 f   libucrt:fputc.obj
 0001:00086add       _fputc                     10087add f   libucrt:fputc.obj
 0001:00086bda       _fsetpos                   10087bda f   libucrt:fsetpos.obj
 0001:00086cab       __fwrite_nolock            10087cab f   libucrt:fwrite.obj
 0001:00086e26       _fwrite                    10087e26 f   libucrt:fwrite.obj
 0001:00086fa9       _setvbuf                   10087fa9 f   libucrt:setvbuf.obj
 0001:0008702d       __ungetc_nolock            1008802d f   libucrt:ungetc.obj
 0001:0008711c       _ungetc                    1008811c f   libucrt:ungetc.obj
 0001:00087185       _terminate                 10088185 f   libucrt:terminate.obj
 0001:000871c1       ___acrt_initialize_new_handler 100881c1 f   libucrt:new_handler.obj
 0001:000871d0       __callnewh                 100881d0 f   libucrt:new_handler.obj
 0001:00087214       __query_new_handler        10088214 f   libucrt:new_handler.obj
 0001:00087266       __seh_filter_dll           10088266 f   libucrt:exception_filter.obj
 0001:00087286       __seh_filter_exe           10088286 f   libucrt:exception_filter.obj
 0001:00087681       ___acrt_initialize_thread_local_exit_callback 10088681 f   libucrt:exit.obj
 0001:00087690       __cexit                    10088690 f   libucrt:exit.obj
 0001:0008769f       __exit                     1008869f f   libucrt:exit.obj
 0001:000876b5       __is_c_termination_complete 100886b5 f   libucrt:exit.obj
 0001:00087965       ___acrt_allocate_buffer_for_argv 10088965 f   libucrt:argv_parsing.obj
 0001:000879b4       __configure_narrow_argv    100889b4 f   libucrt:argv_parsing.obj
 0001:00087bbd       ??$uninitialize@A6AXAAPAPA_W@Z@?$dual_state_global@PAPA_W@__crt_state_management@@QAEXA6AXAAPAPA_W@Z@Z 10088bbd f i libucrt:environment_initialization.obj
 0001:00087bbd       ??$uninitialize@A6AXAAPAPAD@Z@?$dual_state_global@PAPAD@__crt_state_management@@QAEXA6AXAAPAPAD@Z@Z 10088bbd f i libucrt:environment_initialization.obj
 0001:00087c33       ___dcrt_get_or_create_narrow_environment_nolock 10088c33 f   libucrt:environment_initialization.obj
 0001:00087c38       ___dcrt_uninitialize_environments_nolock 10088c38 f   libucrt:environment_initialization.obj
 0001:00087c6f       __initialize_narrow_environment 10088c6f f   libucrt:environment_initialization.obj
 0001:00087d16       ??$__crt_fast_encode_pointer@P6GHPA_WKJ@Z@@YAP6GHPA_WKJ@ZQ6GH0KJ@Z@Z 10088d16 f i libucrt:winapi_thunks.obj
 0001:00087d16       ??$__crt_fast_encode_pointer@P6AHXZ@@YAP6AHXZQ6AHXZ@Z 10088d16 f i libucrt:onexit.obj
 0001:00087f9a       __crt_atexit               10088f9a f   libucrt:onexit.obj
 0001:00087fb0       __execute_onexit_table     10088fb0 f   libucrt:onexit.obj
 0001:00087fdf       __initialize_onexit_table  10088fdf f   libucrt:onexit.obj
 0001:0008801c       __register_onexit_function 1008901c f   libucrt:onexit.obj
 0001:0008815d       ___acrt_initialize         1008915d f   libucrt:initialization.obj
 0001:0008816f       ___acrt_thread_attach      1008916f f   libucrt:initialization.obj
 0001:0008817a       ___acrt_thread_detach      1008917a f   libucrt:initialization.obj
 0001:00088182       ___acrt_uninitialize       10089182 f   libucrt:initialization.obj
 0001:000881b2       ___acrt_uninitialize_critical 100891b2 f   libucrt:initialization.obj
 0001:000881c4       __errcode                  100891c4 f   libucrt:fpexcept.obj
 0001:000881f8       __except1                  100891f8 f   libucrt:fpexcept.obj
 0001:000882c6       __except2                  100892c6 f   libucrt:fpexcept.obj
 0001:000883a8       __handle_exc               100893a8 f   libucrt:fpexcept.obj
 0001:00088595       __handle_qnan2             10089595 f   libucrt:fpexcept.obj
 0001:000885a2       __raise_exc                100895a2 f   libucrt:fpexcept.obj
 0001:000885c5       __raise_exc_ex             100895c5 f   libucrt:fpexcept.obj
 0001:000888b6       __set_errno_from_matherr   100898b6 f   libucrt:fpexcept.obj
 0001:000888e5       __umatherr                 100898e5 f   libucrt:fpexcept.obj
 0001:00088987       __initterm                 10089987 f   libucrt:initterm.obj
 0001:000889e3       __initterm_e               100899e3 f   libucrt:initterm.obj
 0001:00088a28       _rand_s                    10089a28 f   libucrt:rand_s.obj
 0001:00088a70       ___acrt_initialize_locks   10089a70 f   libucrt:locks.obj
 0001:00088ab1       ___acrt_lock               10089ab1 f   libucrt:locks.obj
 0001:00088ac8       ___acrt_uninitialize_locks 10089ac8 f   libucrt:locks.obj
 0001:00088af9       ___acrt_unlock             10089af9 f   libucrt:locks.obj
 0001:00088b10       __lock_locales             10089b10 f   libucrt:locks.obj
 0001:00088b1e       __unlock_locales           10089b1e f   libucrt:locks.obj
 0001:00088b27       __calloc_base              10089b27 f   libucrt:calloc_base.obj
 0001:00088b84       ___pctype_func             10089b84 f   libucrt:ctype.obj
 0001:00088baa       __wcsdup                   10089baa f   libucrt:wcsdup.obj
 0001:00088c0b       ____lc_codepage_func       10089c0b f   libucrt:initctype.obj
 0001:00088c32       ____lc_locale_name_func    10089c32 f   libucrt:initctype.obj
 0001:00088c5d       ___acrt_locale_initialize_ctype 10089c5d f   libucrt:initctype.obj
 0001:0008927e       _setlocale                 1008a27e f   libucrt:setlocale.obj
 0001:000892b8       ___strncnt                 1008a2b8 f   libucrt:strncnt.obj
 0001:000892d4       __free_base                1008a2d4 f   libucrt:free_base.obj
 0001:0008930e       __malloc_base              1008a30e f   libucrt:malloc_base.obj
 0001:0008935c       _abort                     1008a35c f   libucrt:abort.obj
 0001:000893a0       __realloc_base             1008a3a0 f   libucrt:realloc_base.obj
 0001:00089410       _strcspn                   1008a410 f   libucrt:strcspn.obj
 0001:00089460       __CIpow                    1008a460 f   libucrt:pow_impl.obj
 0001:0008949b       __CIpow_default            1008a49b f   libucrt:pow_impl.obj
 0001:000894b4       __pow_default              1008a4b4     libucrt:pow_impl.obj
 0001:000896a9       _wcscpy_s                  1008a6a9 f   libucrt:wcscpy_s.obj
 0001:0008970d       _strnlen                   1008a70d f   libucrt:strnlen.obj
 0001:0008982f       _wcsnlen                   1008a82f f   libucrt:strnlen.obj
 0001:00089a33       __ismbblead                1008aa33 f   libucrt:ismbbyte.obj
 0001:00089a4b       _strcpy_s                  1008aa4b f   libucrt:strcpy_s.obj
 0001:00089aa5       _wcsncmp                   1008aaa5 f   libucrt:wcsncmp.obj
 0001:00089ae0       _strncmp                   1008aae0 f   libucrt:strncmp.obj
 0001:00089b58       _iswctype                  1008ab58 f   libucrt:iswctype.obj
 0001:00089bc3       __isctype_l                1008abc3 f   libucrt:isctype.obj
 0001:00089c95       __mbtowc_l                 1008ac95 f   libucrt:mbtowc.obj
 0001:00089d93       _mbtowc                    1008ad93 f   libucrt:mbtowc.obj
 0001:00089dad       __wctomb_s_l               1008adad f   libucrt:wctomb.obj
 0001:00089ed0       _wctomb_s                  1008aed0 f   libucrt:wctomb.obj
 0001:0008a207       ___acrt_freeptd            1008b207 f   libucrt:per_thread_data.obj
 0001:0008a233       ___acrt_getptd             1008b233 f   libucrt:per_thread_data.obj
 0001:0008a2e7       ___acrt_getptd_head        1008b2e7 f   libucrt:per_thread_data.obj
 0001:0008a381       ___acrt_getptd_noexit      1008b381 f   libucrt:per_thread_data.obj
 0001:0008a434       ___acrt_initialize_ptd     1008b434 f   libucrt:per_thread_data.obj
 0001:0008a460       ___acrt_uninitialize_ptd   1008b460 f   libucrt:per_thread_data.obj
 0001:0008a47a       ___acrt_update_locale_info 1008b47a f   libucrt:locale_update.obj
 0001:0008a4a7       ___acrt_update_multibyte_info 1008b4a7 f   libucrt:locale_update.obj
 0001:0008a4d4       __fileno                   1008b4d4 f   libucrt:fileno.obj
 0001:0008a4fa       _fegetround                1008b4fa f   libucrt:fegetround.obj
 0001:0008a753       ___acrt_copy_locale_name   1008b753 f   libucrt:wsetlocale.obj
 0001:0008a7b9       ___acrt_set_locale_changed 1008b7b9 f   libucrt:wsetlocale.obj
 0001:0008a7c4       ___acrt_uninitialize_locale 1008b7c4 f   libucrt:wsetlocale.obj
 0001:0008a7ed       ___lc_lctowcs              1008b7ed f   libucrt:wsetlocale.obj
 0001:0008a85d       ___lc_wcstolc              1008b85d f   libucrt:wsetlocale.obj
 0001:0008a9bb       __expandlocale             1008b9bb f   libucrt:wsetlocale.obj
 0001:0008ad32       __wcscats                  1008bd32 f   libucrt:wsetlocale.obj
 0001:0008ad73       __wsetlocale               1008bd73 f   libucrt:wsetlocale.obj
 0001:0008b7ae       ___acrt_initialize_lowio   1008c7ae f   libucrt:ioinit.obj
 0001:0008b804       ___acrt_uninitialize_lowio 1008c804 f   libucrt:ioinit.obj
 0001:0008b830       ___libm_error_support      1008c830 f   libucrt:libm_error.obj
 0001:0008ba50       _sqrt                      1008ca50 f   libucrt:sqrt.obj
 0001:0008ba5e       ?__acrt_fp_classify@@YA?AW4__acrt_fp_class@@ABN@Z 1008ca5e f i libucrt:cvt.obj
 0001:0008c324       ___acrt_fp_format          1008d324 f   libucrt:cvt.obj
 0001:0008c45d       __get_printf_count_output  1008d45d f   libucrt:printf_count_output.obj
 0001:0008c472       ___acrt_stdio_begin_temporary_buffering_nolock 1008d472 f   libucrt:_sftbuf.obj
 0001:0008c527       ___acrt_stdio_end_temporary_buffering_nolock 1008d527 f   libucrt:_sftbuf.obj
 0001:0008c560       __CIcos                    1008d560 f   libucrt:cos_impl.obj
 0001:0008c59b       __CIcos_default            1008d59b f   libucrt:cos_impl.obj
 0001:0008c5af       __cos_default              1008d5af     libucrt:cos_impl.obj
 0001:0008c650       __CIexp                    1008d650 f   libucrt:87ctran.obj
 0001:0008c68b       __exp_default              1008d68b f   libucrt:87ctran.obj
 0001:0008c695       __CIexp_default            1008d695 f   libucrt:87ctran.obj
 0001:0008c6a0       __CIsin                    1008d6a0 f   libucrt:sin_impl.obj
 0001:0008c6db       __CIsin_default            1008d6db f   libucrt:sin_impl.obj
 0001:0008c6ef       __sin_default              1008d6ef     libucrt:sin_impl.obj
 0001:0008c782       ___acrt_initialize_sse2    1008d782 f   libucrt:mathfcns.obj
 0001:0008c792       __ceil_default             1008d792 f   libucrt:ceil.obj
 0001:0008c84b       __floor_default            1008d84b f   libucrt:floor.obj
 0001:0008c904       ___acrt_LCMapStringW       1008d904 f   libucrt:lcmapstringw.obj
 0001:0008c942       __isleadbyte_l             1008d942 f i libucrt:_wctype.obj
 0001:0008cb61       ___acrt_LCMapStringA       1008db61 f   libucrt:lcmapstringa.obj
 0001:0008cbac       _fegetexceptflag           1008dbac f   libucrt:fegetexceptflag.obj
 0001:0008cbdd       _fesetexceptflag           1008dbdd f   libucrt:fesetexceptflag.obj
 0001:0008cfb6       ___acrt_fenv_get_common_round_control 1008dfb6 f   libucrt:_fenvutils.obj
 0001:0008cfd8       ___acrt_fenv_get_control   1008dfd8 f   libucrt:_fenvutils.obj
 0001:0008d05a       ___acrt_fenv_get_fp_status_word_from_exception_mask 1008e05a f   libucrt:_fenvutils.obj
 0001:0008d074       ___acrt_fenv_get_status    1008e074 f   libucrt:_fenvutils.obj
 0001:0008d137       ___acrt_fenv_set_control   1008e137 f   libucrt:_fenvutils.obj
 0001:0008d1a1       ___acrt_fenv_set_status    1008e1a1 f   libucrt:_fenvutils.obj
 0001:0008d31c       __close                    1008e31c f   libucrt:close.obj
 0001:0008d3ab       __close_nolock             1008e3ab f   libucrt:close.obj
 0001:0008d447       ?__acrt_stdio_allocate_stream@@YA?AV__crt_stdio_stream@@XZ 1008e447 f   libucrt:stream.obj
 0001:0008d4a6       ?__acrt_stdio_free_stream@@YAXV__crt_stdio_stream@@@Z 1008e4a6 f   libucrt:stream.obj
 0001:0008d5a4       ___acrt_stdio_free_buffer_nolock 1008e5a4 f   libucrt:_freebuf.obj
 0001:0008d5e2       ??$__acrt_stdio_parse_mode@D@@YA?AU__acrt_stdio_stream_mode@@QBD@Z 1008e5e2 f i libucrt:openfile.obj
 0001:0008d80f       ??$__acrt_stdio_parse_mode@_W@@YA?AU__acrt_stdio_stream_mode@@QB_W@Z 1008e80f f i libucrt:openfile.obj
 0001:0008db63       ?__acrt_stdio_parse_mode_D@@YA_NAAU__acrt_stdio_stream_mode@@@Z 1008eb63 f i libucrt:openfile.obj
 0001:0008db7e       ?__acrt_stdio_parse_mode_T@@YA_NAAU__acrt_stdio_stream_mode@@@Z 1008eb7e f i libucrt:openfile.obj
 0001:0008db9d       ?__acrt_stdio_parse_mode_b@@YA_NAAU__acrt_stdio_stream_mode@@@Z 1008eb9d f i libucrt:openfile.obj
 0001:0008dbbd       ?__acrt_stdio_parse_mode_c@@YA_NAAU__acrt_stdio_stream_mode@@AA_N@Z 1008ebbd f i libucrt:openfile.obj
 0001:0008dbdf       ?__acrt_stdio_parse_mode_n@@YA_NAAU__acrt_stdio_stream_mode@@AA_N@Z 1008ebdf f i libucrt:openfile.obj
 0001:0008dc01       ?__acrt_stdio_parse_mode_plus@@YA_NAAU__acrt_stdio_stream_mode@@AA_N@Z 1008ec01 f i libucrt:openfile.obj
 0001:0008dc36       ?__acrt_stdio_parse_mode_t@@YA_NAAU__acrt_stdio_stream_mode@@@Z 1008ec36 f i libucrt:openfile.obj
 0001:0008dc56       __openfile                 1008ec56 f   libucrt:openfile.obj
 0001:0008dc61       __wopenfile                1008ec61 f   libucrt:openfile.obj
 0001:0008e12d       __read                     1008f12d f   libucrt:read.obj
 0001:0008e237       __read_nolock              1008f237 f   libucrt:read.obj
 0001:0008e76f       ___acrt_stdio_refill_and_read_narrow_nolock 1008f76f f   libucrt:_filbuf.obj
 0001:0008e8fa       __lseeki64                 1008f8fa f   libucrt:lseek.obj
 0001:0008e915       __lseeki64_nolock          1008f915 f   libucrt:lseek.obj
 0001:0008e930       ___acrt_initialize_timeset 1008f930 f   libucrt:timeset.obj
 0001:0008e95b       ___daylight                1008f95b f   libucrt:timeset.obj
 0001:0008e961       ___dstbias                 1008f961 f   libucrt:timeset.obj
 0001:0008e967       ___timezone                1008f967 f   libucrt:timeset.obj
 0001:0008e96d       ___tzname                  1008f96d f   libucrt:timeset.obj
 0001:0008e973       __get_daylight             1008f973 f   libucrt:timeset.obj
 0001:0008e99f       __get_dstbias              1008f99f f   libucrt:timeset.obj
 0001:0008e9cb       __get_timezone             1008f9cb f   libucrt:timeset.obj
 0001:0008e9f7       ??$__crt_time_elapsed_leap_years@H@@YAHH@Z 1008f9f7 f i libucrt:gmtime.obj
 0001:0008ec19       ___getgmtimebuf            1008fc19 f   libucrt:gmtime.obj
 0001:0008ec57       __gmtime64_s               1008fc57 f   libucrt:gmtime.obj
 0001:0008f3a6       ___tzset                   100903a6 f   libucrt:tzset.obj
 0001:0008f3f7       __isindst                  100903f7 f   libucrt:tzset.obj
 0001:0008f780       ___acrt_AppPolicyGetProcessTerminationMethodInternal@4 10090780 f   libucrt:winapi_thunks.obj
 0001:0008f7d7       ___acrt_AreFileApisANSI@0  100907d7 f   libucrt:winapi_thunks.obj
 0001:0008f811       ___acrt_CompareStringEx@36 10090811 f   libucrt:winapi_thunks.obj
 0001:0008f885       ___acrt_EnumSystemLocalesEx@16 10090885 f   libucrt:winapi_thunks.obj
 0001:0008f8ef       ___acrt_FlsAlloc@4         100908ef f   libucrt:winapi_thunks.obj
 0001:0008f945       ___acrt_FlsFree@4          10090945 f   libucrt:winapi_thunks.obj
 0001:0008f99b       ___acrt_FlsGetValue@4      1009099b f   libucrt:winapi_thunks.obj
 0001:0008f9f1       ___acrt_FlsSetValue@8      100909f1 f   libucrt:winapi_thunks.obj
 0001:0008fa4a       ___acrt_GetLocaleInfoEx@16 10090a4a f   libucrt:winapi_thunks.obj
 0001:0008faa0       ___acrt_GetSystemTimePreciseAsFileTime@4 10090aa0 f   libucrt:winapi_thunks.obj
 0001:0008faf6       ___acrt_GetUserDefaultLocaleName@8 10090af6 f   libucrt:winapi_thunks.obj
 0001:0008fb49       ___acrt_InitializeCriticalSectionEx@12 10090b49 f   libucrt:winapi_thunks.obj
 0001:0008fbab       ___acrt_IsValidLocaleName@4 10090bab f   libucrt:winapi_thunks.obj
 0001:0008fbfa       ___acrt_LCIDToLocaleName@16 10090bfa f   libucrt:winapi_thunks.obj
 0001:0008fc50       ___acrt_LCMapStringEx@36   10090c50 f   libucrt:winapi_thunks.obj
 0001:0008fcc4       ___acrt_LocaleNameToLCID@8 10090cc4 f   libucrt:winapi_thunks.obj
 0001:0008fd0c       ___acrt_RtlGenRandom@8     10090d0c f   libucrt:winapi_thunks.obj
 0001:0008fd63       ___acrt_can_use_vista_locale_apis 10090d63 f   libucrt:winapi_thunks.obj
 0001:0008fd6e       ___acrt_eagerly_load_locale_apis 10090d6e f   libucrt:winapi_thunks.obj
 0001:0008fda5       ___acrt_initialize_winapi_thunks 10090da5 f   libucrt:winapi_thunks.obj
 0001:0008fde1       ___acrt_uninitialize_winapi_thunks 10090de1 f   libucrt:winapi_thunks.obj
 0001:0008fe3c       __fFATN2                   10090e3c     libucrt:87triga.obj
 0001:0008fe8c       __rtpiby2                  10090e8c     libucrt:87triga.obj
 0001:0008fed0       __cintrindisp2             10090ed0 f   libucrt:87cdisp.obj
 0001:0008ff20       __cintrindisp1             10090f20 f   libucrt:87cdisp.obj
 0001:0008ff69       __ctrandisp2               10090f69 f   libucrt:87cdisp.obj
 0001:000900f8       __ctrandisp1               100910f8 f   libucrt:87cdisp.obj
 0001:0009012b       __fload                    1009112b f   libucrt:87cdisp.obj
 0001:00090167       __fcloseall                10091167 f   libucrt:closeall.obj
 0001:0009029f       __commit                   1009129f f   libucrt:commit.obj
 0001:000908bf       __write                    100918bf f   libucrt:write.obj
 0001:000909a7       __write_nolock             100919a7 f   libucrt:write.obj
 0001:00090bc0       __trandisp1                10091bc0 f   libucrt:87disp.obj
 0001:00090c27       __trandisp2                10091c27 f   libucrt:87disp.obj
 0001:00090cb3       __rttospopde               10091cb3     libucrt:87disp.obj
 0001:00090cb8       __rttospop                 10091cb8     libucrt:87disp.obj
 0001:00090cba       __rtnospop                 10091cba     libucrt:87disp.obj
 0001:00090cbc       __rttosnpop                10091cbc     libucrt:87disp.obj
 0001:00090cbd       __rtnospopde               10091cbd     libucrt:87disp.obj
 0001:00090cc4       __rtzeropop                10091cc4     libucrt:87disp.obj
 0001:00090cc6       __rtzeronpop               10091cc6     libucrt:87disp.obj
 0001:00090ccb       __rtzerospop               10091ccb     libucrt:87disp.obj
 0001:00090cd8       __rtonepop                 10091cd8     libucrt:87disp.obj
 0001:00090cda       __rtonenpop                10091cda     libucrt:87disp.obj
 0001:00090cdf       __tosnan1                  10091cdf     libucrt:87disp.obj
 0001:00090d0a       __nosnan2                  10091d0a     libucrt:87disp.obj
 0001:00090d0c       __tosnan2                  10091d0c     libucrt:87disp.obj
 0001:00090d34       __nan2                     10091d34     libucrt:87disp.obj
 0001:00090d73       __rtindfpop                10091d73     libucrt:87disp.obj
 0001:00090d75       __rtindfnpop               10091d75     libucrt:87disp.obj
 0001:00090d86       __rttosnpopde              10091d86     libucrt:87disp.obj
 0001:00090d90       __rtatan2inf               10091d90     libucrt:87disp.obj
 0001:00090dad       __rtchsifneg               10091dad     libucrt:87disp.obj
 0001:00090db4       __dunscale                 10091db4 f   libucrt:_unscale.obj
 0001:00090e50       __CIacos                   10091e50 f   libucrt:acos_impl.obj
 0001:00090e8b       __CIacos_default           10091e8b f   libucrt:acos_impl.obj
 0001:00090e9f       __acos_default             10091e9f     libucrt:acos_impl.obj
 0001:00090f60       __CIasin                   10091f60 f   libucrt:asin_impl.obj
 0001:00090f9b       __CIasin_default           10091f9b f   libucrt:asin_impl.obj
 0001:00090faf       __asin_default             10091faf     libucrt:asin_impl.obj
 0001:00091070       __CIatan                   10092070 f   libucrt:atan_impl.obj
 0001:000910ab       __CIatan_default           100920ab f   libucrt:atan_impl.obj
 0001:000910bf       __atan_default             100920bf     libucrt:atan_impl.obj
 0001:0009114a       __decomp                   1009214a f   libucrt:util.obj
 0001:0009121e       __get_exp                  1009221e f   libucrt:util.obj
 0001:00091236       __set_exp                  10092236 f   libucrt:util.obj
 0001:00091265       __sptype                   10092265 f   libucrt:util.obj
 0001:000912c3       __clrfp                    100922c3 f   libucrt:fpctrl.obj
 0001:000912d6       __ctrlfp                   100922d6 f   libucrt:fpctrl.obj
 0001:00091302       __set_statfp               10092302 f   libucrt:fpctrl.obj
 0001:0009135d       __statfp                   1009235d f   libucrt:fpctrl.obj
 0001:00091370       __CIsqrt                   10092370 f   libucrt:sqrt_impl.obj
 0001:00091384       __sqrt_common              10092384     libucrt:sqrt_impl.obj
 0001:00091421       ___acrt_MultiByteToWideChar 10092421 f   libucrt:multibytetowidechar.obj
 0001:0009161c       ___acrt_stdio_flush_and_write_narrow_nolock 1009261c f   libucrt:_flsbuf.obj
 0001:00091627       ___acrt_stdio_allocate_buffer_nolock 10092627 f   libucrt:_getbuf.obj
 0001:00091684       ___acrt_get_process_end_policy 10092684 f   libucrt:win_policies.obj
 0001:00091b69       ___acrt_expand_narrow_argv_wildcards 10092b69 f   libucrt:argv_wildcards.obj
 0001:00092092       ___acrt_initialize_multibyte 10093092 f   libucrt:mbctype.obj
 0001:000920da       ___acrt_update_thread_multibyte_data 100930da f   libucrt:mbctype.obj
 0001:000920ed       __setmbcp_nolock           100930ed f   libucrt:mbctype.obj
 0001:000922e7       ___acrt_initialize_command_line 100932e7 f   libucrt:argv_data.obj
 0001:00092337       ___dcrt_get_narrow_environment_from_os 10093337 f   libucrt:get_environment_from_os.obj
 0001:00092718       ___dcrt_set_variable_in_narrow_environment_nolock 10093718 f   libucrt:setenv.obj
 0001:00092723       __recalloc                 10093723 f   libucrt:recalloc.obj
 0001:0009272e       __recalloc_base            1009372e f   libucrt:recalloc.obj
 0001:0009279b       ___acrt_initialize_heap    1009379b f   libucrt:heap_handle.obj
 0001:000927ac       ___acrt_uninitialize_heap  100937ac f   libucrt:heap_handle.obj
 0001:000927b6       ___acrt_execute_initializers 100937b6 f   libucrt:shared_initialization.obj
 0001:00092839       ___acrt_execute_uninitializers 10093839 f   libucrt:shared_initialization.obj
 0001:00092945       ___acrt_get_sigabrt_handler 10093945 f   libucrt:signal.obj
 0001:0009296e       ___acrt_initialize_signal_handlers 1009396e f   libucrt:signal.obj
 0001:0009298c       ___fpecode                 1009398c f   libucrt:signal.obj
 0001:00092995       _raise                     10093995 f   libucrt:signal.obj
 0001:00092b8b       ___acrt_has_user_matherr   10093b8b f   libucrt:matherr.obj
 0001:00092ba3       ___acrt_initialize_user_matherr 10093ba3 f   libucrt:matherr.obj
 0001:00092bb2       ___acrt_invoke_user_matherr 10093bb2 f   libucrt:matherr.obj
 0001:00092bfb       __query_new_mode           10093bfb f   libucrt:new_mode.obj
 0001:00092ce0       ___acrt_GetLocaleInfoA     10093ce0 f   libucrt:getlocaleinfoa.obj
 0001:00092e92       ___acrt_GetStringTypeA     10093e92 f   libucrt:getstringtypea.obj
 0001:0009321f       __wcstombs_s_l             1009421f f   libucrt:wcstombs.obj
 0001:000932ec       __fpclass                  100942ec f   libucrt:ieeemisc.obj
 0001:00093390       __CIpow_pentium4           10094390 f   libucrt:pow_pentium4.obj
 0001:000933a9       __pow_pentium4             100943a9     libucrt:pow_pentium4.obj
 0001:00093ec1       __fFEXP                    10094ec1     libucrt:87tran.obj
 0001:00093f18       __rtinfpopse               10094f18     libucrt:87tran.obj
 0001:00093f1a       __rtinfnpopse              10094f1a     libucrt:87tran.obj
 0001:00093f2a       __fFLN                     10094f2a     libucrt:87tran.obj
 0001:00093fdf       __rtinfpop                 10094fdf     libucrt:87tran.obj
 0001:00093fe1       __rtinfnpop                10094fe1     libucrt:87tran.obj
 0001:00093ffe       __ffexpm1                  10094ffe     libucrt:87tran.obj
 0001:000940b0       __startTwoArgErrorHandling 100950b0 f   libucrt:genexcep.obj
 0001:000940c7       __startOneArgErrorHandling 100950c7 f   libucrt:genexcep.obj
 0001:00094110       __twoToTOS                 10095110 f   libucrt:common.obj
 0001:00094125       __load_CW                  10095125 f   libucrt:common.obj
 0001:0009413c       __convertTOStoQNaN         1009513c f   libucrt:common.obj
 0001:00094155       __fload_withFB             10095155 f   libucrt:common.obj
 0001:00094198       __checkTOS_withFB          10095198 f   libucrt:common.obj
 0001:000941ae       __fast_exit                100951ae f   libucrt:common.obj
 0001:000941bb       __math_exit                100951bb f   libucrt:common.obj
 0001:000941e5       __check_overflow_exit      100951e5 f   libucrt:common.obj
 0001:000941f9       __check_range_exit         100951f9 f   libucrt:common.obj
 0001:0009429c       __d_inttype                1009529c f   libucrt:powhlp.obj
 0001:00094306       __powhlp                   10095306 f   libucrt:powhlp.obj
 0001:00094431       __wcsicmp                  10095431 f   libucrt:wcsicmp.obj
 0001:000944bf       __wcsicmp_l                100954bf f   libucrt:wcsicmp.obj
 0001:0009459c       ___acrt_GetStringTypeW     1009559c f   libucrt:getstringtypew.obj
 0001:000945b5       ___acrt_WideCharToMultiByte 100955b5 f   libucrt:widechartomultibyte.obj
 0001:000945da       ___acrt_add_locale_ref     100955da f   libucrt:locale_refcounting.obj
 0001:00094657       ___acrt_free_locale        10095657 f   libucrt:locale_refcounting.obj
 0001:000947a1       ___acrt_locale_add_lc_time_reference 100957a1 f   libucrt:locale_refcounting.obj
 0001:000947ca       ___acrt_locale_free_lc_time_if_unreferenced 100957ca f   libucrt:locale_refcounting.obj
 0001:000947fa       ___acrt_locale_release_lc_time_reference 100957fa f   libucrt:locale_refcounting.obj
 0001:00094823       ___acrt_release_locale_ref 10095823 f   libucrt:locale_refcounting.obj
 0001:000948a4       ___acrt_update_thread_locale_data 100958a4 f   libucrt:locale_refcounting.obj
 0001:0009491b       __updatetlocinfoEx_nolock  1009591b f   libucrt:locale_refcounting.obj
 0001:0009496b       ___acrt_locale_free_monetary 1009596b f   libucrt:initmon.obj
 0001:00094a69       ___acrt_locale_initialize_monetary 10095a69 f   libucrt:initmon.obj
 0001:00094e24       ___acrt_locale_free_numeric 10095e24 f   libucrt:initnum.obj
 0001:00094e8d       ___acrt_locale_initialize_numeric 10095e8d f   libucrt:initnum.obj
 0001:0009535e       ___acrt_locale_free_time   1009635e f   libucrt:inittime.obj
 0001:00095442       ___acrt_locale_initialize_time 10096442 f   libucrt:inittime.obj
 0001:000954c1       _wcscat_s                  100964c1 f   libucrt:wcscat_s.obj
 0001:00095603       _wcsncpy_s                 10096603 f   libucrt:wcsncpy_s.obj
 0001:0009560e       _wcscspn                   1009660e f   libucrt:wcscspn.obj
 0001:0009565e       _wcspbrk                   1009665e f   libucrt:wcspbrk.obj
 0001:00095da3       ___acrt_get_qualified_locale 10096da3 f   libucrt:get_qualified_locale.obj
 0001:000966ee       ___acrt_get_qualified_locale_downlevel 100976ee f   libucrt:getqloc_downlevel.obj
 0001:000968f5       ___acrt_lowio_create_handle_array 100978f5 f   libucrt:osfinfo.obj
 0001:0009696f       ___acrt_lowio_destroy_handle_array 1009796f f   libucrt:osfinfo.obj
 0001:000969a4       ___acrt_lowio_ensure_fh_exists 100979a4 f   libucrt:osfinfo.obj
 0001:00096a38       ___acrt_lowio_lock_fh      10097a38 f   libucrt:osfinfo.obj
 0001:00096a5b       ___acrt_lowio_set_os_handle 10097a5b f   libucrt:osfinfo.obj
 0001:00096aef       ___acrt_lowio_unlock_fh    10097aef f   libucrt:osfinfo.obj
 0001:00096b12       __alloc_osfhnd             10097b12 f   libucrt:osfinfo.obj
 0001:00096c1b       __free_osfhnd              10097c1b f   libucrt:osfinfo.obj
 0001:00096cac       __get_osfhandle            10097cac f   libucrt:osfinfo.obj
 0001:00096d16       ___acrt_fp_strflt_to_string 10097d16 f   libucrt:_fptostr.obj
 0001:00096dd2       ___acrt_fltout             10097dd2 f   libucrt:cfout.obj
 0001:00098145       __isatty                   10099145 f   libucrt:isatty.obj
 0001:000981a0       __CIcos_pentium4           100991a0 f   libucrt:cos_pentium4.obj
 0001:000981b8       __cos_pentium4             100991b8     libucrt:cos_pentium4.obj
 0001:00098350       __CIexp_pentium4           10099350 f   libucrt:exp_pentium4.obj
 0001:00098368       __exp_pentium4             10099368     libucrt:exp_pentium4.obj
 0001:00098610       __CIsin_pentium4           10099610 f   libucrt:sin_pentium4.obj
 0001:00098628       __sin_pentium4             10099628     libucrt:sin_pentium4.obj
 0001:000987d8       __frnd                     100997d8 f   libucrt:frnd.obj
 0001:000987ee       _fetestexcept              100997ee f   libucrt:fetestexcept.obj
 0001:00098810       __wcsnicmp                 10099810 f   libucrt:wcsnicmp.obj
 0001:000988c1       __wcsnicmp_l               100998c1 f   libucrt:wcsnicmp.obj
 0001:000989be       __strnicmp                 100999be f   libucrt:strnicmp.obj
 0001:00098a2b       __strnicmp_l               10099a2b f   libucrt:strnicmp.obj
 0001:0009915a       __sopen_nolock             1009a15a f   libucrt:open.obj
 0001:000991ab       __sopen_s                  1009a1ab f   libucrt:open.obj
 0001:000991cb       __wsopen_nolock            1009a1cb f   libucrt:open.obj
 0001:000994f4       __wsopen_s                 1009a4f4 f   libucrt:open.obj
 0001:00099681       _getenv_s                  1009a681 f   libucrt:getenv.obj
 0001:0009973d       _strncpy_s                 1009a73d f   libucrt:strncpy_s.obj
 0001:000997fc       ___acrt_DownlevelLCIDToLocaleName 1009a7fc f   libucrt:lcidtoname_downlevel.obj
 0001:000998a6       ___acrt_DownlevelLocaleNameToLCID 1009a8a6 f   libucrt:lcidtoname_downlevel.obj
 0001:000998d2       __87except                 1009a8d2 f   libucrt:87except.obj
 0001:000999dd       __putwch_nolock            1009a9dd f   libucrt:putwch.obj
 0001:00099a11       __dnorm                    1009aa11 f   libucrt:_norm.obj
 0001:00099b90       __CIacos_pentium4          1009ab90 f   libucrt:acos_pentium4.obj
 0001:00099ba8       __acos_pentium4            1009aba8     libucrt:acos_pentium4.obj
 0001:0009a0f0       __CIasin_pentium4          1009b0f0 f   libucrt:asin_pentium4.obj
 0001:0009a108       __asin_pentium4            1009b108     libucrt:asin_pentium4.obj
 0001:0009a670       __CIatan_pentium4          1009b670 f   libucrt:atan_pentium4.obj
 0001:0009a688       __atan_pentium4            1009b688     libucrt:atan_pentium4.obj
 0001:0009a940       _strpbrk                   1009b940 f   libucrt:strpbrk.obj
 0001:0009a980       __mbsdec                   1009b980 f   libucrt:mbsdec.obj
 0001:0009a997       __mbsdec_l                 1009b997 f   libucrt:mbsdec.obj
 0001:0009aa1d       __strnicoll                1009ba1d f   libucrt:strnicol.obj
 0001:0009aa46       __strnicoll_l              1009ba46 f   libucrt:strnicol.obj
 0001:0009ab10       __msize                    1009bb10 f   libucrt:msize.obj
 0001:0009ab1b       __msize_base               1009bb1b f   libucrt:msize.obj
 0001:0009ac55       __itow_s                   1009bc55 f   libucrt:xtoa.obj
 0001:0009ac8a       __query_app_type           1009bc8a f   libucrt:report_runtime_error.obj
 0001:0009ac90       _fegetenv                  1009bc90 f   libucrt:fegetenv.obj
 0001:0009acad       _fesetenv                  1009bcad f   libucrt:fesetenv.obj
 0001:0009acfa       _feholdexcept              1009bcfa f   libucrt:feholdexcept.obj
 0001:0009ad50       __CIlog10                  1009bd50 f   libucrt:log10_impl.obj
 0001:0009ad8b       __CIlog10_default          1009bd8b f   libucrt:log10_impl.obj
 0001:0009ad9f       __log10_default            1009bd9f     libucrt:log10_impl.obj
 0001:0009ae60       ___ascii_strnicmp          1009be60 f   libucrt:_strnicm.obj
 0001:0009aec1       __get_fmode                1009bec1 f   libucrt:setmode.obj
 0001:0009aeed       __setmode_nolock           1009beed f   libucrt:setmode.obj
 0001:0009afbe       ___acrt_copy_path_to_wide_string 1009bfbe f   libucrt:string_utilities.obj
 0001:0009b085       __chsize_nolock            1009c085 f   libucrt:chsize.obj
 0001:0009b235       ___dcrt_lowio_ensure_console_output_initialized 1009c235 f   libucrt:initcon.obj
 0001:0009b254       ___dcrt_terminate_console_output 1009c254 f   libucrt:initcon.obj
 0001:0009b26b       ___dcrt_write_console_w    1009c26b f   libucrt:initcon.obj
 0001:0009b533       ___acrt_CompareStringA     1009c533 f   libucrt:comparestringa.obj
 0001:0009b57b       __clearfp                  1009c57b f   libucrt:ieee87.obj
 0001:0009b660       __CIlog10_pentium4         1009c660 f   libucrt:log10_pentium4.obj
 0001:0009b678       __log10_pentium4           1009c678     libucrt:log10_pentium4.obj
 0001:0009b8f0       _IsProcessorFeaturePresent@4 1009c8f0 f   kernel32:KERNEL32.dll
 0001:0009b8f6       __EH_epilog3               1009c8f6 f   LIBCMT:ehprolg3.obj
 0001:0009b90b       __EH_prolog3               1009c90b f   LIBCMT:ehprolg3.obj
 0001:0009b93f       __EH_prolog3_catch         1009c93f f   LIBCMT:ehprolg3.obj
 0001:0009b980       __allmul                   1009c980 f   LIBCMT:llmul.obj
 0001:0009b9c0       __aulldiv                  1009c9c0 f   LIBCMT:ulldiv.obj
 0001:0009ba30       __FindPESection            1009ca30 f   LIBCMT:pesect.obj
 0001:0009ba80       __IsNonwritableInCurrentImage 1009ca80 f   LIBCMT:pesect.obj
 0001:0009bb40       __ValidateImageBase        1009cb40 f   LIBCMT:pesect.obj
 0001:0009bb80       __aulldvrm                 1009cb80 f   LIBCMT:ulldvrm.obj
 0001:0009bc20       __allshl                   1009cc20 f   LIBCMT:llshl.obj
 0001:0009bc40       __aullshr                  1009cc40 f   LIBCMT:ullshr.obj
 0001:0009bc60       __alldiv                   1009cc60 f   LIBCMT:lldiv.obj
 0001:0009bd10       __allrem                   1009cd10 f   LIBCMT:llrem.obj
 0001:0009bdd0       __alldvrm                  1009cdd0 f   LIBCMT:lldvrm.obj
 0001:0009beb0       __SEH_prolog4_GS           1009ceb0 f   LIBCMT:_sehprolg4gs_.obj
 0001:0009bef9       __SEH_epilog4_GS           1009cef9 f   LIBCMT:_sehprolg4gs_.obj
 0001:0009bf10       _strrchr                   1009cf10 f   libvcruntime:strrchr.obj
 0001:0009c047       _wcschr                    1009d047 f   libvcruntime:wcschr.obj
 0001:0009ea50       ??__Finst@?1??instance@?$singleton@Vgrenade_prediction@@@@SAAAVgrenade_prediction@@XZ@YAXXZ 1009fa50 f i ESP.obj
 0001:0009eb60       ??__Finst@?1??instance@?$singleton@Vlegitbot@@@@SAAAVlegitbot@@XZ@YAXXZ 1009fb60 f i Hooks.obj
 0001:0009eb70       ??__Finst@?1??instance@?$singleton@Vmisc@@@@SAAAVmisc@@XZ@YAXXZ 1009fb70 f i Hooks.obj
 0001:0009eb80       ??__Finst@?1??instance@?$singleton@Vragebot@@@@SAAAVragebot@@XZ@YAXXZ 1009fb80 f i Hooks.obj
 0001:0009eb90       ??__Finst@?1??instance@?$singleton@Vvisuals@@@@SAAAVvisuals@@XZ@YAXXZ 1009fb90 f i Hooks.obj
 0001:0009ebb0       ??__Flog@?1??on_fire_event@item_purchase@@QAEXPAVIGameEvent@@_N@Z@YAXXZ 1009fbb0 f i Hooks.obj
 0002:00000000       __imp__ImmGetContext@4     100a0000     imm32:IMM32.dll
 0002:00000004       __imp__ImmSetCompositionWindow@8 100a0004     imm32:IMM32.dll
 0002:00000008       \177IMM32_NULL_THUNK_DATA  100a0008     imm32:IMM32.dll
 0002:0000000c       __imp__WritePrivateProfileStringA@16 100a000c     kernel32:KERNEL32.dll
 0002:00000010       __imp__Sleep@4             100a0010     kernel32:KERNEL32.dll
 0002:00000014       __imp__CreateThread@24     100a0014     kernel32:KERNEL32.dll
 0002:00000018       __imp__FreeLibraryAndExitThread@8 100a0018     kernel32:KERNEL32.dll
 0002:0000001c       __imp__GetTickCount64@0    100a001c     kernel32:KERNEL32.dll
 0002:00000020       __imp__GetModuleHandleA@4  100a0020     kernel32:KERNEL32.dll
 0002:00000024       __imp__GetProcAddress@8    100a0024     kernel32:KERNEL32.dll
 0002:00000028       __imp__VirtualProtect@16   100a0028     kernel32:KERNEL32.dll
 0002:0000002c       __imp__QueryPerformanceCounter@4 100a002c     kernel32:KERNEL32.dll
 0002:00000030       __imp__QueryPerformanceFrequency@4 100a0030     kernel32:KERNEL32.dll
 0002:00000034       __imp__GlobalAlloc@8       100a0034     kernel32:KERNEL32.dll
 0002:00000038       __imp__GlobalUnlock@4      100a0038     kernel32:KERNEL32.dll
 0002:0000003c       __imp__GlobalLock@4        100a003c     kernel32:KERNEL32.dll
 0002:00000040       __imp__GetTickCount@0      100a0040     kernel32:KERNEL32.dll
 0002:00000044       __imp__MultiByteToWideChar@24 100a0044     kernel32:KERNEL32.dll
 0002:00000048       __imp__GetStdHandle@4      100a0048     kernel32:KERNEL32.dll
 0002:0000004c       __imp__GetCurrentProcess@0 100a004c     kernel32:KERNEL32.dll
 0002:00000050       __imp__SetConsoleTextAttribute@8 100a0050     kernel32:KERNEL32.dll
 0002:00000054       __imp__FreeConsole@0       100a0054     kernel32:KERNEL32.dll
 0002:00000058       __imp__GetPrivateProfileStringA@24 100a0058     kernel32:KERNEL32.dll
 0002:0000005c       __imp__K32GetModuleInformation@16 100a005c     kernel32:KERNEL32.dll
 0002:00000060       __imp__SetEndOfFile@4      100a0060     kernel32:KERNEL32.dll
 0002:00000064       __imp__HeapSize@12         100a0064     kernel32:KERNEL32.dll
 0002:00000068       __imp__CreateFileW@28      100a0068     kernel32:KERNEL32.dll
 0002:0000006c       __imp__SetStdHandle@8      100a006c     kernel32:KERNEL32.dll
 0002:00000070       __imp__GetProcessHeap@0    100a0070     kernel32:KERNEL32.dll
 0002:00000074       __imp__SetEnvironmentVariableA@8 100a0074     kernel32:KERNEL32.dll
 0002:00000078       __imp__FreeEnvironmentStringsW@4 100a0078     kernel32:KERNEL32.dll
 0002:0000007c       __imp__GetEnvironmentStringsW@0 100a007c     kernel32:KERNEL32.dll
 0002:00000080       __imp__GetCommandLineW@0   100a0080     kernel32:KERNEL32.dll
 0002:00000084       __imp__GetCommandLineA@0   100a0084     kernel32:KERNEL32.dll
 0002:00000088       __imp__GetOEMCP@0          100a0088     kernel32:KERNEL32.dll
 0002:0000008c       __imp__IsValidCodePage@4   100a008c     kernel32:KERNEL32.dll
 0002:00000090       __imp__FindNextFileA@8     100a0090     kernel32:KERNEL32.dll
 0002:00000094       __imp__FindFirstFileExA@24 100a0094     kernel32:KERNEL32.dll
 0002:00000098       __imp__CreateDirectoryA@8  100a0098     kernel32:KERNEL32.dll
 0002:0000009c       __imp__GetModuleHandleW@4  100a009c     kernel32:KERNEL32.dll
 0002:000000a0       __imp__CloseHandle@4       100a00a0     kernel32:KERNEL32.dll
 0002:000000a4       __imp__EnterCriticalSection@4 100a00a4     kernel32:KERNEL32.dll
 0002:000000a8       __imp__LeaveCriticalSection@4 100a00a8     kernel32:KERNEL32.dll
 0002:000000ac       __imp__DeleteCriticalSection@4 100a00ac     kernel32:KERNEL32.dll
 0002:000000b0       __imp__SetEvent@4          100a00b0     kernel32:KERNEL32.dll
 0002:000000b4       __imp__ResetEvent@4        100a00b4     kernel32:KERNEL32.dll
 0002:000000b8       __imp__WaitForSingleObjectEx@12 100a00b8     kernel32:KERNEL32.dll
 0002:000000bc       __imp__CreateEventW@16     100a00bc     kernel32:KERNEL32.dll
 0002:000000c0       __imp__UnhandledExceptionFilter@4 100a00c0     kernel32:KERNEL32.dll
 0002:000000c4       __imp__SetUnhandledExceptionFilter@4 100a00c4     kernel32:KERNEL32.dll
 0002:000000c8       __imp__TerminateProcess@8  100a00c8     kernel32:KERNEL32.dll
 0002:000000cc       __imp__IsProcessorFeaturePresent@4 100a00cc     kernel32:KERNEL32.dll
 0002:000000d0       __imp__IsDebuggerPresent@0 100a00d0     kernel32:KERNEL32.dll
 0002:000000d4       __imp__GetStartupInfoW@4   100a00d4     kernel32:KERNEL32.dll
 0002:000000d8       __imp__GetCurrentProcessId@0 100a00d8     kernel32:KERNEL32.dll
 0002:000000dc       __imp__GetCurrentThreadId@0 100a00dc     kernel32:KERNEL32.dll
 0002:000000e0       __imp__GetSystemTimeAsFileTime@4 100a00e0     kernel32:KERNEL32.dll
 0002:000000e4       __imp__InitializeSListHead@4 100a00e4     kernel32:KERNEL32.dll
 0002:000000e8       __imp__GetLastError@0      100a00e8     kernel32:KERNEL32.dll
 0002:000000ec       __imp__WideCharToMultiByte@32 100a00ec     kernel32:KERNEL32.dll
 0002:000000f0       __imp__EncodePointer@4     100a00f0     kernel32:KERNEL32.dll
 0002:000000f4       __imp__DecodePointer@4     100a00f4     kernel32:KERNEL32.dll
 0002:000000f8       __imp__SetLastError@4      100a00f8     kernel32:KERNEL32.dll
 0002:000000fc       __imp__InitializeCriticalSectionAndSpinCount@8 100a00fc     kernel32:KERNEL32.dll
 0002:00000100       __imp__TlsAlloc@0          100a0100     kernel32:KERNEL32.dll
 0002:00000104       __imp__TlsGetValue@4       100a0104     kernel32:KERNEL32.dll
 0002:00000108       __imp__TlsSetValue@8       100a0108     kernel32:KERNEL32.dll
 0002:0000010c       __imp__TlsFree@4           100a010c     kernel32:KERNEL32.dll
 0002:00000110       __imp__CompareStringW@24   100a0110     kernel32:KERNEL32.dll
 0002:00000114       __imp__LCMapStringW@24     100a0114     kernel32:KERNEL32.dll
 0002:00000118       __imp__GetLocaleInfoW@16   100a0118     kernel32:KERNEL32.dll
 0002:0000011c       __imp__GetStringTypeW@16   100a011c     kernel32:KERNEL32.dll
 0002:00000120       __imp__GetCPInfo@8         100a0120     kernel32:KERNEL32.dll
 0002:00000124       __imp__RaiseException@16   100a0124     kernel32:KERNEL32.dll
 0002:00000128       __imp__RtlUnwind@16        100a0128     kernel32:KERNEL32.dll
 0002:0000012c       __imp__FreeLibrary@4       100a012c     kernel32:KERNEL32.dll
 0002:00000130       __imp__LoadLibraryExW@12   100a0130     kernel32:KERNEL32.dll
 0002:00000134       __imp__InterlockedFlushSList@4 100a0134     kernel32:KERNEL32.dll
 0002:00000138       __imp__ReadFile@20         100a0138     kernel32:KERNEL32.dll
 0002:0000013c       __imp__ExitProcess@4       100a013c     kernel32:KERNEL32.dll
 0002:00000140       __imp__GetModuleHandleExW@12 100a0140     kernel32:KERNEL32.dll
 0002:00000144       __imp__GetModuleFileNameA@12 100a0144     kernel32:KERNEL32.dll
 0002:00000148       __imp__HeapAlloc@12        100a0148     kernel32:KERNEL32.dll
 0002:0000014c       __imp__HeapFree@12         100a014c     kernel32:KERNEL32.dll
 0002:00000150       __imp__HeapReAlloc@16      100a0150     kernel32:KERNEL32.dll
 0002:00000154       __imp__GetACP@0            100a0154     kernel32:KERNEL32.dll
 0002:00000158       __imp__GetFileType@4       100a0158     kernel32:KERNEL32.dll
 0002:0000015c       __imp__GetConsoleMode@8    100a015c     kernel32:KERNEL32.dll
 0002:00000160       __imp__ReadConsoleW@20     100a0160     kernel32:KERNEL32.dll
 0002:00000164       __imp__SetFilePointerEx@20 100a0164     kernel32:KERNEL32.dll
 0002:00000168       __imp__GetTimeZoneInformation@4 100a0168     kernel32:KERNEL32.dll
 0002:0000016c       __imp__IsValidLocale@8     100a016c     kernel32:KERNEL32.dll
 0002:00000170       __imp__GetUserDefaultLCID@0 100a0170     kernel32:KERNEL32.dll
 0002:00000174       __imp__EnumSystemLocalesW@8 100a0174     kernel32:KERNEL32.dll
 0002:00000178       __imp__FlushFileBuffers@4  100a0178     kernel32:KERNEL32.dll
 0002:0000017c       __imp__WriteFile@20        100a017c     kernel32:KERNEL32.dll
 0002:00000180       __imp__GetConsoleCP@0      100a0180     kernel32:KERNEL32.dll
 0002:00000184       __imp__FindClose@4         100a0184     kernel32:KERNEL32.dll
 0002:00000188       __imp__WriteConsoleW@20    100a0188     kernel32:KERNEL32.dll
 0002:0000018c       \177KERNEL32_NULL_THUNK_DATA 100a018c     kernel32:KERNEL32.dll
 0002:00000190       __imp__SHGetFolderPathA@20 100a0190     shell32:SHELL32.dll
 0002:00000194       \177SHELL32_NULL_THUNK_DATA 100a0194     shell32:SHELL32.dll
 0002:00000198       __imp__GetAsyncKeyState@4  100a0198     user32:USER32.dll
 0002:0000019c       __imp__SetWindowLongA@12   100a019c     user32:USER32.dll
 0002:000001a0       __imp__CallWindowProcA@20  100a01a0     user32:USER32.dll
 0002:000001a4       __imp__EmptyClipboard@0    100a01a4     user32:USER32.dll
 0002:000001a8       __imp__GetClipboardData@4  100a01a8     user32:USER32.dll
 0002:000001ac       __imp__SetClipboardData@8  100a01ac     user32:USER32.dll
 0002:000001b0       __imp__CloseClipboard@0    100a01b0     user32:USER32.dll
 0002:000001b4       __imp__OpenClipboard@4     100a01b4     user32:USER32.dll
 0002:000001b8       __imp__SetCursor@4         100a01b8     user32:USER32.dll
 0002:000001bc       __imp__GetClientRect@8     100a01bc     user32:USER32.dll
 0002:000001c0       __imp__GetKeyState@4       100a01c0     user32:USER32.dll
 0002:000001c4       __imp__FindWindowA@8       100a01c4     user32:USER32.dll
 0002:000001c8       \177USER32_NULL_THUNK_DATA 100a01c8     user32:USER32.dll
 0002:000001cc       __imp__PlaySoundA@12       100a01cc     winmm:WINMM.dll
 0002:000001d0       \177WINMM_NULL_THUNK_DATA  100a01d0     winmm:WINMM.dll
 0002:000001d4       ___guard_check_icall_fptr  100a01d4     LIBCMT:guard_support.obj
 0002:000001d8       ___xc_a                    100a01d8     LIBCMT:initializers.obj
 0002:000002b4       ___xc_z                    100a02b4     LIBCMT:initializers.obj
 0002:000002b8       ___xi_a                    100a02b8     LIBCMT:initializers.obj
 0002:000002c4       ___acrt_stdio_initializer  100a02c4     libucrt:stdio_initializer.obj
 0002:000002c8       ___acrt_tran_sse2_initializer 100a02c8     libucrt:sse2_initializer.obj
 0002:000002cc       ___acrt_timeset_initializer 100a02cc     libucrt:timeset_initializer.obj
 0002:000002d0       ___acrt_multibyte_initializer 100a02d0     libucrt:multibyte_initializer.obj
 0002:000002d4       ___xi_z                    100a02d4     LIBCMT:initializers.obj
 0002:000002d8       ___xl_a                    100a02d8     LIBCMT:tlssup.obj
 0002:000002dc       ___xl_z                    100a02dc     LIBCMT:tlssup.obj
 0002:000002e0       ___xp_a                    100a02e0     LIBCMT:initializers.obj
 0002:000002e4       ___acrt_locale_terminator  100a02e4     libucrt:locale_initializer.obj
 0002:000002e8       ___dcrt_console_output_terminator 100a02e8     libucrt:console_output_initializer.obj
 0002:000002ec       ___acrt_stdio_terminator   100a02ec     libucrt:stdio_initializer.obj
 0002:000002f0       ___xp_z                    100a02f0     LIBCMT:initializers.obj
 0002:000002f4       ___xt_a                    100a02f4     LIBCMT:initializers.obj
 0002:000002f8       ___xt_z                    100a02f8     LIBCMT:initializers.obj
 0002:00000300       ??_C@_05LOHHADEH@M?3999?$AA@ 100a0300     imguicolorpicker.obj
 0002:00000308       ??_C@_03CEFFAPNG@?$CD?$CDX?$AA@ 100a0308     imguicolorpicker.obj
 0002:0000030c       ??_C@_03DNEODOJH@?$CD?$CDY?$AA@ 100a030c     imguicolorpicker.obj
 0002:00000310       ??_C@_03BGGDGNFE@?$CD?$CDZ?$AA@ 100a0310     imguicolorpicker.obj
 0002:00000314       ??_C@_03KDMNBDBJ@?$CD?$CDW?$AA@ 100a0314     imguicolorpicker.obj
 0002:00000318       ??_C@_05KIPMPJDD@?$CF3?40f?$AA@ 100a0318     imguicolorpicker.obj
 0002:00000320       ??_C@_07GHAMIJFO@R?3?$CF3?40f?$AA@ 100a0320     imguicolorpicker.obj
 0002:00000328       ??_C@_07FDFHLGBB@G?3?$CF3?40f?$AA@ 100a0328     imguicolorpicker.obj
 0002:00000330       ??_C@_07BLLHLIHF@B?3?$CF3?40f?$AA@ 100a0330     imguicolorpicker.obj
 0002:00000338       ??_C@_07JFDILPJG@A?3?$CF3?40f?$AA@ 100a0338     imguicolorpicker.obj
 0002:00000340       ??_C@_07IKHHKELN@H?3?$CF3?40f?$AA@ 100a0340     imguicolorpicker.obj
 0002:00000348       ??_C@_07KLKGIJMA@S?3?$CF3?40f?$AA@ 100a0348     imguicolorpicker.obj
 0002:00000350       ??_C@_07ODEGIHKE@V?3?$CF3?40f?$AA@ 100a0350     imguicolorpicker.obj
 0002:00000358       ??_C@_0BC@CKPCOFBK@?$CD?$CF02X?$CF02X?$CF02X?$CF02X?$AA@ 100a0358     imguicolorpicker.obj
 0002:0000036c       ??_C@_0O@MBPBDFLP@?$CD?$CF02X?$CF02X?$CF02X?$AA@ 100a036c     imguicolorpicker.obj
 0002:0000037c       ??_C@_06MNCEJPDI@?$CD?$CDText?$AA@ 100a037c     imguicolorpicker.obj
 0002:00000384       ??_C@_0BB@DDMGLOLI@?$CF02X?$CF02X?$CF02X?$CF02X?$AA@ 100a0384     imguicolorpicker.obj
 0002:00000398       ??_C@_0N@KODLFHPJ@?$CF02X?$CF02X?$CF02X?$AA@ 100a0398     imguicolorpicker.obj
 0002:000003a8       ??_C@_06MAKAMBBI@picker?$AA@ 100a03a8     imguicolorpicker.obj
 0002:000003b0       ??_C@_07JKKCBBMM@context?$AA@ 100a03b0     imguicolorpicker.obj
 0002:000003b8       ??_C@_08HHEANBBL@?$CD?$CDpicker?$AA@ 100a03b8     imguicolorpicker.obj
 0002:000003c4       ??_C@_0M@CAEKFCO@Edit?5as?5RGB?$AA@ 100a03c4     imguicolorpicker.obj
 0002:000003d0       ??_C@_0M@ICBMOCM@Edit?5as?5HSV?$AA@ 100a03d0     imguicolorpicker.obj
 0002:000003dc       ??_C@_0BE@MKFECGOP@Edit?5as?5Hexadecimal?$AA@ 100a03dc     imguicolorpicker.obj
 0002:000003f0       ??_C@_02CPGMCOJE@sv?$AA@   100a03f0     imguicolorpicker.obj
 0002:000003f4       ??_C@_03GKJJMKFG@hue?$AA@  100a03f4     imguicolorpicker.obj
 0002:000003f8       ??_C@_05IAEKHIAN@alpha?$AA@ 100a03f8     imguicolorpicker.obj
 0002:00000400       __real@358637bd            100a0400     imguicolorpicker.obj
 0002:00000404       __real@3727c5ac            100a0404     imguicolorpicker.obj
 0002:00000408       __real@3f000000            100a0408     imguicolorpicker.obj
 0002:0000040c       __real@3f800000            100a040c     imguicolorpicker.obj
 0002:00000410       __real@40000000            100a0410     imguicolorpicker.obj
 0002:00000414       __real@40c00000            100a0414     imguicolorpicker.obj
 0002:00000418       __real@40e00000            100a0418     imguicolorpicker.obj
 0002:0000041c       __real@43800000            100a041c     imguicolorpicker.obj
 0002:00000420       __xmm@3f0000003f0000003f0000003f000000 100a0420     imguicolorpicker.obj
 0002:00000430       __xmm@3f8000003f8000003f8000003f800000 100a0430     imguicolorpicker.obj
 0002:00000440       __xmm@437f0000437f0000437f0000437f0000 100a0440     imguicolorpicker.obj
 0002:00000454       ??_7_Ref_count_base@std@@6B@ 100a0454     Parser.obj
 0002:00000464       ??_C@_00CNPNBAHC@?$AA@     100a0464     Parser.obj
 0002:0000046c       ??_7Node@valve_parser@@6B@ 100a046c     Parser.obj
 0002:0000047c       ??_7KeyValue@valve_parser@@6B@ 100a047c     Parser.obj
 0002:0000048c       ??_7Object@valve_parser@@6B@ 100a048c     Parser.obj
 0002:00000498       ??_C@_0BD@OLBABOEK@vector?$DMT?$DO?5too?5long?$AA@ 100a0498     Parser.obj
 0002:000004b0       ??_7?$_Ref_count_obj@VObject@valve_parser@@@std@@6B@ 100a04b0     Parser.obj
 0002:000004c4       ??_7?$_Ref_count_obj@VKeyValue@valve_parser@@@std@@6B@ 100a04c4     Parser.obj
 0002:000004d4       ??_C@_0BA@JFNIOLAK@string?5too?5long?$AA@ 100a04d4     Parser.obj
 0002:000004e4       ??_C@_0BE@JONHPENG@map?1set?$DMT?$DO?5too?5long?$AA@ 100a04e4     recvproxy.obj
 0002:000004f8       ??_C@_07MGCPDNLD@DEFAULT?$AA@ 100a04f8     recvproxy.obj
 0002:00000500       ??_C@_0M@PAMBPCKC@?$DM?9Default?9?$DO?$AA@ 100a0500     recvproxy.obj
 0002:0000050c       ??_C@_06BOLHOKHP@deagle?$AA@ 100a050c     recvproxy.obj
 0002:00000514       ??_C@_0CB@GADOOGNP@models?1weapons?1v_pist_deagle?4mdl@ 100a0514     recvproxy.obj
 0002:00000538       ??_C@_0O@LLIAKKDL@weapon_deagle?$AA@ 100a0538     recvproxy.obj
 0002:00000548       ??_C@_0BJ@FEOJKBOH@?$CDSFUI_WPNHUD_DesertEagle?$AA@ 100a0548     recvproxy.obj
 0002:00000564       ??_C@_05EHJKLNBO@elite?$AA@ 100a0564     recvproxy.obj
 0002:0000056c       ??_C@_0CA@EKFLBJKL@models?1weapons?1v_pist_elite?4mdl?$AA@ 100a056c     recvproxy.obj
 0002:0000058c       ??_C@_0N@HKGPJCDJ@weapon_elite?$AA@ 100a058c     recvproxy.obj
 0002:0000059c       ??_C@_0BE@GGJLILKA@?$CDSFUI_WPNHUD_Elites?$AA@ 100a059c     recvproxy.obj
 0002:000005b0       ??_C@_09KEKPBIOE@fiveseven?$AA@ 100a05b0     recvproxy.obj
 0002:000005bc       ??_C@_0CE@LLFDMHPP@models?1weapons?1v_pist_fiveseven?4@ 100a05bc     recvproxy.obj
 0002:000005e0       ??_C@_0BB@JLPINHFH@weapon_fiveseven?$AA@ 100a05e0     recvproxy.obj
 0002:000005f4       ??_C@_0BH@GFPFCKML@?$CDSFUI_WPNHUD_FiveSeven?$AA@ 100a05f4     recvproxy.obj
 0002:0000060c       ??_C@_05KINDNLLC@glock?$AA@ 100a060c     recvproxy.obj
 0002:00000614       ??_C@_0CC@PECKEBFC@models?1weapons?1v_pist_glock18?4md@ 100a0614     recvproxy.obj
 0002:00000638       ??_C@_0N@JFCGPEJF@weapon_glock?$AA@ 100a0638     recvproxy.obj
 0002:00000648       ??_C@_0BF@BEFCAFPH@?$CDSFUI_WPNHUD_Glock18?$AA@ 100a0648     recvproxy.obj
 0002:00000660       ??_C@_04MCMNMLGF@ak47?$AA@ 100a0660     recvproxy.obj
 0002:00000668       ??_C@_0BO@EGPCDLCM@models?1weapons?1v_rif_ak47?4mdl?$AA@ 100a0668     recvproxy.obj
 0002:00000688       ??_C@_0M@OPHHDLAA@weapon_ak47?$AA@ 100a0688     recvproxy.obj
 0002:00000694       ??_C@_0BC@CIJAHAED@?$CDSFUI_WPNHUD_AK47?$AA@ 100a0694     recvproxy.obj
 0002:000006a8       ??_C@_03CFKHOHFO@aug?$AA@  100a06a8     recvproxy.obj
 0002:000006ac       ??_C@_0BN@EBCDFGLB@models?1weapons?1v_rif_aug?4mdl?$AA@ 100a06ac     recvproxy.obj
 0002:000006cc       ??_C@_0L@JNLIAPKB@weapon_aug?$AA@ 100a06cc     recvproxy.obj
 0002:000006d8       ??_C@_0BB@JFBGLODK@?$CDSFUI_WPNHUD_Aug?$AA@ 100a06d8     recvproxy.obj
 0002:000006ec       ??_C@_03CDKALHKG@awp?$AA@  100a06ec     recvproxy.obj
 0002:000006f0       ??_C@_0BO@NCNPPFAF@models?1weapons?1v_snip_awp?4mdl?$AA@ 100a06f0     recvproxy.obj
 0002:00000710       ??_C@_0L@JLLPFPFJ@weapon_awp?$AA@ 100a0710     recvproxy.obj
 0002:0000071c       ??_C@_0BB@DONIIMIA@?$CDSFUI_WPNHUD_AWP?$AA@ 100a071c     recvproxy.obj
 0002:00000730       ??_C@_05LAIJEIBK@famas?$AA@ 100a0730     recvproxy.obj
 0002:00000738       ??_C@_0BP@FKBADIHG@models?1weapons?1v_rif_famas?4mdl?$AA@ 100a0738     recvproxy.obj
 0002:00000758       ??_C@_0N@INHMGHDN@weapon_famas?$AA@ 100a0758     recvproxy.obj
 0002:00000768       ??_C@_0BD@KDKPLPFI@?$CDSFUI_WPNHUD_Famas?$AA@ 100a0768     recvproxy.obj
 0002:0000077c       ??_C@_05EPACHGIN@g3sg1?$AA@ 100a077c     recvproxy.obj
 0002:00000784       ??_C@_0CA@DGPJJNFK@models?1weapons?1v_snip_g3sg1?4mdl?$AA@ 100a0784     recvproxy.obj
 0002:000007a4       ??_C@_0N@HCPHFJKK@weapon_g3sg1?$AA@ 100a07a4     recvproxy.obj
 0002:000007b4       ??_C@_0BD@MEFLGIBB@?$CDSFUI_WPNHUD_G3SG1?$AA@ 100a07b4     recvproxy.obj
 0002:000007c8       ??_C@_07KDMKOGKA@galilar?$AA@ 100a07c8     recvproxy.obj
 0002:000007d0       ??_C@_0CB@FHOJEPDE@models?1weapons?1v_rif_galilar?4mdl@ 100a07d0     recvproxy.obj
 0002:000007f4       ??_C@_0P@NCNOFEGJ@weapon_galilar?$AA@ 100a07f4     recvproxy.obj
 0002:00000804       ??_C@_0BF@OPJFNNPM@?$CDSFUI_WPNHUD_GalilAR?$AA@ 100a0804     recvproxy.obj
 0002:0000081c       ??_C@_04CPLLELMC@m249?$AA@ 100a081c     recvproxy.obj
 0002:00000824       ??_C@_0CD@IDEDMIPA@models?1weapons?1v_mach_m249para?4m@ 100a0824     recvproxy.obj
 0002:00000848       ??_C@_0M@CABLLKH@weapon_m249?$AA@ 100a0848     recvproxy.obj
 0002:00000854       ??_C@_0BC@GFNEFPNK@?$CDSFUI_WPNHUD_M249?$AA@ 100a0854     recvproxy.obj
 0002:00000868       ??_C@_04KIHOHCEN@m4a1?$AA@ 100a0868     recvproxy.obj
 0002:00000870       ??_C@_0BO@ILHEAMFP@models?1weapons?1v_rif_m4a1?4mdl?$AA@ 100a0870     recvproxy.obj
 0002:00000890       ??_C@_0M@IFMEICCI@weapon_m4a1?$AA@ 100a0890     recvproxy.obj
 0002:0000089c       ??_C@_0BC@NKFMCALF@?$CDSFUI_WPNHUD_M4A1?$AA@ 100a089c     recvproxy.obj
 0002:000008b0       ??_C@_05INHJPNJM@mac10?$AA@ 100a08b0     recvproxy.obj
 0002:000008b8       ??_C@_0BP@NLHAIHEJ@models?1weapons?1v_smg_mac10?4mdl?$AA@ 100a08b8     recvproxy.obj
 0002:000008d8       ??_C@_0N@LAIMNCLL@weapon_mac10?$AA@ 100a08d8     recvproxy.obj
 0002:000008e8       ??_C@_0BD@PPKMIKOE@?$CDSFUI_WPNHUD_MAC10?$AA@ 100a08e8     recvproxy.obj
 0002:000008fc       ??_C@_03EBHIGIJD@p90?$AA@  100a08fc     recvproxy.obj
 0002:00000900       ??_C@_0BN@KHKMBEJF@models?1weapons?1v_smg_p90?4mdl?$AA@ 100a0900     recvproxy.obj
 0002:00000920       ??_C@_0L@PJGHIAGM@weapon_p90?$AA@ 100a0920     recvproxy.obj
 0002:0000092c       ??_C@_0BB@PBMJDBPH@?$CDSFUI_WPNHUD_P90?$AA@ 100a092c     recvproxy.obj
 0002:00000940       ??_C@_05JOBMFOLE@ump45?$AA@ 100a0940     recvproxy.obj
 0002:00000948       ??_C@_0BP@PJPMDNJN@models?1weapons?1v_smg_ump45?4mdl?$AA@ 100a0948     recvproxy.obj
 0002:00000968       ??_C@_0N@KDOJHBJD@weapon_ump45?$AA@ 100a0968     recvproxy.obj
 0002:00000978       ??_C@_0BD@OMMJCJMM@?$CDSFUI_WPNHUD_UMP45?$AA@ 100a0978     recvproxy.obj
 0002:0000098c       ??_C@_06PLJHLHIO@xm1014?$AA@ 100a098c     recvproxy.obj
 0002:00000994       ??_C@_0CB@KDBANKPA@models?1weapons?1v_shot_xm1014?4mdl@ 100a0994     recvproxy.obj
 0002:000009b8       ??_C@_0O@FOKAPHMK@weapon_xm1014?$AA@ 100a09b8     recvproxy.obj
 0002:000009c8       ??_C@_0BE@KMOLIIFJ@?$CDSFUI_WPNHUD_xm1014?$AA@ 100a09c8     recvproxy.obj
 0002:000009dc       ??_C@_05CDFEGPPN@bizon?$AA@ 100a09dc     recvproxy.obj
 0002:000009e4       ??_C@_0BP@LHDJKPLB@models?1weapons?1v_smg_bizon?4mdl?$AA@ 100a09e4     recvproxy.obj
 0002:00000a04       ??_C@_0N@BOKBEANK@weapon_bizon?$AA@ 100a0a04     recvproxy.obj
 0002:00000a14       ??_C@_0BD@DAHCJILP@?$CDSFUI_WPNHUD_Bizon?$AA@ 100a0a14     recvproxy.obj
 0002:00000a28       ??_C@_04GHKFGOJ@mag7?$AA@  100a0a28     recvproxy.obj
 0002:00000a30       ??_C@_0BP@PAPJAAGO@models?1weapons?1v_shot_mag7?4mdl?$AA@ 100a0a30     recvproxy.obj
 0002:00000a50       ??_C@_0M@CLMAKGIM@weapon_mag7?$AA@ 100a0a50     recvproxy.obj
 0002:00000a5c       ??_C@_0BC@EMBFECPB@?$CDSFUI_WPNHUD_Mag7?$AA@ 100a0a5c     recvproxy.obj
 0002:00000a70       ??_C@_05LMJJNAEK@negev?$AA@ 100a0a70     recvproxy.obj
 0002:00000a78       ??_C@_0CA@HJFJFEKI@models?1weapons?1v_mach_negev?4mdl?$AA@ 100a0a78     recvproxy.obj
 0002:00000a98       ??_C@_0N@IBGMPPGN@weapon_negev?$AA@ 100a0a98     recvproxy.obj
 0002:00000aa8       ??_C@_0BD@KPLPCHAI@?$CDSFUI_WPNHUD_Negev?$AA@ 100a0aa8     recvproxy.obj
 0002:00000abc       ??_C@_08MNGFIJED@sawedoff?$AA@ 100a0abc     recvproxy.obj
 0002:00000ac8       ??_C@_0CD@PAHKFFEL@models?1weapons?1v_shot_sawedoff?4m@ 100a0ac8     recvproxy.obj
 0002:00000aec       ??_C@_0BA@CPKMOHOF@weapon_sawedoff?$AA@ 100a0aec     recvproxy.obj
 0002:00000afc       ??_C@_0BG@DHILCCHJ@?$CDSFUI_WPNHUD_Sawedoff?$AA@ 100a0afc     recvproxy.obj
 0002:00000b14       ??_C@_04HNGCLBBP@tec9?$AA@ 100a0b14     recvproxy.obj
 0002:00000b1c       ??_C@_0BP@BCHAODPO@models?1weapons?1v_pist_tec9?4mdl?$AA@ 100a0b1c     recvproxy.obj
 0002:00000b3c       ??_C@_0M@FANIEBHK@weapon_tec9?$AA@ 100a0b3c     recvproxy.obj
 0002:00000b48       ??_C@_0BC@DHANKFAH@?$CDSFUI_WPNHUD_Tec9?$AA@ 100a0b48     recvproxy.obj
 0002:00000b5c       ??_C@_05FAEDFCLL@taser?$AA@ 100a0b5c     recvproxy.obj
 0002:00000b64       ??_C@_0BO@BEGBNOFA@models?1weapons?1v_eq_taser?4mdl?$AA@ 100a0b64     recvproxy.obj
 0002:00000b84       ??_C@_0N@GNLGHNJM@weapon_taser?$AA@ 100a0b84     recvproxy.obj
 0002:00000b94       ??_C@_0BD@EDGFKFPJ@?$CDSFUI_WPNHUD_Taser?$AA@ 100a0b94     recvproxy.obj
 0002:00000ba8       ??_C@_07MLKHEOGC@hkp2000?$AA@ 100a0ba8     recvproxy.obj
 0002:00000bb0       ??_C@_0CC@FOGBCCLJ@models?1weapons?1v_pist_hkp2000?4md@ 100a0bb0     recvproxy.obj
 0002:00000bd4       ??_C@_0P@LKLDPMKL@weapon_hkp2000?$AA@ 100a0bd4     recvproxy.obj
 0002:00000be4       ??_C@_0BF@OCCACLNG@?$CDSFUI_WPNHUD_HKP2000?$AA@ 100a0be4     recvproxy.obj
 0002:00000bfc       ??_C@_03NDABMHFJ@mp7?$AA@  100a0bfc     recvproxy.obj
 0002:00000c00       ??_C@_0BN@IMIEDAHN@models?1weapons?1v_smg_mp7?4mdl?$AA@ 100a0c00     recvproxy.obj
 0002:00000c20       ??_C@_0L@GLBOCPKG@weapon_mp7?$AA@ 100a0c20     recvproxy.obj
 0002:00000c2c       ??_C@_0BB@FLPNNINN@?$CDSFUI_WPNHUD_MP7?$AA@ 100a0c2c     recvproxy.obj
 0002:00000c40       ??_C@_03ENICOKNH@mp9?$AA@  100a0c40     recvproxy.obj
 0002:00000c44       ??_C@_0BN@LGIOFBAN@models?1weapons?1v_smg_mp9?4mdl?$AA@ 100a0c44     recvproxy.obj
 0002:00000c64       ??_C@_0L@PFJNACCI@weapon_mp9?$AA@ 100a0c64     recvproxy.obj
 0002:00000c70       ??_C@_0BB@MFHOPFFD@?$CDSFUI_WPNHUD_MP9?$AA@ 100a0c70     recvproxy.obj
 0002:00000c84       ??_C@_04FAAAGIJP@nova?$AA@ 100a0c84     recvproxy.obj
 0002:00000c8c       ??_C@_0BP@MHIAFCAJ@models?1weapons?1v_shot_nova?4mdl?$AA@ 100a0c8c     recvproxy.obj
 0002:00000cac       ??_C@_0M@HNLKJIPK@weapon_nova?$AA@ 100a0cac     recvproxy.obj
 0002:00000cb8       ??_C@_0BC@BKGPHMIH@?$CDSFUI_WPNHUD_Nova?$AA@ 100a0cb8     recvproxy.obj
 0002:00000ccc       ??_C@_04GHMLMJIP@p250?$AA@ 100a0ccc     recvproxy.obj
 0002:00000cd4       ??_C@_0BP@HHHFMFGI@models?1weapons?1v_pist_p250?4mdl?$AA@ 100a0cd4     recvproxy.obj
 0002:00000cf4       ??_C@_0M@EKHBDJOK@weapon_p250?$AA@ 100a0cf4     recvproxy.obj
 0002:00000d00       ??_C@_0BC@CNKENNJH@?$CDSFUI_WPNHUD_P250?$AA@ 100a0d00     recvproxy.obj
 0002:00000d14       ??_C@_06KMLOKGCE@scar20?$AA@ 100a0d14     recvproxy.obj
 0002:00000d1c       ??_C@_0CB@DHOKEELI@models?1weapons?1v_snip_scar20?4mdl@ 100a0d1c     recvproxy.obj
 0002:00000d40       ??_C@_0O@JIJOGGA@weapon_scar20?$AA@ 100a0d40     recvproxy.obj
 0002:00000d50       ??_C@_0BE@FCCACFGD@?$CDSFUI_WPNHUD_SCAR20?$AA@ 100a0d50     recvproxy.obj
 0002:00000d64       ??_C@_05IENADEPD@sg556?$AA@ 100a0d64     recvproxy.obj
 0002:00000d6c       ??_C@_0BP@OGEBLFFI@models?1weapons?1v_rif_sg556?4mdl?$AA@ 100a0d6c     recvproxy.obj
 0002:00000d8c       ??_C@_0N@LJCFBLNE@weapon_sg556?$AA@ 100a0d8c     recvproxy.obj
 0002:00000d9c       ??_C@_0BD@FGDHOMLF@?$CDSFUI_WPNHUD_SG556?$AA@ 100a0d9c     recvproxy.obj
 0002:00000db0       ??_C@_05OIPMCNPN@ssg08?$AA@ 100a0db0     recvproxy.obj
 0002:00000db8       ??_C@_0CA@PPKCAGOP@models?1weapons?1v_snip_ssg08?4mdl?$AA@ 100a0db8     recvproxy.obj
 0002:00000dd8       ??_C@_0N@NFAJACNK@weapon_ssg08?$AA@ 100a0dd8     recvproxy.obj
 0002:00000de8       ??_C@_0BD@JKCJFKIF@?$CDSFUI_WPNHUD_SSG08?$AA@ 100a0de8     recvproxy.obj
 0002:00000dfc       ??_C@_0BB@EPLPNOAB@knife_default_ct?$AA@ 100a0dfc     recvproxy.obj
 0002:00000e10       ??_C@_0CG@PKALIFMD@models?1weapons?1v_knife_default_c@ 100a0e10     recvproxy.obj
 0002:00000e38       ??_C@_0N@CFAHNHDH@weapon_knife?$AA@ 100a0e38     recvproxy.obj
 0002:00000e48       ??_C@_0BD@LNEAPFC@?$CDSFUI_WPNHUD_Knife?$AA@ 100a0e48     recvproxy.obj
 0002:00000e5c       ??_C@_09FHCANJKL@flashbang?$AA@ 100a0e5c     recvproxy.obj
 0002:00000e68       ??_C@_0CC@OMKPNOEL@models?1weapons?1v_eq_flashbang?4md@ 100a0e68     recvproxy.obj
 0002:00000e8c       ??_C@_0BB@GIHHBGBI@weapon_flashbang?$AA@ 100a0e8c     recvproxy.obj
 0002:00000ea0       ??_C@_0BH@OOHKNAJF@?$CDSFUI_WPNHUD_FLASHBANG?$AA@ 100a0ea0     recvproxy.obj
 0002:00000eb8       ??_C@_09MDJNEEPL@hegrenade?$AA@ 100a0eb8     recvproxy.obj
 0002:00000ec4       ??_C@_0CE@JMOOPEAD@models?1weapons?1v_eq_fraggrenade?4@ 100a0ec4     recvproxy.obj
 0002:00000ee8       ??_C@_0BB@PMMKILEI@weapon_hegrenade?$AA@ 100a0ee8     recvproxy.obj
 0002:00000efc       ??_C@_0BI@DNOABEJB@?$CDSFUI_WPNHUD_HE_Grenade?$AA@ 100a0efc     recvproxy.obj
 0002:00000f14       ??_C@_0N@LGLLMOFO@smokegrenade?$AA@ 100a0f14     recvproxy.obj
 0002:00000f24       ??_C@_0CF@KPFKDHPF@models?1weapons?1v_eq_smokegrenade@ 100a0f24     recvproxy.obj
 0002:00000f4c       ??_C@_0BE@MIMOIBPO@weapon_smokegrenade?$AA@ 100a0f4c     recvproxy.obj
 0002:00000f60       ??_C@_0BL@IMANPCOF@?$CDSFUI_WPNHUD_Smoke_Grenade?$AA@ 100a0f60     recvproxy.obj
 0002:00000f7c       ??_C@_07GAJFEBJB@inferno?$AA@ 100a0f7c     recvproxy.obj
 0002:00000f84       ??_C@_0CA@DKPHPPLO@models?1weapons?1v_eq_molotov?4mdl?$AA@ 100a0f84     recvproxy.obj
 0002:00000fa4       ??_C@_0P@GHDOFBCC@weapon_molotov?$AA@ 100a0fa4     recvproxy.obj
 0002:00000fb4       ??_C@_0BF@PDJHGECH@?$CDSFUI_WPNHUD_MOLOTOV?$AA@ 100a0fb4     recvproxy.obj
 0002:00000fcc       ??_C@_05BIGPPNGC@decoy?$AA@ 100a0fcc     recvproxy.obj
 0002:00000fd4       ??_C@_0BO@NMCPJABC@models?1weapons?1v_eq_decoy?4mdl?$AA@ 100a0fd4     recvproxy.obj
 0002:00000ff4       ??_C@_0N@CFJKNCEF@weapon_decoy?$AA@ 100a0ff4     recvproxy.obj
 0002:00001004       ??_C@_0BD@MHHDOIFI@?$CDSFUI_WPNHUD_DECOY?$AA@ 100a1004     recvproxy.obj
 0002:00001018       ??_C@_0CK@CADKHMFK@models?1weapons?1v_eq_incendiarygr@ 100a1018     recvproxy.obj
 0002:00001044       ??_C@_0BC@EMFKIJOI@weapon_incgrenade?$AA@ 100a1044     recvproxy.obj
 0002:00001058       ??_C@_0BI@IDNGAALA@?$CDSFUI_WPNHUD_IncGrenade?$AA@ 100a1058     recvproxy.obj
 0002:00001070       ??_C@_0BJ@LPCEDCBI@models?1weapons?1v_ied?4mdl?$AA@ 100a1070     recvproxy.obj
 0002:0000108c       ??_C@_09FDEIFAFE@weapon_c4?$AA@ 100a108c     recvproxy.obj
 0002:00001098       ??_C@_0BA@JAMEOGBJ@?$CDSFUI_WPNHUD_C4?$AA@ 100a1098     recvproxy.obj
 0002:000010a8       ??_C@_07NFBHKFPC@knife_t?$AA@ 100a10a8     recvproxy.obj
 0002:000010b0       ??_C@_0CF@GCGFCOHA@models?1weapons?1v_knife_default_t@ 100a10b0     recvproxy.obj
 0002:000010d8       ??_C@_0P@KEADBHDL@weapon_knife_t?$AA@ 100a10d8     recvproxy.obj
 0002:000010e8       ??_C@_0O@IOIOOIAL@m4a1_silencer?$AA@ 100a10e8     recvproxy.obj
 0002:000010f8       ??_C@_0CA@GLDPFOGK@models?1weapons?1v_rif_m4a1_s?4mdl?$AA@ 100a10f8     recvproxy.obj
 0002:00001118       ??_C@_0BF@FICGDOKM@weapon_m4a1_silencer?$AA@ 100a1118     recvproxy.obj
 0002:00001130       ??_C@_0BJ@PAELDKGN@?$CDSFUI_WPNHUD_M4_SILENCER?$AA@ 100a1130     recvproxy.obj
 0002:0000114c       ??_C@_0N@PMJINFFO@usp_silencer?$AA@ 100a114c     recvproxy.obj
 0002:0000115c       ??_C@_0BO@BKGJJKEI@models?1weapons?1v_pist_223?4mdl?$AA@ 100a115c     recvproxy.obj
 0002:0000117c       ??_C@_0BE@ICONJKPO@weapon_usp_silencer?$AA@ 100a117c     recvproxy.obj
 0002:00001190       ??_C@_0BK@MKLHNAHC@?$CDSFUI_WPNHUD_USP_SILENCER?$AA@ 100a1190     recvproxy.obj
 0002:000011ac       ??_C@_05EAIFGGED@cz75a?$AA@ 100a11ac     recvproxy.obj
 0002:000011b4       ??_C@_0CA@KCFAGPPO@models?1weapons?1v_pist_cz_75?4mdl?$AA@ 100a11b4     recvproxy.obj
 0002:000011d4       ??_C@_0N@HNHAEJGE@weapon_cz75a?$AA@ 100a11d4     recvproxy.obj
 0002:000011e4       ??_C@_0BC@IKIFMPAC@?$CDSFUI_WPNHUD_CZ75?$AA@ 100a11e4     recvproxy.obj
 0002:000011f8       ??_C@_08GIDBIBPA@revolver?$AA@ 100a11f8     recvproxy.obj
 0002:00001204       ??_C@_0CD@KFOANBMH@models?1weapons?1v_pist_revolver?4m@ 100a1204     recvproxy.obj
 0002:00001228       ??_C@_0BA@IKPIOPFG@weapon_revolver?$AA@ 100a1228     recvproxy.obj
 0002:00001238       ??_C@_0BG@GPICJGEO@?$CDSFUI_WPNHUD_REVOLVER?$AA@ 100a1238     recvproxy.obj
 0002:00001250       ??_C@_07MMCLEJJN@bayonet?$AA@ 100a1250     recvproxy.obj
 0002:00001258       ??_C@_0CD@LMKKKBBM@models?1weapons?1v_knife_bayonet?4m@ 100a1258     recvproxy.obj
 0002:0000127c       ??_C@_0BF@OFFBAMP@weapon_knife_bayonet?$AA@ 100a127c     recvproxy.obj
 0002:00001294       ??_C@_0BK@EBOIBPIO@?$CDSFUI_WPNHUD_KnifeBayonet?$AA@ 100a1294     recvproxy.obj
 0002:000012b0       ??_C@_0L@OFAKGPAA@knife_flip?$AA@ 100a12b0     recvproxy.obj
 0002:000012bc       ??_C@_0CA@OGLDNCPA@models?1weapons?1v_knife_flip?4mdl?$AA@ 100a12bc     recvproxy.obj
 0002:000012dc       ??_C@_0BC@LHFNNKPJ@weapon_knife_flip?$AA@ 100a12dc     recvproxy.obj
 0002:000012f0       ??_C@_0BH@NGKEDFIM@?$CDSFUI_WPNHUD_KnifeFlip?$AA@ 100a12f0     recvproxy.obj
 0002:00001308       ??_C@_09NLPDOPHH@knife_gut?$AA@ 100a1308     recvproxy.obj
 0002:00001314       ??_C@_0BP@NMKECDAE@models?1weapons?1v_knife_gut?4mdl?$AA@ 100a1314     recvproxy.obj
 0002:00001334       ??_C@_0BB@OEKECAME@weapon_knife_gut?$AA@ 100a1334     recvproxy.obj
 0002:00001348       ??_C@_0BG@HGLEIGBK@?$CDSFUI_WPNHUD_KnifeGut?$AA@ 100a1348     recvproxy.obj
 0002:00001360       ??_C@_0P@FCMFFJMF@knife_karambit?$AA@ 100a1360     recvproxy.obj
 0002:00001370       ??_C@_0CB@HFFOPHOM@models?1weapons?1v_knife_karam?4mdl@ 100a1370     recvproxy.obj
 0002:00001394       ??_C@_0BG@BKKBMHFI@weapon_knife_karambit?$AA@ 100a1394     recvproxy.obj
 0002:000013ac       ??_C@_0BI@OKHJLAGC@?$CDSFUI_WPNHUD_KnifeKaram?$AA@ 100a13ac     recvproxy.obj
 0002:000013c4       ??_C@_0BB@GHJJDI@knife_m9_bayonet?$AA@ 100a13c4     recvproxy.obj
 0002:000013d8       ??_C@_0CC@GFKFNEHH@models?1weapons?1v_knife_m9_bay?4md@ 100a13d8     recvproxy.obj
 0002:000013fc       ??_C@_0BI@NDDPJLEI@weapon_knife_m9_bayonet?$AA@ 100a13fc     recvproxy.obj
 0002:00001414       ??_C@_0BF@GOPELKLK@?$CDSFUI_WPNHUD_KnifeM9?$AA@ 100a1414     recvproxy.obj
 0002:0000142c       ??_C@_0P@HCDKNIHD@knife_tactical?$AA@ 100a142c     recvproxy.obj
 0002:0000143c       ??_C@_0CE@ODDAANPJ@models?1weapons?1v_knife_tactical?4@ 100a143c     recvproxy.obj
 0002:00001460       ??_C@_0BG@DKFOEGOO@weapon_knife_tactical?$AA@ 100a1460     recvproxy.obj
 0002:00001478       ??_C@_0BL@DLMKIKOH@?$CDSFUI_WPNHUD_KnifeTactical?$AA@ 100a1478     recvproxy.obj
 0002:00001494       ??_C@_0P@HCOCHGBC@knife_falchion?$AA@ 100a1494     recvproxy.obj
 0002:000014a4       ??_C@_0CN@EAHOPDAI@models?1weapons?1v_knife_falchion_@ 100a14a4     recvproxy.obj
 0002:000014d4       ??_C@_0BG@DKIGOIIP@weapon_knife_falchion?$AA@ 100a14d4     recvproxy.obj
 0002:000014ec       ??_C@_0CF@MPOCHLNG@?$CDSFUI_WPNHUD_knife_falchion_adva@ 100a14ec     recvproxy.obj
 0002:00001514       ??_C@_0BF@HOEFNIPG@knife_survival_bowie?$AA@ 100a1514     recvproxy.obj
 0002:0000152c       ??_C@_0CK@BBOODEBM@models?1weapons?1v_knife_survival_@ 100a152c     recvproxy.obj
 0002:00001558       ??_C@_0BM@HLEGPIDG@weapon_knife_survival_bowie?$AA@ 100a1558     recvproxy.obj
 0002:00001574       ??_C@_0CC@OPDMGKIB@?$CDSFUI_WPNHUD_knife_survival_bowi@ 100a1574     recvproxy.obj
 0002:00001598       ??_C@_0BA@CNPEEEPB@knife_butterfly?$AA@ 100a1598     recvproxy.obj
 0002:000015a8       ??_C@_0CF@EJAFFKLK@models?1weapons?1v_knife_butterfly@ 100a15a8     recvproxy.obj
 0002:000015d0       ??_C@_0BH@KDACMPJG@weapon_knife_butterfly?$AA@ 100a15d0     recvproxy.obj
 0002:000015e8       ??_C@_0BN@GDFONDGN@?$CDSFUI_WPNHUD_Knife_Butterfly?$AA@ 100a15e8     recvproxy.obj
 0002:00001608       ??_C@_0L@LEBBKLMI@knife_push?$AA@ 100a1608     recvproxy.obj
 0002:00001614       ??_C@_0CA@HGLGIAHN@models?1weapons?1v_knife_push?4mdl?$AA@ 100a1614     recvproxy.obj
 0002:00001634       ??_C@_0BC@OGEGBODB@weapon_knife_push?$AA@ 100a1634     recvproxy.obj
 0002:00001648       ??_C@_0BI@FGCAHKOI@?$CDSFUI_WPNHUD_knife_push?$AA@ 100a1648     recvproxy.obj
 0002:00001660       ??_C@_0EF@EOMAPHED@models?1weapons?1v_models?1arms?1glo@ 100a1660     recvproxy.obj
 0002:000016a8       ??_C@_0BK@PCLCELJB@studded_bloodhound_gloves?$AA@ 100a16a8     recvproxy.obj
 0002:000016c4       ??_C@_0BP@DPLFGPPF@?$CDCSGO_Wearable_t_studdedgloves?$AA@ 100a16c4     recvproxy.obj
 0002:000016e8       ??_C@_0EF@OENLKDAP@models?1weapons?1v_models?1arms?1glo@ 100a16e8     recvproxy.obj
 0002:00001730       ??_C@_08BGKABJIK@t_gloves?$AA@ 100a1730     recvproxy.obj
 0002:0000173c       ??_C@_0BP@EHPOHIOO@?$CDCSGO_Wearable_t_defaultgloves?$AA@ 100a173c     recvproxy.obj
 0002:00001760       ??_C@_0EH@MPMCCGN@models?1weapons?1v_models?1arms?1glo@ 100a1760     recvproxy.obj
 0002:000017a8       ??_C@_09CJPDNKCB@ct_gloves?$AA@ 100a17a8     recvproxy.obj
 0002:000017b4       ??_C@_0CA@OMBCPCAC@?$CDCSGO_Wearable_ct_defaultgloves?$AA@ 100a17b4     recvproxy.obj
 0002:000017d4       ??_C@_0DN@JPFEDAPJ@models?1weapons?1v_models?1arms?1glo@ 100a17d4     recvproxy.obj
 0002:00001814       ??_C@_0O@PPINEEAH@sporty_gloves?$AA@ 100a1814     recvproxy.obj
 0002:00001824       ??_C@_0BO@CJLMHIJD@?$CDCSGO_Wearable_v_sporty_glove?$AA@ 100a1824     recvproxy.obj
 0002:00001844       ??_C@_0DL@IGAOHMGH@models?1weapons?1v_models?1arms?1glo@ 100a1844     recvproxy.obj
 0002:00001880       ??_C@_0N@LHILOAAL@slick_gloves?$AA@ 100a1880     recvproxy.obj
 0002:00001890       ??_C@_0BN@LMICADKE@?$CDCSGO_Wearable_v_slick_glove?$AA@ 100a1890     recvproxy.obj
 0002:000018b0       ??_C@_0FD@BCCJPFNN@models?1weapons?1v_models?1arms?1glo@ 100a18b0     recvproxy.obj
 0002:00001904       ??_C@_0BC@FAHAAKB@leather_handwraps?$AA@ 100a1904     recvproxy.obj
 0002:00001918       ??_C@_0CC@INKPGFMC@?$CDCSGO_Wearable_v_leather_handwra@ 100a1918     recvproxy.obj
 0002:00001940       ??_C@_0EF@GAFFMNCN@models?1weapons?1v_models?1arms?1glo@ 100a1940     recvproxy.obj
 0002:00001988       ??_C@_0BC@JDNJOAAB@motorcycle_gloves?$AA@ 100a1988     recvproxy.obj
 0002:0000199c       ??_C@_0CC@FKOHELII@?$CDCSGO_Wearable_v_motorcycle_glov@ 100a199c     recvproxy.obj
 0002:000019c0       ??_C@_0EF@LFOPPMLF@models?1weapons?1v_models?1arms?1glo@ 100a19c0     recvproxy.obj
 0002:00001a08       ??_C@_0BC@CKOCPOCG@specialist_gloves?$AA@ 100a1a08     recvproxy.obj
 0002:00001a1c       ??_C@_0CC@HCNGFPO@?$CDCSGO_Wearable_v_specialist_glov@ 100a1a1c     recvproxy.obj
 0002:00001a40       ??_C@_0EL@KBAKKGLG@models?1weapons?1v_models?1arms?1glo@ 100a1a40     recvproxy.obj
 0002:00001a8c       ??_C@_0N@OGCIEONB@hydra_gloves?$AA@ 100a1a8c     recvproxy.obj
 0002:00001a9c       ??_C@_0BN@MBCMODJF@?$CDCSGO_Wearable_v_hydra_glove?$AA@ 100a1a9c     recvproxy.obj
 0002:00001abc       ??_C@_0BO@EEDONEPD@models?1weapons?1v_knife_gg?4mdl?$AA@ 100a1abc     recvproxy.obj
 0002:00001adc       ??_C@_0P@JMPFIBHF@CBaseViewModel?$AA@ 100a1adc     recvproxy.obj
 0002:00001aec       ??_C@_0M@MKLEPEA@m_nSequence?$AA@ 100a1aec     recvproxy.obj
 0002:00001af8       ??_C@_0BK@NNEDEOFF@DT_SmokeGrenadeProjectile?$AA@ 100a1af8     recvproxy.obj
 0002:00001b14       ??_C@_0BC@HHBEMJFI@m_bDidSmokeEffect?$AA@ 100a1b14     recvproxy.obj
 0002:00001b28       ??_C@_0BB@LBHIIDFM@DT_BaseViewModel?$AA@ 100a1b28     recvproxy.obj
 0002:00001b3c       ??_C@_0O@BLDHPAC@m_nModelIndex?$AA@ 100a1b3c     recvproxy.obj
 0002:00001b50       ??_7CTraceFilter@@6B@      100a1b50     Autowall.obj
 0002:00001b58       __real@3d4ccccd            100a1b58     Autowall.obj
 0002:00001b5c       __real@3dcccccd            100a1b5c     Autowall.obj
 0002:00001b60       __real@3e23d70a            100a1b60     Autowall.obj
 0002:00001b64       __real@3ea8f5c3            100a1b64     Autowall.obj
 0002:00001b68       __real@3f400000            100a1b68     Autowall.obj
 0002:00001b6c       __real@3f59999a            100a1b6c     Autowall.obj
 0002:00001b70       __real@3f60624dd2f1a9fc    100a1b70     Autowall.obj
 0002:00001b78       __real@3fa00000            100a1b78     Autowall.obj
 0002:00001b7c       __real@40400000            100a1b7c     Autowall.obj
 0002:00001b80       __real@40800000            100a1b80     Autowall.obj
 0002:00001b84       __real@41c00000            100a1b84     Autowall.obj
 0002:00001b88       __real@42200000            100a1b88     Autowall.obj
 0002:00001b8c       __real@453b8000            100a1b8c     Autowall.obj
 0002:00001b90       __real@45fa0000            100a1b90     Autowall.obj
 0002:00001b98       ??_C@_0EE@GIEDOBMF@68?5?$DP?5?$DP?5?$DP?5?$DP?58B?5C8?5E8?5?$DP?5?$DP?5?$DP?5?$DP?589?54@ 100a1b98     Chams.obj
 0002:00001bdc       ??_C@_1BG@OHGEGFBL@?$AAc?$AAl?$AAi?$AAe?$AAn?$AAt?$AA?4?$AAd?$AAl?$AAl?$AA?$AA@ 100a1bdc     Chams.obj
 0002:00001bf4       ??_C@_0DD@PILKPPAK@55?58B?5EC?583?5E4?5F8?583?5EC?534?553?58B@ 100a1bf4     Chams.obj
 0002:00001d1c       ??_C@_0BB@PJFNHEEA@VertexLitGeneric?$AA@ 100a1d1c     Chams.obj
 0002:00001d30       ??_C@_0N@KOCEKFOI@UnlitGeneric?$AA@ 100a1d30     Chams.obj
 0002:00001d40       ??_C@_0BH@HGLBKIJK@?$CDAimpulse_Chams_?$CFi?4vmt?$AA@ 100a1d40     Chams.obj
 0002:00001d58       __real@437f0000            100a1d58     Chams.obj
 0002:00001d5c       ??_C@_05LAPONLG@false?$AA@ 100a1d5c     Configuration.obj
 0002:00001d64       ??_C@_04LOAJBDKD@true?$AA@ 100a1d64     Configuration.obj
 0002:00001d6c       ??_C@_02NJPGOMH@?$CFf?$AA@ 100a1d6c     Configuration.obj
 0002:00001d70       ??_C@_04CGFJFPFD@none?$AA@ 100a1d70     Configuration.obj
 0002:00001d78       ??_C@_05CKCPPELI@duals?$AA@ 100a1d78     Configuration.obj
 0002:00001d80       ??_C@_05JEPNPBJI@five7?$AA@ 100a1d80     Configuration.obj
 0002:00001d88       ??_C@_05CAKDPM@galil?$AA@  100a1d88     Configuration.obj
 0002:00001d90       ??_C@_04NFAJIGAI@m4a4?$AA@ 100a1d90     Configuration.obj
 0002:00001d98       ??_C@_05PEBIAHCL@usp?9s?$AA@ 100a1d98     Configuration.obj
 0002:00001da0       ??_C@_06MPFLHGKA@m4a1?9s?$AA@ 100a1da0     Configuration.obj
 0002:00001da8       ??_C@_05JFPIJDLJ@p2000?$AA@ 100a1da8     Configuration.obj
 0002:00001db0       ??_C@_04GANIHECE@cz75?$AA@ 100a1db0     Configuration.obj
 0002:00001db8       ??_C@_09DJDINLGO@butterfly?$AA@ 100a1db8     Configuration.obj
 0002:00001dc4       ??_C@_08LPCBKGAO@falchion?$AA@ 100a1dc4     Configuration.obj
 0002:00001dd0       ??_C@_04DGGGELON@flip?$AA@ 100a1dd0     Configuration.obj
 0002:00001dd8       ??_C@_03GBCDPJBA@gut?$AA@  100a1dd8     Configuration.obj
 0002:00001ddc       ??_C@_08JPAGIJNJ@karambit?$AA@ 100a1ddc     Configuration.obj
 0002:00001de8       ??_C@_02EODFPDCE@m9?$AA@   100a1de8     Configuration.obj
 0002:00001dec       ??_C@_08JEJCHNIJ@huntsman?$AA@ 100a1dec     Configuration.obj
 0002:00001df8       ??_C@_05LJAHOHPJ@bowie?$AA@ 100a1df8     Configuration.obj
 0002:00001e00       ??_C@_07ICMBMMAD@daggers?$AA@ 100a1e00     Configuration.obj
 0002:00001e08       ??_C@_0L@NABKLOGA@RageToggle?$AA@ 100a1e08     Configuration.obj
 0002:00001e14       ??_C@_07HNMLFLME@Ragebot?$AA@ 100a1e14     Configuration.obj
 0002:00001e1c       ??_C@_07DOAOMMKG@Enabled?$AA@ 100a1e1c     Configuration.obj
 0002:00001e24       ??_C@_08LEIBMOK@AutoFire?$AA@ 100a1e24     Configuration.obj
 0002:00001e30       ??_C@_03PHODBHCN@FOV?$AA@  100a1e30     Configuration.obj
 0002:00001e34       ??_C@_06GHFEKJM@Silent?$AA@ 100a1e34     Configuration.obj
 0002:00001e3c       ??_C@_0L@OLJIFEGJ@AutoPistol?$AA@ 100a1e3c     Configuration.obj
 0002:00001e48       ??_C@_03CCEPDEKL@Key?$AA@  100a1e48     Configuration.obj
 0002:00001e4c       ??_C@_0P@GGILCKCO@AntiaimEnabled?$AA@ 100a1e4c     Configuration.obj
 0002:00001e5c       ??_C@_0M@FODOIBKH@Pre?9set?9AAs?$AA@ 100a1e5c     Configuration.obj
 0002:00001e68       ??_C@_0N@MHGDPNAK@AntiaimPitch?$AA@ 100a1e68     Configuration.obj
 0002:00001e78       ??_C@_0BA@CNFENBKB@AntiaimYaw?9true?$AA@ 100a1e78     Configuration.obj
 0002:00001e88       ??_C@_0BA@GDGAGDEI@AntiaimYaw?9fake?$AA@ 100a1e88     Configuration.obj
 0002:00001e98       ??_C@_09LMCOFIDK@attargets?$AA@ 100a1e98     Configuration.obj
 0002:00001ea4       ??_C@_04IJFJNCMM@edge?$AA@ 100a1ea4     Configuration.obj
 0002:00001eac       ??_C@_07JIOIILGI@KnifeAA?$AA@ 100a1eac     Configuration.obj
 0002:00001eb4       ??_C@_0M@OENEMLKC@Builder?9AAs?$AA@ 100a1eb4     Configuration.obj
 0002:00001ec0       ??_C@_0O@NDNODIBD@Builder?9Pitch?$AA@ 100a1ec0     Configuration.obj
 0002:00001ed0       ??_C@_0M@CNFIDHDG@Builder?9Yaw?$AA@ 100a1ed0     Configuration.obj
 0002:00001edc       ??_C@_0N@CAJBAIAL@Builder?9Fake?$AA@ 100a1edc     Configuration.obj
 0002:00001eec       ??_C@_0P@JPNMLLGH@Builder?9Jitter?$AA@ 100a1eec     Configuration.obj
 0002:00001efc       ??_C@_0BF@CNLOJCCB@Builder?9Jitter?9Range?$AA@ 100a1efc     Configuration.obj
 0002:00001f14       ??_C@_0BA@NAEIPDGG@Builder?9fJitter?$AA@ 100a1f14     Configuration.obj
 0002:00001f24       ??_C@_0BG@MHIFOOAC@Builder?9fJitter?9Range?$AA@ 100a1f24     Configuration.obj
 0002:00001f3c       ??_C@_0BE@NBDCDJP@Builder?9LBY?9Breaker?$AA@ 100a1f3c     Configuration.obj
 0002:00001f50       ??_C@_07HJFGLPMF@Fakelag?$AA@ 100a1f50     Configuration.obj
 0002:00001f58       ??_C@_0P@DFCECOAE@Fakelag?5Amount?$AA@ 100a1f58     Configuration.obj
 0002:00001f68       ??_C@_0N@EHJMDHLK@FriendlyFire?$AA@ 100a1f68     Configuration.obj
 0002:00001f78       ??_C@_06DJMEDGJ@Hitbox?$AA@ 100a1f78     Configuration.obj
 0002:00001f80       ??_C@_07MLLCJKOD@Hitscan?$AA@ 100a1f80     Configuration.obj
 0002:00001f88       ??_C@_0L@PBJBMNAN@AntiRecoil?$AA@ 100a1f88     Configuration.obj
 0002:00001f94       ??_C@_08CCHAFNGN@AutoStop?$AA@ 100a1f94     Configuration.obj
 0002:00001fa0       ??_C@_0L@KEGFABOE@AutoCrouch?$AA@ 100a1fa0     Configuration.obj
 0002:00001fac       ??_C@_09PJGLLJMI@AutoScope?$AA@ 100a1fac     Configuration.obj
 0002:00001fb8       ??_C@_0BF@KKLBMGIB@AutoWallDamageSniper?$AA@ 100a1fb8     Configuration.obj
 0002:00001fd0       ??_C@_0BF@PKLIEONJ@AutoWallDamagePistol?$AA@ 100a1fd0     Configuration.obj
 0002:00001fe8       ??_C@_0BE@DBKCILIJ@AutoWallDamageRifle?$AA@ 100a1fe8     Configuration.obj
 0002:00001ffc       ??_C@_0BE@DMAOAEDH@AutoWallDamageHeavy?$AA@ 100a1ffc     Configuration.obj
 0002:00002010       ??_C@_0BD@IPEHCJDH@AutoWallDamageSmgs?$AA@ 100a2010     Configuration.obj
 0002:00002024       ??_C@_0BH@KIPPNHNL@AutoWallDamageRevolver?$AA@ 100a2024     Configuration.obj
 0002:0000203c       ??_C@_09PFDGKOMN@HitChance?$AA@ 100a203c     Configuration.obj
 0002:00002048       ??_C@_0BA@IIOFAAME@HitChanceSniper?$AA@ 100a2048     Configuration.obj
 0002:00002058       ??_C@_0BA@NIOMIIJM@HitChancePistol?$AA@ 100a2058     Configuration.obj
 0002:00002068       ??_C@_0P@GKNOPIIB@HitChanceHeavy?$AA@ 100a2068     Configuration.obj
 0002:00002078       ??_C@_0O@OMHPLMAC@HitChanceSmgs?$AA@ 100a2078     Configuration.obj
 0002:00002088       ??_C@_0P@GHHCHHDP@HitChanceRifle?$AA@ 100a2088     Configuration.obj
 0002:00002098       ??_C@_0BC@FHPGCJEK@HitChanceRevolver?$AA@ 100a2098     Configuration.obj
 0002:000020ac       ??_C@_08LIPICMPE@Resolver?$AA@ 100a20ac     Configuration.obj
 0002:000020b8       ??_C@_07GHNJEINP@BAIMKey?$AA@ 100a20b8     Configuration.obj
 0002:000020c0       ??_C@_0M@IBLNPHGN@LegitToggle?$AA@ 100a20c0     Configuration.obj
 0002:000020cc       ??_C@_08ENBENAAM@Legitbot?$AA@ 100a20cc     Configuration.obj
 0002:000020d8       ??_C@_09EGFEMBLP@Backtrack?$AA@ 100a20d8     Configuration.obj
 0002:000020e4       ??_C@_0P@PLMOHBIN@BacktrackTicks?$AA@ 100a20e4     Configuration.obj
 0002:000020f4       ??_C@_0L@GGAGGPEG@SmokeCheck?$AA@ 100a20f4     Configuration.obj
 0002:00002100       ??_C@_0BF@HONGFDOK@Enable?5Legit?5AntiAim?$AA@ 100a2100     Configuration.obj
 0002:00002118       ??_C@_08OHCFHFAD@AA?5Angle?$AA@ 100a2118     Configuration.obj
 0002:00002124       ??_C@_09OAHKLDEF@Manual?5AA?$AA@ 100a2124     Configuration.obj
 0002:00002130       ??_C@_0N@PJHMHNKL@Hitbox?9Rifle?$AA@ 100a2130     Configuration.obj
 0002:00002140       ??_C@_05HOIAGEJD@Speed?$AA@ 100a2140     Configuration.obj
 0002:00002148       ??_C@_07DOECLDHN@RCS?9min?$AA@ 100a2148     Configuration.obj
 0002:00002150       ??_C@_07CMMJFHBC@RCS?9max?$AA@ 100a2150     Configuration.obj
 0002:00002158       ??_C@_0L@LEGOKPMC@Key?9Pistol?$AA@ 100a2158     Configuration.obj
 0002:00002164       ??_C@_0O@CPBANBML@Hitbox?9Pistol?$AA@ 100a2164     Configuration.obj
 0002:00002174       ??_C@_0L@HKMNDMKO@FOV?9Pistol?$AA@ 100a2174     Configuration.obj
 0002:00002180       ??_C@_0N@MJPCIDBA@Speed?9Pistol?$AA@ 100a2180     Configuration.obj
 0002:00002190       ??_C@_0P@FCCKKINH@RCS?9min?9pistol?$AA@ 100a2190     Configuration.obj
 0002:000021a0       ??_C@_0P@JOCHNDNI@RCS?9max?9pistol?$AA@ 100a21a0     Configuration.obj
 0002:000021b0       ??_C@_0L@OEGHCHJK@Key?9Sniper?$AA@ 100a21b0     Configuration.obj
 0002:000021bc       ??_C@_0O@HPBJFJJD@Hitbox?9Sniper?$AA@ 100a21bc     Configuration.obj
 0002:000021cc       ??_C@_0L@CKMELEPG@FOV?9Sniper?$AA@ 100a21cc     Configuration.obj
 0002:000021d8       ??_C@_0N@JJPLALEI@Speed?9Sniper?$AA@ 100a21d8     Configuration.obj
 0002:000021e8       ??_C@_0P@CCDCAIP@RCS?9min?9sniper?$AA@ 100a21e8     Configuration.obj
 0002:000021f8       ??_C@_0P@MOCOFLIA@RCS?9max?9sniper?$AA@ 100a21f8     Configuration.obj
 0002:00002208       ??_C@_0L@IIIAHLAH@Triggerbot?$AA@ 100a2208     Configuration.obj
 0002:00002214       ??_C@_05ENDOMFAI@Delay?$AA@ 100a2214     Configuration.obj
 0002:0000221c       ??_C@_09DKILJHFB@Hitchance?$AA@ 100a221c     Configuration.obj
 0002:00002228       ??_C@_0L@KGKBILFK@FilterHead?$AA@ 100a2228     Configuration.obj
 0002:00002234       ??_C@_0M@MEBHLDED@FilterChest?$AA@ 100a2234     Configuration.obj
 0002:00002240       ??_C@_0O@KLMAMEII@FilterStomach?$AA@ 100a2240     Configuration.obj
 0002:00002250       ??_C@_0L@GKOGPLPP@FilterArms?$AA@ 100a2250     Configuration.obj
 0002:0000225c       ??_C@_0L@FCCPNFLO@FilterLegs?$AA@ 100a225c     Configuration.obj
 0002:00002268       ??_C@_03ELMLMPLG@Box?$AA@  100a2268     Configuration.obj
 0002:0000226c       ??_C@_07GNHLELCG@Visuals?$AA@ 100a226c     Configuration.obj
 0002:00002274       ??_C@_07PMDFCHAJ@BoxType?$AA@ 100a2274     Configuration.obj
 0002:0000227c       ??_C@_09KEIHPPKM@BoxHotkey?$AA@ 100a227c     Configuration.obj
 0002:00002288       ??_C@_04FABLJDN@Name?$AA@  100a2288     Configuration.obj
 0002:00002290       ??_C@_02MEIMKHMB@HP?$AA@   100a2290     Configuration.obj
 0002:00002294       ??_C@_06KLEAFNAE@Weapon?$AA@ 100a2294     Configuration.obj
 0002:0000229c       ??_C@_0L@MNKEGOHO@WeaponType?$AA@ 100a229c     Configuration.obj
 0002:000022a8       ??_C@_05KJDEPIDC@Chams?$AA@ 100a22a8     Configuration.obj
 0002:000022b0       ??_C@_08HEGKIDKO@Skeleton?$AA@ 100a22b0     Configuration.obj
 0002:000022bc       ??_C@_08CMGONDFJ@speclist?$AA@ 100a22bc     Configuration.obj
 0002:000022c8       ??_C@_04MHPHMCPO@Misc?$AA@ 100a22c8     Configuration.obj
 0002:000022d0       ??_C@_07OFHHNGBL@TeamEsp?$AA@ 100a22d0     Configuration.obj
 0002:000022d8       ??_C@_0L@NNNPPGCK@GrenadeESP?$AA@ 100a22d8     Configuration.obj
 0002:000022e4       ??_C@_08IPDJBDHD@Aimlines?$AA@ 100a22e4     Configuration.obj
 0002:000022f0       ??_C@_0N@JBKGNHJL@AA?5Indicator?$AA@ 100a22f0     Configuration.obj
 0002:00002300       ??_C@_0P@KNGPBIHM@NoVisualRecoil?$AA@ 100a2300     Configuration.obj
 0002:00002310       ??_C@_09FMCLFIIA@Hitmarker?$AA@ 100a2310     Configuration.obj
 0002:0000231c       ??_C@_08CCNCICDC@Hitsound?$AA@ 100a231c     Configuration.obj
 0002:00002328       ??_C@_0L@HJDPJKMG@fovchanger?$AA@ 100a2328     Configuration.obj
 0002:00002334       ??_C@_0O@BJFNJDCK@viewmodel_fov?$AA@ 100a2334     Configuration.obj
 0002:00002344       ??_C@_07CGPOBILI@NoFlash?$AA@ 100a2344     Configuration.obj
 0002:0000234c       ??_C@_07PMBFJJG@NoSmoke?$AA@ 100a234c     Configuration.obj
 0002:00002354       ??_C@_04OKOFBOPB@Time?$AA@ 100a2354     Configuration.obj
 0002:0000235c       ??_C@_0O@BDOPODDH@noscopeborder?$AA@ 100a235c     Configuration.obj
 0002:0000236c       ??_C@_0M@NHJMGFHD@DroppedGuns?$AA@ 100a236c     Configuration.obj
 0002:00002378       ??_C@_0BC@FKGDHONB@GrenadePrediction?$AA@ 100a2378     Configuration.obj
 0002:0000238c       ??_C@_0BF@FEPPFCAF@thirdperson?5distance?$AA@ 100a238c     Configuration.obj
 0002:000023a4       ??_C@_0BA@KBLCAKDC@thirdperson?5key?$AA@ 100a23a4     Configuration.obj
 0002:000023b4       ??_C@_0BD@IBEIEOND@thirdperson?5switch?$AA@ 100a23b4     Configuration.obj
 0002:000023c8       ??_C@_08LIBLOIJB@EventLog?$AA@ 100a23c8     Configuration.obj
 0002:000023d4       ??_C@_07EJNGAGLI@Callout?$AA@ 100a23d4     Configuration.obj
 0002:000023dc       ??_C@_05JOOFIMIN@Armor?$AA@ 100a23dc     Configuration.obj
 0002:000023e4       ??_C@_0L@JGADNIFK@EnemyState?$AA@ 100a23e4     Configuration.obj
 0002:000023f0       ??_C@_08DFKPLDPN@Distance?$AA@ 100a23f0     Configuration.obj
 0002:000023fc       ??_C@_05INIBOMDG@Money?$AA@ 100a23fc     Configuration.obj
 0002:00002404       ??_C@_0M@IEEPLEBA@PlayerChams?$AA@ 100a2404     Configuration.obj
 0002:00002410       ??_C@_09KMPLFLAI@Teamchams?$AA@ 100a2410     Configuration.obj
 0002:0000241c       ??_C@_0M@BGIHDPDD@WeaponChams?$AA@ 100a241c     Configuration.obj
 0002:00002428       ??_C@_09DPMNHEPM@XQZ?5Chams?$AA@ 100a2428     Configuration.obj
 0002:00002434       ??_C@_0BB@NDPAJLA@PlayerCham?5Alpha?$AA@ 100a2434     Configuration.obj
 0002:00002448       ??_C@_0BE@HGCJGJAG@PlayerCham?5Material?$AA@ 100a2448     Configuration.obj
 0002:0000245c       ??_C@_0N@DNJPDMCC@Weapon?5Chams?$AA@ 100a245c     Configuration.obj
 0002:0000246c       ??_C@_0BD@OBEDGMHA@Weapon?5Chams?5Alpha?$AA@ 100a246c     Configuration.obj
 0002:00002480       ??_C@_0BE@NNLMFKBC@WeaponCham?5Material?$AA@ 100a2480     Configuration.obj
 0002:00002494       ??_C@_0L@COGCLCHC@Hand?5Chams?$AA@ 100a2494     Configuration.obj
 0002:000024a0       ??_C@_0BB@IJHHLJCH@Hand?5Chams?5Alpha?$AA@ 100a24a0     Configuration.obj
 0002:000024b4       ??_C@_0BC@CINLKKJA@HandCham?5Material?$AA@ 100a24b4     Configuration.obj
 0002:000024c8       ??_C@_0L@PIKIAIND@PlayerGlow?$AA@ 100a24c8     Configuration.obj
 0002:000024d4       ??_C@_0BA@FPGOJFPK@PlayerGlow?5Team?$AA@ 100a24d4     Configuration.obj
 0002:000024e4       ??_C@_0BB@JBLECMDJ@PlayerGlow?5Alpha?$AA@ 100a24e4     Configuration.obj
 0002:000024f8       ??_C@_0L@OCKNLABP@WeaponGlow?$AA@ 100a24f8     Configuration.obj
 0002:00002504       ??_C@_0BB@PBEGGHLH@WeaponGlow?5Alpha?$AA@ 100a2504     Configuration.obj
 0002:00002518       ??_C@_08PHNCFOHN@BombGlow?$AA@ 100a2518     Configuration.obj
 0002:00002524       ??_C@_0P@KCPGBAJ@BombGlow?5Alpha?$AA@ 100a2524     Configuration.obj
 0002:00002534       ??_C@_0M@EINJEPFB@GrenadePred?$AA@ 100a2534     Configuration.obj
 0002:00002540       ??_C@_0L@FHBHPKMB@AngleLines?$AA@ 100a2540     Configuration.obj
 0002:0000254c       ??_C@_0BA@MDMPHFD@Awall?5Indicator?$AA@ 100a254c     Configuration.obj
 0002:0000255c       ??_C@_09MLLBNLCF@Nightmode?$AA@ 100a255c     Configuration.obj
 0002:00002568       ??_C@_07OEBOGFD@BombEsp?$AA@ 100a2568     Configuration.obj
 0002:00002570       ??_C@_05ELHBHDGK@Radar?$AA@ 100a2570     Configuration.obj
 0002:00002578       ??_C@_04IJMICJMM@Bhop?$AA@ 100a2578     Configuration.obj
 0002:00002580       ??_C@_08NEDGFHGF@FPSBoost?$AA@ 100a2580     Configuration.obj
 0002:0000258c       ??_C@_06NDBNOOOH@Skybox?$AA@ 100a258c     Configuration.obj
 0002:00002594       ??_C@_07MANFBANA@LegitAA?$AA@ 100a2594     Configuration.obj
 0002:0000259c       ??_C@_09GKKBHKCB@LegitBhop?$AA@ 100a259c     Configuration.obj
 0002:000025a8       ??_C@_0BA@EEGAKINM@FakePing?5Amount?$AA@ 100a25a8     Configuration.obj
 0002:000025b8       ??_C@_0L@CODBGIPG@Autostrafe?$AA@ 100a25b8     Configuration.obj
 0002:000025c4       ??_C@_09PHJEKMAJ@ShowRanks?$AA@ 100a25c4     Configuration.obj
 0002:000025d0       ??_C@_0L@JGIODLBJ@AutoAccept?$AA@ 100a25d0     Configuration.obj
 0002:000025dc       ??_C@_0N@DPJHECBK@ragequit?9key?$AA@ 100a25dc     Configuration.obj
 0002:000025ec       ??_C@_0N@CJCJDHLC@Chrome?5World?$AA@ 100a25ec     Configuration.obj
 0002:000025fc       ??_C@_0N@IHBAIBJN@PurchaseInfo?$AA@ 100a25fc     Configuration.obj
 0002:0000260c       ??_C@_07OILPIELE@DmgInfo?$AA@ 100a260c     Configuration.obj
 0002:00002614       ??_C@_0BB@JBCFMPBJ@Clantags?5Enabled?$AA@ 100a2614     Configuration.obj
 0002:00002628       ??_C@_0N@ENPDBAAI@syncclantags?$AA@ 100a2628     Configuration.obj
 0002:00002638       ??_C@_07EPIAAEAE@BrdrClr?$AA@ 100a2638     Configuration.obj
 0002:00002640       ??_C@_0O@GCDIDIBJ@RainbowSlider?$AA@ 100a2640     Configuration.obj
 0002:00002650       ??_C@_06OFNJOBDK@enable?$AA@ 100a2650     Configuration.obj
 0002:00002658       ??_C@_05CNBMBDPJ@skins?$AA@ 100a2658     Configuration.obj
 0002:00002660       ??_C@_0N@NDDJJKHA@WeaponTagsOn?$AA@ 100a2660     Configuration.obj
 0002:00002670       ??_C@_0L@HPIECAIA@StattrakOn?$AA@ 100a2670     Configuration.obj
 0002:0000267c       ??_C@_09KFHOGPEE@gloveskin?$AA@ 100a267c     Configuration.obj
 0002:00002688       ??_C@_05CMLNJHKH@glove?$AA@ 100a2688     Configuration.obj
 0002:00002690       ??_C@_0L@KMIJDEHL@modelknife?$AA@ 100a2690     Configuration.obj
 0002:0000269c       ??_C@_04BGDBHLHN@Skin?$AA@ 100a269c     Configuration.obj
 0002:000026a4       ??_C@_09OJLCLGIA@C4GlowRed?$AA@ 100a26a4     Configuration.obj
 0002:000026b0       ??_C@_06ICDCBJPI@Colors?$AA@ 100a26b0     Configuration.obj
 0002:000026b8       ??_C@_0M@JFIEJHHN@C4GlowGreen?$AA@ 100a26b8     Configuration.obj
 0002:000026c4       ??_C@_0L@PFNHLPDL@C4GlowBlue?$AA@ 100a26c4     Configuration.obj
 0002:000026d0       ??_C@_0BC@NMCFNDPD@EnemyChamsNVisRed?$AA@ 100a26d0     Configuration.obj
 0002:000026e4       ??_C@_0BE@FIGOLDOC@Spread?5CrosshairRed?$AA@ 100a26e4     Configuration.obj
 0002:000026f8       ??_C@_0BG@LCCFNLAL@Spread?5CrosshairGreen?$AA@ 100a26f8     Configuration.obj
 0002:00002710       ??_C@_0BF@FGNKGDEK@Spread?5CrosshairBlue?$AA@ 100a2710     Configuration.obj
 0002:00002728       ??_C@_0BE@FPIGFIHM@Recoil?5CrosshairRed?$AA@ 100a2728     Configuration.obj
 0002:0000273c       ??_C@_0BG@GKDPEAIH@Recoil?5CrosshairGreen?$AA@ 100a273c     Configuration.obj
 0002:00002754       ??_C@_0BF@EBGKDFOC@Recoil?5CrosshairBlue?$AA@ 100a2754     Configuration.obj
 0002:0000276c       ??_C@_0BB@PDMCMPF@Hitmark?5ColorRed?$AA@ 100a276c     Configuration.obj
 0002:00002780       ??_C@_0BD@NHBGIGBK@Hitmark?5ColorGreen?$AA@ 100a2780     Configuration.obj
 0002:00002794       ??_C@_0BC@NFFOLEBC@Hitmark?5ColorBlue?$AA@ 100a2794     Configuration.obj
 0002:000027a8       ??_C@_0BH@DCPPKNHC@BacktrackTick?5ColorRed?$AA@ 100a27a8     Configuration.obj
 0002:000027c0       ??_C@_0BJ@DJGLAGOD@BacktrackTick?5ColorGreen?$AA@ 100a27c0     Configuration.obj
 0002:000027dc       ??_C@_0BI@KGLPGBBA@BacktrackTick?5ColorBlue?$AA@ 100a27dc     Configuration.obj
 0002:000027f4       ??_C@_0BF@PBGCINBG@GrenadePred?5ColorRed?$AA@ 100a27f4     Configuration.obj
 0002:0000280c       ??_C@_0BH@DJEELBF@GrenadePred?5ColorGreen?$AA@ 100a280c     Configuration.obj
 0002:00002824       ??_C@_0BG@OMKDFJHB@GrenadePred?5ColorBlue?$AA@ 100a2824     Configuration.obj
 0002:0000283c       ??_C@_0BC@PHABEBMO@Skeleton?5ColorRed?$AA@ 100a283c     Configuration.obj
 0002:00002850       ??_C@_0BE@NIKHIMPK@Skeleton?5ColorGreen?$AA@ 100a2850     Configuration.obj
 0002:00002864       ??_C@_0BD@GEKNGAFL@Skeleton?5ColorBlue?$AA@ 100a2864     Configuration.obj
 0002:00002878       ??_C@_0BE@KMEOBNAI@EnemyChamsNVisGreen?$AA@ 100a2878     Configuration.obj
 0002:0000288c       ??_C@_0BD@DMOOAINI@EnemyChamsNVisBlue?$AA@ 100a288c     Configuration.obj
 0002:000028a0       ??_C@_0BB@BCPNHLJC@EnemyChamsVisRed?$AA@ 100a28a0     Configuration.obj
 0002:000028b4       ??_C@_0BD@IKFKCOM@EnemyChamsVisGreen?$AA@ 100a28b4     Configuration.obj
 0002:000028c8       ??_C@_0BC@GJFIBLO@EnemyChamsVisBlue?$AA@ 100a28c8     Configuration.obj
 0002:000028dc       ??_C@_0M@INAGOIDP@EnemyESPRed?$AA@ 100a28dc     Configuration.obj
 0002:000028e8       ??_C@_0O@HKAKDNEN@EnemyESPGreen?$AA@ 100a28e8     Configuration.obj
 0002:000028f8       ??_C@_0N@KOGNKFHI@EnemyESPBlue?$AA@ 100a28f8     Configuration.obj
 0002:00002908       ??_C@_0M@EHDNOBPN@EnemGlowRed?$AA@ 100a2908     Configuration.obj
 0002:00002914       ??_C@_0O@PKBKPKBO@EnemGlowGreen?$AA@ 100a2914     Configuration.obj
 0002:00002924       ??_C@_0N@NLMNDNON@EnemGlowBlue?$AA@ 100a2924     Configuration.obj
 0002:00002934       ??_C@_0BB@BNJDJCMJ@TeamChamsNVisRed?$AA@ 100a2934     Configuration.obj
 0002:00002948       ??_C@_0BD@IIDMHDMB@TeamChamsNVisGreen?$AA@ 100a2948     Configuration.obj
 0002:0000295c       ??_C@_0BC@PKCDGHCL@TeamChamsNVisBlue?$AA@ 100a295c     Configuration.obj
 0002:00002970       ??_C@_0BA@MFKBOKKM@TeamChamsVisRed?$AA@ 100a2970     Configuration.obj
 0002:00002980       ??_C@_0BC@MOGIMNBP@TeamChamsVisGreen?$AA@ 100a2980     Configuration.obj
 0002:00002994       ??_C@_0BB@MHCDMAIE@TeamChamsVisBlue?$AA@ 100a2994     Configuration.obj
 0002:000029a8       ??_C@_0L@OBJEIAAB@TeamESPRed?$AA@ 100a29a8     Configuration.obj
 0002:000029b4       ??_C@_0N@HIKGKDMI@TeamESPGreen?$AA@ 100a29b4     Configuration.obj
 0002:000029c4       ??_C@_0M@GPGACKLL@TeamESPBlue?$AA@ 100a29c4     Configuration.obj
 0002:000029d0       ??_C@_0M@PKEKGHFA@TeamGlowRed?$AA@ 100a29d0     Configuration.obj
 0002:000029dc       ??_C@_0O@OFGIKDNI@TeamGlowGreen?$AA@ 100a29dc     Configuration.obj
 0002:000029ec       ??_C@_0N@HDBHJFDO@TeamGlowBlue?$AA@ 100a29ec     Configuration.obj
 0002:000029fc       ??_C@_0O@HFFBPFAD@WeaponGlowRed?$AA@ 100a29fc     Configuration.obj
 0002:00002a0c       ??_C@_0BA@GKPPNADM@WeaponGlowGreen?$AA@ 100a2a0c     Configuration.obj
 0002:00002a1c       ??_C@_0P@IBPKIOOC@WeaponGlowBlue?$AA@ 100a2a1c     Configuration.obj
 0002:00002a2c       ??_C@_08BEIGEANL@FlashRed?$AA@ 100a2a2c     Configuration.obj
 0002:00002a38       ??_C@_0L@JIBFLJPP@FlashGreen?$AA@ 100a2a38     Configuration.obj
 0002:00002a44       ??_C@_09JJDADLB@FlashBlue?$AA@ 100a2a44     Configuration.obj
 0002:00002a50       ??_C@_06IJBEGBGO@HeGRed?$AA@ 100a2a50     Configuration.obj
 0002:00002a58       ??_C@_08ENMOGOMO@HeGGreen?$AA@ 100a2a58     Configuration.obj
 0002:00002a64       ??_C@_07LCAFNGJD@HeGBlue?$AA@ 100a2a64     Configuration.obj
 0002:00002a6c       ??_C@_0O@PLJEIKHK@IncendiaryRed?$AA@ 100a2a6c     Configuration.obj
 0002:00002a7c       ??_C@_0BA@FELIPAOL@IncendiaryGreen?$AA@ 100a2a7c     Configuration.obj
 0002:00002a8c       ??_C@_0P@KIKNICAF@IncendiaryBlue?$AA@ 100a2a8c     Configuration.obj
 0002:00002a9c       ??_C@_08JLDEBOIN@DecoyRed?$AA@ 100a2a9c     Configuration.obj
 0002:00002aa8       ??_C@_0L@PICHLAGM@DecoyGreen?$AA@ 100a2aa8     Configuration.obj
 0002:00002ab4       ??_C@_09ILBEEFCO@DecoyBlue?$AA@ 100a2ab4     Configuration.obj
 0002:00002ac0       ??_C@_08HJFBHIGB@SmokeRed?$AA@ 100a2ac0     Configuration.obj
 0002:00002acc       ??_C@_0L@KODNCKIE@SmokeGreen?$AA@ 100a2acc     Configuration.obj
 0002:00002ad8       ??_C@_09CCEKIOBL@SmokeBlue?$AA@ 100a2ad8     Configuration.obj
 0002:00002ae4       ??_C@_0L@KDEKLJDI@MolotovRed?$AA@ 100a2ae4     Configuration.obj
 0002:00002af0       ??_C@_0N@CJCHOEKE@MolotovGreen?$AA@ 100a2af0     Configuration.obj
 0002:00002b00       ??_C@_0M@DACHHMIK@MolotovBlue?$AA@ 100a2b00     Configuration.obj
 0002:00002b0c       ??_C@_0O@KCKMKPGA@?2Insidous?4cc?2?$AA@ 100a2b0c     Configuration.obj
 0002:00002b1c       ??_C@_06EBJIHFIP@Legit1?$AA@ 100a2b1c     Configuration.obj
 0002:00002b24       ??_C@_06GKLFCGEM@Legit2?$AA@ 100a2b24     Configuration.obj
 0002:00002b2c       ??_C@_06HDKOBHAN@Legit3?$AA@ 100a2b2c     Configuration.obj
 0002:00002b34       ??_C@_09CCALIKBH@Semi?9Rage?$AA@ 100a2b34     Configuration.obj
 0002:00002b40       ??_C@_05IFJJGIJO@Rage1?$AA@ 100a2b40     Configuration.obj
 0002:00002b48       ??_C@_05KOLEDLFN@Rage2?$AA@ 100a2b48     Configuration.obj
 0002:00002b50       ??_C@_05LHKPAKBM@Rage3?$AA@ 100a2b50     Configuration.obj
 0002:00002b58       ??_C@_04KHNODPOA@HvH1?$AA@ 100a2b58     Configuration.obj
 0002:00002b60       ??_C@_04IMPDGMCD@HvH2?$AA@ 100a2b60     Configuration.obj
 0002:00002b68       ??_C@_04JFOIFNGC@HvH3?$AA@ 100a2b68     Configuration.obj
 0002:00002b70       ??_C@_05BBOGGNLJ@Other?$AA@ 100a2b70     Configuration.obj
 0002:00002b78       ??_C@_0BI@CFPLBAOH@invalid?5string?5position?$AA@ 100a2b78     Configuration.obj
 0002:00002b90       ??_C@_0L@PHFEFMEF@client?4dll?$AA@ 100a2b90     EnginePrediction.obj
 0002:00002b9c       ??_C@_05BPFOPNCG@Knife?$AA@ 100a2b9c     ESP.obj
 0002:00002ba4       ??_C@_04KDDOELFP@AK47?$AA@ 100a2ba4     ESP.obj
 0002:00002bac       ??_C@_03CIFMCKCC@AUG?$AA@  100a2bac     ESP.obj
 0002:00002bb0       ??_C@_08OKMAADFD@Revolver?$AA@ 100a2bb0     ESP.obj
 0002:00002bbc       ??_C@_03COFLHKNK@AWP?$AA@  100a2bbc     ESP.obj
 0002:00002bc0       ??_C@_05CEPIGKML@Bizon?$AA@ 100a2bc0     ESP.obj
 0002:00002bc8       ??_C@_04GPGPLFMI@Bomb?$AA@ 100a2bc8     ESP.obj
 0002:00002bd0       ??_C@_04BCLPEBO@CZ75?$AA@  100a2bd0     ESP.obj
 0002:00002bd8       ??_C@_06NBAKNDOD@Deagle?$AA@ 100a2bd8     ESP.obj
 0002:00002be0       ??_C@_05BPMDPIFE@Decoy?$AA@ 100a2be0     ESP.obj
 0002:00002be8       ??_C@_06DBOHLEHH@Elites?$AA@ 100a2be8     ESP.obj
 0002:00002bf0       ??_C@_05LHCFENCM@Famas?$AA@ 100a2bf0     ESP.obj
 0002:00002bf8       ??_C@_09OMFOBOAC@FiveSeven?$AA@ 100a2bf8     ESP.obj
 0002:00002c04       ??_C@_05LDPHIKKB@Flash?$AA@ 100a2c04     ESP.obj
 0002:00002c0c       ??_C@_05NANBJKGF@G3SG1?$AA@ 100a2c0c     ESP.obj
 0002:00002c14       ??_C@_05HIMKGMK@Galil?$AA@ 100a2c14     ESP.obj
 0002:00002c1c       ??_C@_05KPHPNOIE@Glock?$AA@ 100a2c1c     ESP.obj
 0002:00002c24       ??_C@_07OPFMIBLN@Molotov?$AA@ 100a2c24     ESP.obj
 0002:00002c2c       ??_C@_05GAJJNIIE@Scout?$AA@ 100a2c2c     ESP.obj
 0002:00002c34       ??_C@_07GIIHBBNN@Grenade?$AA@ 100a2c34     ESP.obj
 0002:00002c3c       ??_C@_04OOHKGEMG@M249?$AA@ 100a2c3c     ESP.obj
 0002:00002c44       ??_C@_04FBPCBLKJ@M4A1?$AA@ 100a2c44     ESP.obj
 0002:00002c4c       ??_C@_05OLCGHIJA@MAC10?$AA@ 100a2c4c     ESP.obj
 0002:00002c54       ??_C@_04FPMEJADD@MAG7?$AA@ 100a2c54     ESP.obj
 0002:00002c5c       ??_C@_03ELHOCOIH@MP7?$AA@  100a2c5c     ESP.obj
 0002:00002c60       ??_C@_03NFPNADAJ@MP9?$AA@  100a2c60     ESP.obj
 0002:00002c64       ??_C@_04JBMBEHJL@Nova?$AA@ 100a2c64     ESP.obj
 0002:00002c6c       ??_C@_05LLDFNFHM@Negev?$AA@ 100a2c6c     ESP.obj
 0002:00002c74       ??_C@_04KGAKOGIL@P250?$AA@ 100a2c74     ESP.obj
 0002:00002c7c       ??_C@_03OBEKMHKN@P90?$AA@  100a2c7c     ESP.obj
 0002:00002c80       ??_C@_08OPKGKENO@SawedOff?$AA@ 100a2c80     ESP.obj
 0002:00002c8c       ??_C@_06FFMBKLE@SCAR20?$AA@ 100a2c8c     ESP.obj
 0002:00002c94       ??_C@_05JKMIMLIP@Smoke?$AA@ 100a2c94     ESP.obj
 0002:00002c9c       ??_C@_05ECLNBOMB@SG556?$AA@ 100a2c9c     ESP.obj
 0002:00002ca4       ??_C@_04CENMHHMF@TEC9?$AA@ 100a2ca4     ESP.obj
 0002:00002cac       ??_C@_05JCFEJGIP@P2000?$AA@ 100a2cac     ESP.obj
 0002:00002cb4       ??_C@_03PGCJBCMO@USP?$AA@  100a2cb4     ESP.obj
 0002:00002cb8       ??_C@_03OAJBJMLE@UMP?$AA@  100a2cb8     ESP.obj
 0002:00002cbc       ??_C@_06DDIGILCE@XM1014?$AA@ 100a2cbc     ESP.obj
 0002:00002cc4       ??_C@_04BBKOFIDH@Zeus?$AA@ 100a2cc4     ESP.obj
 0002:00002ccc       ??_C@_06FEKDEEJK@M4A1?9S?$AA@ 100a2ccc     ESP.obj
 0002:00002cd4       ??_C@_03JOBGJDND@K?$CLH?$AA@ 100a2cd4     ESP.obj
 0002:00002cd8       ??_C@_01KNKLHLMO@K?$AA@    100a2cd8     ESP.obj
 0002:00002cdc       ??_C@_0BP@NOJNNJLB@Insidous?4cc?5Private?5Build?5v1?42?$AA@ 100a2cdc     ESP.obj
 0002:00002cfc       ??_C@_04NMBCHJDN@?$CFiFT?$AA@ 100a2cfc     ESP.obj
 0002:00002d04       ??_C@_06BAKNIAGO@Kuolet?$AA@ 100a2d04     ESP.obj
 0002:00002d0c       ??_C@_07DCMIBBLI@Selvi?dt?$AA@ 100a2d0c     ESP.obj
 0002:00002d14       ??_C@_0M@GJJBJHBE@Pommi?3?5?$CF?41f?$AA@ 100a2d14     ESP.obj
 0002:00002d20       ??_C@_0P@CCOKNMCM@Defusing?3?5?$CF?41f?$AA@ 100a2d20     ESP.obj
 0002:00002d30       ??_C@_07MMAOBMOA@Nu?5Time?$AA@ 100a2d30     ESP.obj
 0002:00002d38       ??_C@_09BIHNNKHL@Flashbang?$AA@ 100a2d38     ESP.obj
 0002:00002d44       ??_C@_0M@NOOAJBNC@m67_grenade?$AA@ 100a2d44     ESP.obj
 0002:00002d50       ??_C@_05JNGEMOLJ@smoke?$AA@ 100a2d50     ESP.obj
 0002:00002d58       ??_C@_0L@HLPGEAPM@incendiary?$AA@ 100a2d58     ESP.obj
 0002:00002d64       ??_C@_0L@PNGKMPCL@Incendiary?$AA@ 100a2d64     ESP.obj
 0002:00002d70       ??_C@_07BGCKODOL@molotov?$AA@ 100a2d70     ESP.obj
 0002:00002d78       ??_C@_02DKCKIIND@?$CFs?$AA@ 100a2d78     ESP.obj
 0002:00002d7c       ??_C@_07EKDHCOID@Hostage?$AA@ 100a2d7c     ESP.obj
 0002:00002d84       ??_C@_0N@OBCPNEDJ@Bomb?5Carrier?$AA@ 100a2d84     ESP.obj
 0002:00002d94       ??_C@_07PFPMPDAJ@Flashed?$AA@ 100a2d94     ESP.obj
 0002:00002d9c       ??_C@_02KKHOEPMP@FT?$AA@   100a2d9c     ESP.obj
 0002:00002da0       ??_C@_01LBDDMOBJ@?$FN?$AA@ 100a2da0     ESP.obj
 0002:00002da4       ??_C@_01DNKMNLPK@?$HM?$AA@ 100a2da4     ESP.obj
 0002:00002da8       ??_C@_01OHGJGJJP@?$FL?$AA@ 100a2da8     ESP.obj
 0002:00002dac       ??_C@_06MBBOEJDH@Scoped?$AA@ 100a2dac     ESP.obj
 0002:00002db4       ??_C@_09MMBLCCFO@Reloading?$AA@ 100a2db4     ESP.obj
 0002:00002dc0       ??_C@_01EPMOAMKG@$?$AA@    100a2dc0     ESP.obj
 0002:00002dc4       ??_C@_08MLOGCOBL@DMG?3?5?$CF1i?$AA@ 100a2dc4     ESP.obj
 0002:00002dd0       ??_C@_06PDFPIENG@DMG?3?50?$AA@ 100a2dd0     ESP.obj
 0002:00002dd8       ??_C@_03BKOFLFKJ@lby?$AA@  100a2dd8     ESP.obj
 0002:00002ddc       ??_C@_04PKFANLLI@REAL?$AA@ 100a2ddc     ESP.obj
 0002:00002de4       ??_C@_04DMAHEDDC@FAKE?$AA@ 100a2de4     ESP.obj
 0002:00002dec       ??_C@_04GHNNFJCK@?$CF?40f?$AA@ 100a2dec     ESP.obj
 0002:00002df4       ??_C@_0L@NPFKENCH@sv_skyname?$AA@ 100a2df4     ESP.obj
 0002:00002e00       ??_C@_0BJ@DABJDKIL@r_DrawSpecificStaticProp?$AA@ 100a2e00     ESP.obj
 0002:00002e1c       ??_C@_0BB@DNKKAGKJ@sky_csgo_night02?$AA@ 100a2e1c     ESP.obj
 0002:00002e30       ??_C@_0P@HPCHOLAI@World?5textures?$AA@ 100a2e30     ESP.obj
 0002:00002e40       ??_C@_0L@OMFLPMKM@StaticProp?$AA@ 100a2e40     ESP.obj
 0002:00002e4c       ??_C@_0CE@KEFAANIL@models?1props?1de_dust?1palace_bigd@ 100a2e4c     ESP.obj
 0002:00002e70       ??_C@_0CE@CLEEKGHG@models?1props?1de_dust?1palace_pill@ 100a2e70     ESP.obj
 0002:00002e94       ??_C@_0BC@DOCBLOCD@Particle?5textures?$AA@ 100a2e94     ESP.obj
 0002:00002ea8       ??_C@_03KHICJKCI@?4?4?4?$AA@ 100a2ea8     ESP.obj
 0002:00002eac       __real@00000000            100a2eac     ESP.obj
 0002:00002eb0       __real@3c23d70a            100a2eb0     ESP.obj
 0002:00002eb4       __real@3cd013a9            100a2eb4     ESP.obj
 0002:00002eb8       __real@3f333333            100a2eb8     ESP.obj
 0002:00002ebc       __real@3fa66666            100a2ebc     ESP.obj
 0002:00002ec0       __real@4004666666666666    100a2ec0     ESP.obj
 0002:00002ec8       __real@4019000000000000    100a2ec8     ESP.obj
 0002:00002ed0       __real@401921fb54442d18    100a2ed0     ESP.obj
 0002:00002ed8       __real@406fe00000000000    100a2ed8     ESP.obj
 0002:00002ee0       __real@41200000            100a2ee0     ESP.obj
 0002:00002ee4       __real@420c0000            100a2ee4     ESP.obj
 0002:00002ee8       __real@42340000            100a2ee8     ESP.obj
 0002:00002eec       __real@42975c29            100a2eec     ESP.obj
 0002:00002ef0       __real@42b40000            100a2ef0     ESP.obj
 0002:00002ef4       __real@42c80000            100a2ef4     ESP.obj
 0002:00002ef8       __real@43e1599a            100a2ef8     ESP.obj
 0002:00002efc       __real@44454ccd            100a2efc     ESP.obj
 0002:00002f00       __real@461c4000            100a2f00     ESP.obj
 0002:00002f04       __real@c0000000            100a2f04     ESP.obj
 0002:00002f10       __xmm@00000000000000030000000300000002 100a2f10     ESP.obj
 0002:00002f20       __xmm@00000002000000010000000100000000 100a2f20     ESP.obj
 0002:00002f30       __xmm@00000004000000070000000700000006 100a2f30     ESP.obj
 0002:00002f40       __xmm@00000005000000010000000400000000 100a2f40     ESP.obj
 0002:00002f50       __xmm@00000006000000050000000500000004 100a2f50     ESP.obj
 0002:00002f60       __xmm@00000007000000030000000600000002 100a2f60     ESP.obj
 0002:00002f70       __xmm@80000000800000008000000080000000 100a2f70     ESP.obj
 0002:00002f80       ??_C@_03MLMOILGK@Msg?$AA@  100a2f80     Global.obj
 0002:00002f84       ??_C@_09LGKBAKDK@tier0?4dll?$AA@ 100a2f84     Global.obj
 0002:00002f94       ??_7CTraceFilterWorldAndPropsOnly@@6B@ 100a2f94     GrenadePrediction.obj
 0002:00002fac       __real@3e4ccccd            100a2fac     GrenadePrediction.obj
 0002:00002fb0       __real@3e99999a            100a2fb0     GrenadePrediction.obj
 0002:00002fb8       __real@3eb0c6f7a0b5ed8d    100a2fb8     GrenadePrediction.obj
 0002:00002fc0       __real@3ee66666            100a2fc0     GrenadePrediction.obj
 0002:00002fc8       __real@3f91df46a0000000    100a2fc8     GrenadePrediction.obj
 0002:00002fd0       __real@3fc00000            100a2fd0     GrenadePrediction.obj
 0002:00002fd4       __real@41400000            100a2fd4     GrenadePrediction.obj
 0002:00002fd8       __real@41b00000            100a2fd8     GrenadePrediction.obj
 0002:00002fdc       __real@43a00000            100a2fdc     GrenadePrediction.obj
 0002:00002fe0       __real@43b40000            100a2fe0     GrenadePrediction.obj
 0002:00002fe4       __real@43c80000            100a2fe4     GrenadePrediction.obj
 0002:00002fe8       __real@4428c000            100a2fe8     GrenadePrediction.obj
 0002:00002fec       __real@bdcccccd            100a2fec     GrenadePrediction.obj
 0002:00002ff0       __real@bf800000            100a2ff0     GrenadePrediction.obj
 0002:00002ff4       __real@c2b40000            100a2ff4     GrenadePrediction.obj
 0002:00003000       __xmm@7fffffffffffffff7fffffffffffffff 100a3000     GrenadePrediction.obj
 0002:00003010       ??_C@_0BC@NOOJPJHB@85?5C0?575?530?538?586?$AA@ 100a3010     Hooks.obj
 0002:00003024       ??_C@_03GCDBBDDL@Off?$AA@  100a3024     Hooks.obj
 0002:00003028       ??_C@_03CMIMKEEK@Low?$AA@  100a3028     Hooks.obj
 0002:0000302c       ??_C@_06LHIDHMIE@Medium?$AA@ 100a302c     Hooks.obj
 0002:00003034       ??_C@_04PHMMJPOJ@High?$AA@ 100a3034     Hooks.obj
 0002:0000303c       ??_C@_04CNKLLJE@BAIM?$AA@  100a303c     Hooks.obj
 0002:00003044       ??_C@_05HFADIOFI@Cross?$AA@ 100a3044     Hooks.obj
 0002:0000304c       ??_C@_06MLENFHBD@Circle?$AA@ 100a304c     Hooks.obj
 0002:00003054       ??_C@_06ENIHNBMK@Square?$AA@ 100a3054     Hooks.obj
 0002:0000305c       ??_C@_04LANNEDME@Nazi?$AA@ 100a305c     Hooks.obj
 0002:00003064       ??_C@_06JIAPJJOL@Toggle?$AA@ 100a3064     Hooks.obj
 0002:0000306c       ??_C@_04HCEHGANI@Hold?$AA@ 100a306c     Hooks.obj
 0002:00003074       ??_C@_04BFCCBDOP@Head?$AA@ 100a3074     Hooks.obj
 0002:0000307c       ??_C@_04BOHOCOOO@Neck?$AA@ 100a307c     Hooks.obj
 0002:00003084       ??_C@_05HPKPHHNI@Chest?$AA@ 100a3084     Hooks.obj
 0002:0000308c       ??_C@_07KFHMCKEI@Stomach?$AA@ 100a308c     Hooks.obj
 0002:00003094       ??_C@_08KPFOKMOE@Multibox?$AA@ 100a3094     Hooks.obj
 0002:000030a0       ??_C@_0BA@MPCCPGIG@Sideways?5Jitter?$AA@ 100a30a0     Hooks.obj
 0002:000030b0       ??_C@_09HLFNCCPH@Slow?5Spin?$AA@ 100a30b0     Hooks.obj
 0002:000030bc       ??_C@_09FBGJLBPF@Fast?5Spin?$AA@ 100a30bc     Hooks.obj
 0002:000030c8       ??_C@_09CCHICIOO@Backwards?$AA@ 100a30c8     Hooks.obj
 0002:000030d4       ??_C@_0L@GGDCPPKP@LBY?5Switch?$AA@ 100a30d4     Hooks.obj
 0002:000030e0       ??_C@_0BB@KELBOINF@Manual?5LBY?5Break?$AA@ 100a30e0     Hooks.obj
 0002:000030f4       ??_C@_0M@KACCIMIF@Back?5Jitter?$AA@ 100a30f4     Hooks.obj
 0002:00003100       ??_C@_0BB@GMMCFMIK@Jitter?5LBY?5Break?$AA@ 100a3100     Hooks.obj
 0002:00003114       ??_C@_0BA@KFIDNFAM@sky_citynight01?$AA@ 100a3114     Hooks.obj
 0002:00003124       ??_C@_0P@HPJLHAIB@Forward?5Jitter?$AA@ 100a3124     Hooks.obj
 0002:00003134       ??_C@_09LGDDEHIG@Jitter?5AA?$AA@ 100a3134     Hooks.obj
 0002:00003140       ??_C@_0L@IBHIJAAD@LBY?5Jitter?$AA@ 100a3140     Hooks.obj
 0002:0000314c       ??_C@_07BKOKEIAH@Emotion?$AA@ 100a314c     Hooks.obj
 0002:00003154       ??_C@_02EFPGLDEA@Up?$AA@   100a3154     Hooks.obj
 0002:00003158       ??_C@_07IOHFJBJK@Fake?5Up?$AA@ 100a3158     Hooks.obj
 0002:00003160       ??_C@_09PDJMIODA@Fake?5Down?$AA@ 100a3160     Hooks.obj
 0002:0000316c       ??_C@_09FMCBLEBN@Fake?5Zero?$AA@ 100a316c     Hooks.obj
 0002:00003178       ??_C@_07MFINDEA@NoHands?$AA@ 100a3178     Hooks.obj
 0002:00003180       ??_C@_06EFAGIKOH@Normal?$AA@ 100a3180     Hooks.obj
 0002:00003188       ??_C@_04PABHPHAJ@Gold?$AA@ 100a3188     Hooks.obj
 0002:00003190       ??_C@_07BDLMEMCB@Plastic?$AA@ 100a3190     Hooks.obj
 0002:00003198       ??_C@_05NBJNJCJO@Glass?$AA@ 100a3198     Hooks.obj
 0002:000031a0       ??_C@_07LAGHFAPL@Crystal?$AA@ 100a31a0     Hooks.obj
 0002:000031a8       ??_C@_08JMCADNAI@Platinum?$AA@ 100a31a8     Hooks.obj
 0002:000031b4       ??_C@_07FCDJHIDC@Aimware?$AA@ 100a31b4     Hooks.obj
 0002:000031bc       ??_C@_09IEIMAEOL@Interwebz?$AA@ 100a31bc     Hooks.obj
 0002:000031c8       ??_C@_09MBJJJAHD@kapiSware?$AA@ 100a31c8     Hooks.obj
 0002:000031d4       ??_C@_06MMCBHKPF@hitbox?$AA@ 100a31d4     Hooks.obj
 0002:000031dc       ??_C@_08IHFEPOAD@NeverVAC?$AA@ 100a31dc     Hooks.obj
 0002:000031e8       ??_C@_0M@ODMPMFKA@NameStealer?$AA@ 100a31e8     Hooks.obj
 0002:000031f4       ??_C@_0N@JGDMHMEL@csgocalm?4xyz?$AA@ 100a31f4     Hooks.obj
 0002:00003204       ??_C@_06KGEOADJK@insult?$AA@ 100a3204     Hooks.obj
 0002:0000320c       ??_C@_06LNIGDDPE@hentai?$AA@ 100a320c     Hooks.obj
 0002:00003214       ??_C@_04JNNIPAFF@Flat?$AA@ 100a3214     Hooks.obj
 0002:0000321c       ??_C@_06EIPNOIEJ@Pelvis?$AA@ 100a321c     Hooks.obj
 0002:00003224       ??_C@_08FACMOPG@Insidous?$AA@ 100a3224     Hooks.obj
 0002:00003230       ??_C@_09LJKLABJG@Insidous2?$AA@ 100a3230     Hooks.obj
 0002:0000323c       ??_C@_0O@CEJHECNL@Insidous?5BETA?$AA@ 100a323c     Hooks.obj
 0002:0000324c       ??_C@_0L@MACKONNM@Insidous?51?$AA@ 100a324c     Hooks.obj
 0002:00003258       ??_C@_0L@OLAHLOBP@Insidous?52?$AA@ 100a3258     Hooks.obj
 0002:00003264       ??_C@_07ICEFLCDE@RayTeak?$AA@ 100a3264     Hooks.obj
 0002:0000326c       ??_C@_0L@NCAJOFAD@Monochrome?$AA@ 100a326c     Hooks.obj
 0002:00003278       ??_C@_07MCAEODGB@Default?$AA@ 100a3278     Hooks.obj
 0002:00003280       ??_C@_03PADCEAKC@Red?$AA@  100a3280     Hooks.obj
 0002:00003284       ??_C@_05GGOIJPPE@Green?$AA@ 100a3284     Hooks.obj
 0002:0000328c       ??_C@_04CAKOHOCJ@Blue?$AA@ 100a328c     Hooks.obj
 0002:00003294       ??_C@_05PLKILNHI@White?$AA@ 100a3294     Hooks.obj
 0002:0000329c       ??_C@_05BPGNDIAE@Black?$AA@ 100a329c     Hooks.obj
 0002:000032a4       ??_C@_04OHJIHAFH@None?$AA@ 100a32a4     Hooks.obj
 0002:000032ac       ??_C@_07ECMOILKI@Mouse?51?$AA@ 100a32ac     Hooks.obj
 0002:000032b4       ??_C@_07GJODNIGL@Mouse?52?$AA@ 100a32b4     Hooks.obj
 0002:000032bc       ??_C@_06FMBNCPDL@Cancel?$AA@ 100a32bc     Hooks.obj
 0002:000032c4       ??_C@_0N@NAEJFKBJ@Middle?5Mouse?$AA@ 100a32c4     Hooks.obj
 0002:000032d4       ??_C@_07DPLJHPON@Mouse?54?$AA@ 100a32d4     Hooks.obj
 0002:000032dc       ??_C@_07CGKCEOKM@Mouse?55?$AA@ 100a32dc     Hooks.obj
 0002:000032e4       ??_C@_09LPBCIPOJ@Backspace?$AA@ 100a32e4     Hooks.obj
 0002:000032f0       ??_C@_03IEAKBACE@Tab?$AA@  100a32f0     Hooks.obj
 0002:000032f4       ??_C@_05MDNHABIA@Clear?$AA@ 100a32f4     Hooks.obj
 0002:000032fc       ??_C@_05IAOCCJNL@Enter?$AA@ 100a32fc     Hooks.obj
 0002:00003304       ??_C@_05CMECKLGA@Shift?$AA@ 100a3304     Hooks.obj
 0002:0000330c       ??_C@_07DFGIDBBA@Control?$AA@ 100a330c     Hooks.obj
 0002:00003314       ??_C@_03PHINJBAN@Alt?$AA@  100a3314     Hooks.obj
 0002:00003318       ??_C@_05PEDNBBBD@Pause?$AA@ 100a3318     Hooks.obj
 0002:00003320       ??_C@_04PFPHPIHI@Caps?$AA@ 100a3320     Hooks.obj
 0002:00003328       ??_C@_06OIGFGPHJ@Escape?$AA@ 100a3328     Hooks.obj
 0002:00003330       ??_C@_05OMHELODH@Space?$AA@ 100a3330     Hooks.obj
 0002:00003338       ??_C@_07EDGDGJEN@Page?5Up?$AA@ 100a3338     Hooks.obj
 0002:00003340       ??_C@_09IOIDGKNA@Page?5Down?$AA@ 100a3340     Hooks.obj
 0002:0000334c       ??_C@_03DBKJMAGF@End?$AA@  100a334c     Hooks.obj
 0002:00003350       ??_C@_04GKJODLKO@Home?$AA@ 100a3350     Hooks.obj
 0002:00003358       ??_C@_04KPCPLBPL@Left?$AA@ 100a3358     Hooks.obj
 0002:00003360       ??_C@_05DADPALEM@Right?$AA@ 100a3360     Hooks.obj
 0002:00003368       ??_C@_04FNCLCJMC@Down?$AA@ 100a3368     Hooks.obj
 0002:00003370       ??_C@_05IOJFAHFF@Print?$AA@ 100a3370     Hooks.obj
 0002:00003378       ??_C@_06CPFCODOD@Insert?$AA@ 100a3378     Hooks.obj
 0002:00003380       ??_C@_06JBKGCNBB@Delete?$AA@ 100a3380     Hooks.obj
 0002:00003388       ??_C@_01GBGANLPD@0?$AA@    100a3388     Hooks.obj
 0002:0000338c       ??_C@_01HIHLOKLC@1?$AA@    100a338c     Hooks.obj
 0002:00003390       ??_C@_01FDFGLJHB@2?$AA@    100a3390     Hooks.obj
 0002:00003394       ??_C@_01EKENIIDA@3?$AA@    100a3394     Hooks.obj
 0002:00003398       ??_C@_01FAMBOPH@4?$AA@     100a3398     Hooks.obj
 0002:0000339c       ??_C@_01BMBHCPLG@5?$AA@    100a339c     Hooks.obj
 0002:000033a0       ??_C@_01DHDKHMHF@6?$AA@    100a33a0     Hooks.obj
 0002:000033a4       ??_C@_01COCBENDE@7?$AA@    100a33a4     Hooks.obj
 0002:000033a8       ??_C@_01KJLJFBPL@8?$AA@    100a33a8     Hooks.obj
 0002:000033ac       ??_C@_01LAKCGALK@9?$AA@    100a33ac     Hooks.obj
 0002:000033b0       ??_C@_01FHEEJDEE@A?$AA@    100a33b0     Hooks.obj
 0002:000033b4       ??_C@_01HMGJMAIH@B?$AA@    100a33b4     Hooks.obj
 0002:000033b8       ??_C@_01CKDDGHAB@D?$AA@    100a33b8     Hooks.obj
 0002:000033bc       ??_C@_01DDCIFGEA@E?$AA@    100a33bc     Hooks.obj
 0002:000033c0       ??_C@_01BIAFAFID@F?$AA@    100a33c0     Hooks.obj
 0002:000033c4       ??_C@_01BBODEMC@G?$AA@     100a33c4     Hooks.obj
 0002:000033c8       ??_C@_01IGIGCIAN@H?$AA@    100a33c8     Hooks.obj
 0002:000033cc       ??_C@_01JPJNBJEM@I?$AA@    100a33cc     Hooks.obj
 0002:000033d0       ??_C@_01LELAEKIP@J?$AA@    100a33d0     Hooks.obj
 0002:000033d4       ??_C@_01OCOKONAJ@L?$AA@    100a33d4     Hooks.obj
 0002:000033d8       ??_C@_01PLPBNMEI@M?$AA@    100a33d8     Hooks.obj
 0002:000033dc       ??_C@_01NANMIPIL@N?$AA@    100a33dc     Hooks.obj
 0002:000033e0       ??_C@_01MJMHLOMK@O?$AA@    100a33e0     Hooks.obj
 0002:000033e4       ??_C@_01EJNLAFE@P?$AA@     100a33e4     Hooks.obj
 0002:000033e8       ??_C@_01BNIGIBBF@Q?$AA@    100a33e8     Hooks.obj
 0002:000033ec       ??_C@_01DGKLNCNG@R?$AA@    100a33ec     Hooks.obj
 0002:000033f0       ??_C@_01CPLAODJH@S?$AA@    100a33f0     Hooks.obj
 0002:000033f4       ??_C@_01GAPBHFFA@T?$AA@    100a33f4     Hooks.obj
 0002:000033f8       ??_C@_01HJOKEEBB@U?$AA@    100a33f8     Hooks.obj
 0002:000033fc       ??_C@_01FCMHBHNC@V?$AA@    100a33fc     Hooks.obj
 0002:00003400       ??_C@_01ELNMCGJD@W?$AA@    100a3400     Hooks.obj
 0002:00003404       ??_C@_01MMEEDKFM@X?$AA@    100a3404     Hooks.obj
 0002:00003408       ??_C@_01NFFPALBN@Y?$AA@    100a3408     Hooks.obj
 0002:0000340c       ??_C@_01POHCFINO@Z?$AA@    100a340c     Hooks.obj
 0002:00003410       ??_C@_08PNEIMCGO@Numpad?50?$AA@ 100a3410     Hooks.obj
 0002:0000341c       ??_C@_08OEFDPDCP@Numpad?51?$AA@ 100a341c     Hooks.obj
 0002:00003428       ??_C@_08MPHOKAOM@Numpad?52?$AA@ 100a3428     Hooks.obj
 0002:00003434       ??_C@_08NGGFJBKN@Numpad?53?$AA@ 100a3434     Hooks.obj
 0002:00003440       ??_C@_08JJCEAHGK@Numpad?54?$AA@ 100a3440     Hooks.obj
 0002:0000344c       ??_C@_08IADPDGCL@Numpad?55?$AA@ 100a344c     Hooks.obj
 0002:00003458       ??_C@_08KLBCGFOI@Numpad?56?$AA@ 100a3458     Hooks.obj
 0002:00003464       ??_C@_08LCAJFEKJ@Numpad?57?$AA@ 100a3464     Hooks.obj
 0002:00003470       ??_C@_08DFJBEIGG@Numpad?58?$AA@ 100a3470     Hooks.obj
 0002:0000347c       ??_C@_08CMIKHJCH@Numpad?59?$AA@ 100a347c     Hooks.obj
 0002:00003488       ??_C@_08EOBDLMOI@Multiply?$AA@ 100a3488     Hooks.obj
 0002:00003494       ??_C@_03LDFMNCOE@Add?$AA@  100a3494     Hooks.obj
 0002:00003498       ??_C@_08DLEJPBEP@Subtract?$AA@ 100a3498     Hooks.obj
 0002:000034a4       ??_C@_07LNNHENGJ@Decimal?$AA@ 100a34a4     Hooks.obj
 0002:000034ac       ??_C@_06JKMEHOIB@Divide?$AA@ 100a34ac     Hooks.obj
 0002:000034b4       ??_C@_02LCPENACN@F1?$AA@   100a34b4     Hooks.obj
 0002:000034b8       ??_C@_02JJNJIDOO@F2?$AA@   100a34b8     Hooks.obj
 0002:000034bc       ??_C@_02IAMCLCKP@F3?$AA@   100a34bc     Hooks.obj
 0002:000034c0       ??_C@_02MPIDCEGI@F4?$AA@   100a34c0     Hooks.obj
 0002:000034c4       ??_C@_02NGJIBFCJ@F5?$AA@   100a34c4     Hooks.obj
 0002:000034c8       ??_C@_02PNLFEGOK@F6?$AA@   100a34c8     Hooks.obj
 0002:000034cc       ??_C@_02OEKOHHKL@F7?$AA@   100a34cc     Hooks.obj
 0002:000034d0       ??_C@_02GDDGGLGE@F8?$AA@   100a34d0     Hooks.obj
 0002:000034d4       ??_C@_02HKCNFKCF@F9?$AA@   100a34d4     Hooks.obj
 0002:000034d8       ??_C@_03JKCLJOFG@F10?$AA@  100a34d8     Hooks.obj
 0002:000034dc       ??_C@_03IDDAKPBH@F11?$AA@  100a34dc     Hooks.obj
 0002:000034e0       ??_C@_0BD@KNOKOIFC@cs_baggage_skybox_?$AA@ 100a34e0     Hooks.obj
 0002:000034f4       ??_C@_03KIBNPMNE@F12?$AA@  100a34f4     Hooks.obj
 0002:000034f8       ??_C@_07DFFNCLML@Bayonet?$AA@ 100a34f8     Hooks.obj
 0002:00003500       ??_C@_0M@HJNOOPCG@Bowie?5Knife?$AA@ 100a3500     Hooks.obj
 0002:0000350c       ??_C@_0BA@FLBPMPKI@Butterfly?5Knife?$AA@ 100a350c     Hooks.obj
 0002:0000351c       ??_C@_0P@FPKNOEI@Falchion?5Knife?$AA@ 100a351c     Hooks.obj
 0002:0000352c       ??_C@_0L@KDBAEFMI@Flip?5Knife?$AA@ 100a352c     Hooks.obj
 0002:00003538       ??_C@_0BI@EHOLFNKI@sky_cs15_daylight01_hdr?$AA@ 100a3538     Hooks.obj
 0002:00003550       ??_C@_09GMODAIEG@Gut?5Knife?$AA@ 100a3550     Hooks.obj
 0002:0000355c       ??_C@_0P@MDLFPMBF@Huntsman?5Knife?$AA@ 100a355c     Hooks.obj
 0002:0000356c       ??_C@_08BNPHALHK@Karambit?$AA@ 100a356c     Hooks.obj
 0002:00003578       ??_C@_0L@DADDDKPH@M9?5Bayonet?$AA@ 100a3578     Hooks.obj
 0002:00003584       ??_C@_0P@EEFPEHJP@Shadow?5Daggers?$AA@ 100a3584     Hooks.obj
 0002:00003594       ??_C@_0L@MEJDOLNL@Bloodhound?$AA@ 100a3594     Hooks.obj
 0002:000035a0       ??_C@_05ECJGCDFD@Sport?$AA@ 100a35a0     Hooks.obj
 0002:000035a8       ??_C@_06BNFOCFOC@Driver?$AA@ 100a35a8     Hooks.obj
 0002:000035b0       ??_C@_05PNNAHLP@Wraps?$AA@ 100a35b0     Hooks.obj
 0002:000035b8       ??_C@_0L@HMENKOML@Motorcycle?$AA@ 100a35b8     Hooks.obj
 0002:000035c4       ??_C@_0L@BBHDIOOK@Specialist?$AA@ 100a35c4     Hooks.obj
 0002:000035d0       ??_C@_0M@GFECCEP@Crimson?5Web?$AA@ 100a35d0     Hooks.obj
 0002:000035dc       ??_C@_09ONOELCGH@Bone?5Mask?$AA@ 100a35dc     Hooks.obj
 0002:000035e8       ??_C@_07IKAHCDEC@vertigo?$AA@ 100a35e8     Hooks.obj
 0002:000035f0       ??_C@_04DKKAMJHD@Fade?$AA@ 100a35f0     Hooks.obj
 0002:000035f8       ??_C@_05EECLMJKM@Night?$AA@ 100a35f8     Hooks.obj
 0002:00003600       ??_C@_0L@DBOBANBN@Blue?5Steel?$AA@ 100a3600     Hooks.obj
 0002:0000360c       ??_C@_07JKKNMOBA@Stained?$AA@ 100a360c     Hooks.obj
 0002:00003614       ??_C@_0O@KJMMGPHG@Case?5Hardened?$AA@ 100a3614     Hooks.obj
 0002:00003624       ??_C@_09FNOLKBMB@Slaughter?$AA@ 100a3624     Hooks.obj
 0002:00003630       ??_C@_0M@GJILCPMG@Safari?5Mesh?$AA@ 100a3630     Hooks.obj
 0002:0000363c       ??_C@_0O@HPJBMDBP@Boreal?5Forest?$AA@ 100a363c     Hooks.obj
 0002:0000364c       ??_C@_0M@IIBENIHK@Ultraviolet?$AA@ 100a364c     Hooks.obj
 0002:00003658       ??_C@_0N@IMLJNPJA@Urban?5Masked?$AA@ 100a3658     Hooks.obj
 0002:00003668       ??_C@_08FINENEGF@Scorched?$AA@ 100a3668     Hooks.obj
 0002:00003674       ??_C@_09FIKEPIDC@Rust?5Coat?$AA@ 100a3674     Hooks.obj
 0002:00003680       ??_C@_0M@IFCNOIMG@Tiger?5Tooth?$AA@ 100a3680     Hooks.obj
 0002:0000368c       ??_C@_0P@IEPDKCON@Damascus?5Steel?$AA@ 100a368c     Hooks.obj
 0002:0000369c       ??_C@_0M@GBIOCIOA@Marble?5Fade?$AA@ 100a369c     Hooks.obj
 0002:000036a8       ??_C@_0N@CKIJGPPN@Doppler?5Ruby?$AA@ 100a36a8     Hooks.obj
 0002:000036b8       ??_C@_0BB@JOCKPINH@Doppler?5Sapphire?$AA@ 100a36b8     Hooks.obj
 0002:000036cc       ??_C@_0BD@HILIEKAD@Doppler?5Blackpearl?$AA@ 100a36cc     Hooks.obj
 0002:000036e0       ??_C@_0BA@LBPNHKFK@Doppler?5Phase?51?$AA@ 100a36e0     Hooks.obj
 0002:000036f0       ??_C@_0BA@JKNACJJJ@Doppler?5Phase?52?$AA@ 100a36f0     Hooks.obj
 0002:00003700       ??_C@_0BA@IDMLBINI@Doppler?5Phase?53?$AA@ 100a3700     Hooks.obj
 0002:00003710       ??_C@_0BA@MMIKIOBP@Doppler?5Phase?54?$AA@ 100a3710     Hooks.obj
 0002:00003720       ??_C@_0BG@EFMDMGCH@Gamma?5Doppler?5Phase?51?$AA@ 100a3720     Hooks.obj
 0002:00003738       ??_C@_0BG@GOOOJFOE@Gamma?5Doppler?5Phase?52?$AA@ 100a3738     Hooks.obj
 0002:00003750       ??_C@_0BG@HHPFKEKF@Gamma?5Doppler?5Phase?53?$AA@ 100a3750     Hooks.obj
 0002:00003768       ??_C@_0BG@DILEDCGC@Gamma?5Doppler?5Phase?54?$AA@ 100a3768     Hooks.obj
 0002:00003780       ??_C@_0BG@LEHPPHIL@Gamma?5Doppler?5Emerald?$AA@ 100a3780     Hooks.obj
 0002:00003798       ??_C@_04IIGEHJCD@Lore?$AA@ 100a3798     Hooks.obj
 0002:000037a0       ??_C@_05CNFJLAJC@Abyss?$AA@ 100a37a0     Hooks.obj
 0002:000037a8       ??_C@_09HHHNLIAN@Decimator?$AA@ 100a37a8     Hooks.obj
 0002:000037b4       ??_C@_06CJCFJDME@Knight?$AA@ 100a37b4     Hooks.obj
 0002:000037bc       ??_C@_0BA@DOKALGDE@Chantico?8s?5Fire?$AA@ 100a37bc     Hooks.obj
 0002:000037cc       ??_C@_0L@PBLFEIDP@Golden?5Coi?$AA@ 100a37cc     Hooks.obj
 0002:000037d8       ??_C@_0M@HLGDNDCN@Hyper?5Beast?$AA@ 100a37d8     Hooks.obj
 0002:000037e4       ??_C@_0N@NAMMOCCE@Master?5Piece?$AA@ 100a37e4     Hooks.obj
 0002:000037f4       ??_C@_07GPDHEAIG@Hot?5Rod?$AA@ 100a37f4     Hooks.obj
 0002:000037fc       ??_C@_0BB@FIHGAPNP@Mecha?5Industries?$AA@ 100a37fc     Hooks.obj
 0002:00003810       ??_C@_05FLPPDGAC@Cyrex?$AA@ 100a3810     Hooks.obj
 0002:00003818       ??_C@_0M@GNPECMJG@Icarus?5Fell?$AA@ 100a3818     Hooks.obj
 0002:00003824       ??_C@_09LMBAAGCE@Flashback?$AA@ 100a3824     Hooks.obj
 0002:00003830       ??_C@_0N@DMFDPIDD@Leaded?5Glass?$AA@ 100a3830     Hooks.obj
 0002:00003840       ??_C@_0N@PDJEIBLM@Fire?5Serpent?$AA@ 100a3840     Hooks.obj
 0002:00003850       ??_C@_0O@DBGEMOHH@Fuel?5Injector?$AA@ 100a3850     Hooks.obj
 0002:00003860       ??_C@_0L@CPGIOGGO@Bloodsport?$AA@ 100a3860     Hooks.obj
 0002:0000386c       ??_C@_06LOEDEFOB@Vulcan?$AA@ 100a386c     Hooks.obj
 0002:00003874       ??_C@_0L@KCMEMHAE@Hydroponic?$AA@ 100a3874     Hooks.obj
 0002:00003880       ??_C@_0BD@CFPHDDIA@Aquamarine?5Revenge?$AA@ 100a3880     Hooks.obj
 0002:00003894       ??_C@_0BA@CGABEKFP@Frontside?5Misty?$AA@ 100a3894     Hooks.obj
 0002:000038a4       ??_C@_0P@JCGBCJDG@Point?5Disarray?$AA@ 100a38a4     Hooks.obj
 0002:000038b4       ??_C@_0BA@CCHCFEJC@Neon?5Revolution?$AA@ 100a38b4     Hooks.obj
 0002:000038c4       ??_C@_0N@IJGLODJA@Red?5Laminate?$AA@ 100a38c4     Hooks.obj
 0002:000038d4       ??_C@_07IHBKKBCO@Redline?$AA@ 100a38d4     Hooks.obj
 0002:000038dc       ??_C@_06GCKPJHNJ@Jaguar?$AA@ 100a38dc     Hooks.obj
 0002:000038e4       ??_C@_07HGILOIFH@Jet?5Set?$AA@ 100a38e4     Hooks.obj
 0002:000038ec       ??_C@_0BA@OMCKGEFH@Wasteland?5Rebel?$AA@ 100a38ec     Hooks.obj
 0002:000038fc       ??_C@_0M@LJAOMGMG@The?5Empress?$AA@ 100a38fc     Hooks.obj
 0002:00003908       ??_C@_07OKBBBOEO@Asiimov?$AA@ 100a3908     Hooks.obj
 0002:00003910       ??_C@_04KKONKGEB@Howl?$AA@ 100a3910     Hooks.obj
 0002:00003918       ??_C@_0M@MDDAJHAM@Dragon?5King?$AA@ 100a3918     Hooks.obj
 0002:00003924       ??_C@_08HPEFPDDD@Poseidon?$AA@ 100a3924     Hooks.obj
 0002:00003930       ??_C@_08PKPDIFDD@Daybreak?$AA@ 100a3930     Hooks.obj
 0002:0000393c       ??_C@_0O@LIOOBDK@Royal?5Paladin?$AA@ 100a393c     Hooks.obj
 0002:0000394c       ??_C@_0P@HGCJBMPL@The?5BattleStar?$AA@ 100a394c     Hooks.obj
 0002:0000395c       ??_C@_0P@BHGGODB@Desolate?5Space?$AA@ 100a395c     Hooks.obj
 0002:0000396c       ??_C@_09KPKCAGLL@Buzz?5Kill?$AA@ 100a396c     Hooks.obj
 0002:00003978       ??_C@_0N@FJAKLPOF@Bengal?5Tiger?$AA@ 100a3978     Hooks.obj
 0002:00003988       ??_C@_09MIJFEMDG@Chameleon?$AA@ 100a3988     Hooks.obj
 0002:00003994       ??_C@_0BB@GDPCACML@Akihabara?5Accept?$AA@ 100a3994     Hooks.obj
 0002:000039a8       ??_C@_05PGGPGBEA@Djinn?$AA@ 100a39a8     Hooks.obj
 0002:000039b0       ??_C@_04BOPFCKBD@Styx?$AA@ 100a39b0     Hooks.obj
 0002:000039b8       ??_C@_0L@JOHLJOPK@Neural?5Net?$AA@ 100a39b8     Hooks.obj
 0002:000039c4       ??_C@_08JEOBFLNN@Survivor?$AA@ 100a39c4     Hooks.obj
 0002:000039d0       ??_C@_0M@HDHBCMFG@Dragon?5Lore?$AA@ 100a39d0     Hooks.obj
 0002:000039dc       ??_C@_0M@DEPJMHKG@Fever?5Dream?$AA@ 100a39dc     Hooks.obj
 0002:000039e8       ??_C@_06FHEKHBN@Medusa?$AA@ 100a39e8     Hooks.obj
 0002:000039f0       ??_C@_04OGIILABF@BOOM?$AA@ 100a39f0     Hooks.obj
 0002:000039f8       ??_C@_0BB@PJJIOMOB@Lightning?5Strike?$AA@ 100a39f8     Hooks.obj
 0002:00003a0c       ??_C@_0L@EKJBKFDM@Pink?5DDPAT?$AA@ 100a3a0c     Hooks.obj
 0002:00003a18       ??_C@_09MKHCLFGM@Corticera?$AA@ 100a3a18     Hooks.obj
 0002:00003a24       ??_C@_0L@LNKBJIHF@Man?9o?8?9war?$AA@ 100a3a24     Hooks.obj
 0002:00003a30       ??_C@_08MPINICIJ@Graphite?$AA@ 100a3a30     Hooks.obj
 0002:00003a3c       ??_C@_0O@DDCKJBEO@Electric?5Hive?$AA@ 100a3a3c     Hooks.obj
 0002:00003a4c       ??_C@_0O@FPCNGBIN@Lichen?5Dashed?$AA@ 100a3a4c     Hooks.obj
 0002:00003a5c       ??_C@_0L@FCDEGGNE@Dark?5Water?$AA@ 100a3a5c     Hooks.obj
 0002:00003a68       ??_C@_0M@GJKJALBA@Blue?5Spruce?$AA@ 100a3a68     Hooks.obj
 0002:00003a74       ??_C@_09BDCLDHID@Sand?5Dune?$AA@ 100a3a74     Hooks.obj
 0002:00003a80       ??_C@_04BDMKHAOB@Palm?$AA@ 100a3a80     Hooks.obj
 0002:00003a88       ??_C@_0N@PLLLECK@Mayan?5Dreams?$AA@ 100a3a88     Hooks.obj
 0002:00003a98       ??_C@_0BD@GDDEIJIB@Blood?5in?5the?5Water?$AA@ 100a3a98     Hooks.obj
 0002:00003aac       ??_C@_0P@FKICPIKI@Tropical?5Storm?$AA@ 100a3aac     Hooks.obj
 0002:00003abc       ??_C@_09LMGPFBLH@Acid?5Fade?$AA@ 100a3abc     Hooks.obj
 0002:00003ac8       ??_C@_07MBKHMMEG@Slashed?$AA@ 100a3ac8     Hooks.obj
 0002:00003ad0       ??_C@_06KKMKPPJH@Detour?$AA@ 100a3ad0     Hooks.obj
 0002:00003ad8       ??_C@_08EDKLJEAG@Big?5Iron?$AA@ 100a3ad8     Hooks.obj
 0002:00003ae4       ??_C@_08FMNNIBIB@Necropos?$AA@ 100a3ae4     Hooks.obj
 0002:00003af0       ??_C@_0P@MECMGCHE@Ghost?5Crusader?$AA@ 100a3af0     Hooks.obj
 0002:00003b00       ??_C@_0L@MBMAAGAA@Dragonfire?$AA@ 100a3b00     Hooks.obj
 0002:00003b0c       ??_C@_09MGFHJCCN@Blueprint?$AA@ 100a3b0c     Hooks.obj
 0002:00003b18       ??_C@_07JCMOAPN@Emerald?$AA@ 100a3b18     Hooks.obj
 0002:00003b20       ??_C@_0N@PKBFEGGD@Green?5Marine?$AA@ 100a3b20     Hooks.obj
 0002:00003b30       ??_C@_08OBIAEFPP@Outbreak?$AA@ 100a3b30     Hooks.obj
 0002:00003b3c       ??_C@_0BC@OAEHEGHA@Jungle?5Slipstream?$AA@ 100a3b3c     Hooks.obj
 0002:00003b50       ??_C@_0P@IHGEAONB@Death?5by?5Kitty?$AA@ 100a3b50     Hooks.obj
 0002:00003b60       ??_C@_0BA@DDPOBJDM@Fallout?5Warning?$AA@ 100a3b60     Hooks.obj
 0002:00003b70       ??_C@_0P@NPFKAJJB@Emerald?5Dragon?$AA@ 100a3b70     Hooks.obj
 0002:00003b80       ??_C@_08GAFPLAEL@Teardown?$AA@ 100a3b80     Hooks.obj
 0002:00003b8c       ??_C@_0L@IACHMHBN@Blind?5Spot?$AA@ 100a3b8c     Hooks.obj
 0002:00003b98       ??_C@_06HJMFFBFN@Trigon?$AA@ 100a3b98     Hooks.obj
 0002:00003ba0       ??_C@_0P@OCNIGEHA@Desert?5Warfare?$AA@ 100a3ba0     Hooks.obj
 0002:00003bb0       ??_C@_06NHPJKFDC@Module?$AA@ 100a3bb0     Hooks.obj
 0002:00003bb8       ??_C@_0M@NEPPDHBJ@Elite?5Build?$AA@ 100a3bb8     Hooks.obj
 0002:00003bc4       ??_C@_09GLFAJOKN@Shapewood?$AA@ 100a3bc4     Hooks.obj
 0002:00003bd0       ??_C@_0O@LDONNMFG@Shallow?5Grave?$AA@ 100a3bd0     Hooks.obj
 0002:00003be0       ??_C@_05JCBJINHF@Blaze?$AA@ 100a3be0     Hooks.obj
 0002:00003be8       ??_C@_0BF@KNHBCLKE@Minotaur?8s?5Labyrinth?$AA@ 100a3be8     Hooks.obj
 0002:00003c00       ??_C@_04DFPIBMCP@Riot?$AA@ 100a3c00     Hooks.obj
 0002:00003c08       ??_C@_0N@NBGDKGAG@Primal?5Saber?$AA@ 100a3c08     Hooks.obj
 0002:00003c18       ??_C@_0O@HGAJGILG@Dragon?5Tattoo?$AA@ 100a3c18     Hooks.obj
 0002:00003c28       ??_C@_0BA@EHONPBGP@Twilight?5Galaxy?$AA@ 100a3c28     Hooks.obj
 0002:00003c38       ??_C@_0BA@NJEGAHAD@Water?5Elemental?$AA@ 100a3c38     Hooks.obj
 0002:00003c48       ??_C@_09OAHIPAJ@Off?5World?$AA@ 100a3c48     Hooks.obj
 0002:00003c54       ??_C@_08IPOIFNFJ@Neo?9Noir?$AA@ 100a3c54     Hooks.obj
 0002:00003c60       ??_C@_05MNPKCHPH@Orion?$AA@ 100a3c60     Hooks.obj
 0002:00003c68       ??_C@_0P@NAFNMAAC@Kill?5Confirmed?$AA@ 100a3c68     Hooks.obj
 0002:00003c78       ??_C@_0L@MJLDIDNI@Overgrowth?$AA@ 100a3c78     Hooks.obj
 0002:00003c84       ??_C@_06DLNNEOEG@Caiman?$AA@ 100a3c84     Hooks.obj
 0002:00003c8c       ??_C@_05NGKKALHO@Serum?$AA@ 100a3c8c     Hooks.obj
 0002:00003c94       ??_C@_08LEGJHPMK@Guardian?$AA@ 100a3c94     Hooks.obj
 0002:00003ca0       ??_C@_09HMIAHJAH@Road?5Rash?$AA@ 100a3ca0     Hooks.obj
 0002:00003cac       ??_C@_0P@JDJJCOEH@Kumicho?5Dragon?$AA@ 100a3cac     Hooks.obj
 0002:00003cbc       ??_C@_0M@CFNDBJNP@Oxide?5Blaze?$AA@ 100a3cbc     Hooks.obj
 0002:00003cc8       ??_C@_0P@HJBNOAPI@Nuclear?5Threat?$AA@ 100a3cc8     Hooks.obj
 0002:00003cd8       ??_C@_0L@EGJMEOFH@Red?5Quartz?$AA@ 100a3cd8     Hooks.obj
 0002:00003ce4       ??_C@_0O@BBDNFEFG@Blue?5Titanium?$AA@ 100a3ce4     Hooks.obj
 0002:00003cf4       ??_C@_0N@FBCLANHN@Titanium?5Bit?$AA@ 100a3cf4     Hooks.obj
 0002:00003d04       ??_C@_09NKFBJCLL@Sandstorm?$AA@ 100a3d04     Hooks.obj
 0002:00003d10       ??_C@_05FMEHJGPC@Isaac?$AA@ 100a3d10     Hooks.obj
 0002:00003d18       ??_C@_05GFBNLEJJ@Toxic?$AA@ 100a3d18     Hooks.obj
 0002:00003d20       ??_C@_08EHHBGPJL@Re?9Entry?$AA@ 100a3d20     Hooks.obj
 0002:00003d2c       ??_C@_07BMJNCCBA@Handgun?$AA@ 100a3d2c     Hooks.obj
 0002:00003d34       ??_C@_0L@BADILEEI@Ocean?5Foam?$AA@ 100a3d34     Hooks.obj
 0002:00003d40       ??_C@_0P@KEPGKGOC@Fire?5Elemental?$AA@ 100a3d40     Hooks.obj
 0002:00003d50       ??_C@_08MPBHMBKF@Asterion?$AA@ 100a3d50     Hooks.obj
 0002:00003d5c       ??_C@_0L@HKGMEJCE@Pathfinder?$AA@ 100a3d5c     Hooks.obj
 0002:00003d68       ??_C@_08KJKIDDCA@Whiteout?$AA@ 100a3d68     Hooks.obj
 0002:00003d74       ??_C@_0P@CGPHMODB@Crimson?5Kimono?$AA@ 100a3d74     Hooks.obj
 0002:00003d84       ??_C@_0M@FBFEFJIF@Mint?5Kimono?$AA@ 100a3d84     Hooks.obj
 0002:00003d90       ??_C@_09LCFIKCIL@Wing?5Shot?$AA@ 100a3d90     Hooks.obj
 0002:00003d9c       ??_C@_0N@PMGJBPHK@See?5Ya?5Later?$AA@ 100a3d9c     Hooks.obj
 0002:00003dac       ??_C@_07DEMPOEMJ@Baggage?$AA@ 100a3dac     Hooks.obj
 0002:00003db4       ??_C@_05NJGAILDA@Tibet?$AA@ 100a3db4     Hooks.obj
 0002:00003dbc       ??_C@_07CBGPCKFC@Embassy?$AA@ 100a3dbc     Hooks.obj
 0002:00003dc4       ??_C@_05FGJCCDGK@Italy?$AA@ 100a3dc4     Hooks.obj
 0002:00003dcc       ??_C@_06LDDNPE@Jungle?$AA@ 100a3dcc     Hooks.obj
 0002:00003dd4       ??_C@_09CMBJAJJC@Nukeblank?$AA@ 100a3dd4     Hooks.obj
 0002:00003de0       ??_C@_06MDKBJKJ@Office?$AA@ 100a3de0     Hooks.obj
 0002:00003de8       ??_C@_0BB@EAJDGIPP@DayLight01?5?$CIHDR?$CJ?$AA@ 100a3de8     Hooks.obj
 0002:00003dfc       ??_C@_0BB@MOBMGPBM@DayLight02?5?$CIHDR?$CJ?$AA@ 100a3dfc     Hooks.obj
 0002:00003e10       ??_C@_0BB@CLGGPIC@DayLight03?5?$CIHDR?$CJ?$AA@ 100a3e10     Hooks.obj
 0002:00003e24       ??_C@_0BB@IHDGGJL@DayLight04?5?$CIHDR?$CJ?$AA@ 100a3e24     Hooks.obj
 0002:00003e38       ??_C@_08MHAPBNKA@Cloudy01?$AA@ 100a3e38     Hooks.obj
 0002:00003e44       ??_C@_07CJBBHMDL@Night02?$AA@ 100a3e44     Hooks.obj
 0002:00003e4c       ??_C@_08OGOJPBHN@Night02b?$AA@ 100a3e4c     Hooks.obj
 0002:00003e58       ??_C@_0L@LNDGANJK@Night?5Flat?$AA@ 100a3e58     Hooks.obj
 0002:00003e64       ??_C@_0P@PIPNHJPC@Day02_05?5?$CIHDR?$CJ?$AA@ 100a3e64     Hooks.obj
 0002:00003e74       ??_C@_08DFJGFIBO@Day02_05?$AA@ 100a3e74     Hooks.obj
 0002:00003e80       ??_C@_06EIJIPJNL@Venice?$AA@ 100a3e80     Hooks.obj
 0002:00003e88       ??_C@_04NFKLMMDO@Dust?$AA@ 100a3e88     Hooks.obj
 0002:00003e90       ??_C@_06FGIBINAC@No_Sky?$AA@ 100a3e90     Hooks.obj
 0002:00003e98       ??_C@_0O@LCJCHJE@Vertigo?5?$CIHDR?$CJ?$AA@ 100a3e98     Hooks.obj
 0002:00003ea8       ??_C@_0BC@EONPAGOL@VertigoBlue?5?$CIHDR?$CJ?$AA@ 100a3ea8     Hooks.obj
 0002:00003ebc       ??_C@_07HDHBEBBE@Vertigo?$AA@ 100a3ebc     Hooks.obj
 0002:00003ec4       ??_C@_07BGODPMK@Vietnam?$AA@ 100a3ec4     Hooks.obj
 0002:00003ecc       ??_C@_01GFHCPBMG@C?$AA@    100a3ecc     Hooks.obj
 0002:000042d8       ??_C@_08JGILNPHN@Disabled?$AA@ 100a42d8     Hooks.obj
 0002:000042e4       ??_C@_06BJBEHGOF@Roblox?$AA@ 100a42e4     Hooks.obj
 0002:000042ec       ??_C@_05BGDCBOFH@China?$AA@ 100a42ec     Hooks.obj
 0002:000042f4       ??_C@_08FBELJDCF@Metallic?$AA@ 100a42f4     Hooks.obj
 0002:00004300       ??_C@_06BEDLFJAG@Hitler?$AA@ 100a4300     Hooks.obj
 0002:00004308       ??_C@_06KBIODPAH@Ground?$AA@ 100a4308     Hooks.obj
 0002:00004310       ??_C@_09JOIHIAIG@Crosshair?$AA@ 100a4310     Hooks.obj
 0002:00004320       ??_7exception@std@@6B@     100a4320     Hooks.obj
 0002:00004328       ??_C@_0BC@EOODALEL@Unknown?5exception?$AA@ 100a4328     Hooks.obj
 0002:00004340       ??_7runtime_error@std@@6B@ 100a4340     Hooks.obj
 0002:00004348       ??_C@_0BG@HGEDEDEC@invalid?5stoi?5argument?$AA@ 100a4348     Hooks.obj
 0002:00004360       ??_C@_0BL@MFFNMGGC@stoi?5argument?5out?5of?5range?$AA@ 100a4360     Hooks.obj
 0002:0000437c       ??_C@_0BK@MLNPCNP@Failed?5to?5protect?5region?4?$AA@ 100a437c     Hooks.obj
 0002:00004398       ??_C@_0M@LGBCIIFJ@DT_CSPlayer?$AA@ 100a4398     Hooks.obj
 0002:000043a8       ??_7IGameEventListener2@@6B@ 100a43a8     Hooks.obj
 0002:000043b4       ??_C@_04MEMAJGDJ@name?$AA@ 100a43b4     Hooks.obj
 0002:000043bc       ??_C@_0L@EMPDFJNI@engine?4dll?$AA@ 100a43bc     Hooks.obj
 0002:000043c8       ??_C@_0P@MPIICOFE@xxxxx?$DP?$DP?$DP?$DPx?$DP?$DP?$DP?$DP?$AA@ 100a43c8     Hooks.obj
 0002:000043d8       ??_C@_0P@FDDMDPMC@U?$IL?l?$IL?$AN?$AA?$AA?$AA?$AAh?$AA?$AA?$AA?$AA?$AA@ 100a43d8     Hooks.obj
 0002:000043e8       ??_C@_0M@FGKDNKGD@insidous?4cc?$AA@ 100a43e8     Hooks.obj
 0002:000043f4       ??_C@_0N@EFFAIECH@xxxxxxxxxxxx?$AA@ 100a43f4     Hooks.obj
 0002:00004404       ??_C@_0N@JAMEBLDM@U?$IL?l?$ID?d?xQSVW?$IL?q?$AA@ 100a4404     Hooks.obj
 0002:00004414       ??_C@_08DKPNAJBK@deadflag?$AA@ 100a4414     Hooks.obj
 0002:00004420       ??_C@_0DD@EPPJPOIK@models?1inventory_items?1trophy_ma@ 100a4420     Hooks.obj
 0002:00004454       ??_C@_0CK@DEKDOHFO@models?1inventory_items?1trophy_ma@ 100a4454     Hooks.obj
 0002:00004480       ??_C@_0CC@LJEMJIIE@models?1player?1ct_fbi?1ct_fbi_glas@ 100a4480     Hooks.obj
 0002:000044a4       ??_C@_0CL@MEIJJFOK@models?1inventory_items?1trophy_ma@ 100a44a4     Hooks.obj
 0002:000044d0       ??_C@_0DC@NNCNIHHH@models?1inventory_items?1trophy_ma@ 100a44d0     Hooks.obj
 0002:00004504       ??_C@_0O@GGLKMMGG@models?1player?$AA@ 100a4504     Hooks.obj
 0002:00004514       ??_C@_04BIKEEMEO@arms?$AA@ 100a4514     Hooks.obj
 0002:0000451c       ??_C@_0P@GPMCKLIC@Model?5textures?$AA@ 100a451c     Hooks.obj
 0002:0000452c       ??_C@_07MPKOOCMG@HudZoom?$AA@ 100a452c     Hooks.obj
 0002:00004534       ??_C@_0BC@IDAMOACC@FocusOverlayPanel?$AA@ 100a4534     Hooks.obj
 0002:00004548       ??_C@_0BA@EAHDCAHA@xxxxxxxx?$DP?$DP?$DP?$DPxxx?$AA@ 100a4548     Hooks.obj
 0002:00004558       ??_C@_0BA@PMEIOKGL@U?$IL?l?$ID?l?$AI?$IL?$BF?$AA?$AA?$AA?$AA?$APW?$MA?$AA@ 100a4558     Hooks.obj
 0002:00004568       ??_C@_0BC@HLCHJLHC@m_flFlashDuration?$AA@ 100a4568     Hooks.obj
 0002:0000457c       ??_C@_0BC@HDPPIGJM@m_flFlashMaxAlpha?$AA@ 100a457c     Hooks.obj
 0002:00004590       ??_C@_1M@LCPJAKGJ@?$AAR?$AAI?$AAG?$AAH?$AAT?$AA?$AA@ 100a4590     Hooks.obj
 0002:0000459c       ??_C@_19GEOAMNKK@?$AAL?$AAE?$AAF?$AAT?$AA?$AA@ 100a459c     Hooks.obj
 0002:000045a8       ??_C@_1BC@DAENLEDK@?$AAB?$AAA?$AAC?$AAK?$AAW?$AAA?$AAR?$AAD?$AA?$AA@ 100a45a8     Hooks.obj
 0002:000045bc       ??_C@_1BC@IFPGCOKD@?$AAD?$AAI?$AAS?$AAA?$AAB?$AAL?$AAE?$AAD?$AA?$AA@ 100a45bc     Hooks.obj
 0002:000045d0       ??_C@_08MANLKGDL@attacker?$AA@ 100a45d0     Hooks.obj
 0002:000045dc       ??_C@_06GEPNGEJI@weapon?$AA@ 100a45dc     Hooks.obj
 0002:000045e4       ??_C@_0BM@BIJNHELD@C?3?2Windows?2Fonts?2Tahoma?4ttf?$AA@ 100a45e4     Hooks.obj
 0002:00004600       ??_C@_0BP@KLHGECEN@C?3?2Windows?2Fonts?2insidous3?4ttf?$AA@ 100a4600     Hooks.obj
 0002:00004620       ??_C@_0CC@PFANHCDN@C?3?2Windows?2Fonts?2soulLotion_1?4tt@ 100a4620     Hooks.obj
 0002:00004644       ??_C@_0CI@LMFKNBKC@C?3?2Windows?2Fonts?2csgo_icons_outl@ 100a4644     Hooks.obj
 0002:0000466c       ??_C@_0CA@HLCNEPGJ@C?3?2Windows?2Fonts?2csgo_icons?4ttf?$AA@ 100a466c     Hooks.obj
 0002:0000468c       ??_C@_0CC@OMLANND@C?3?2Windows?2Fonts?2undefeated_0?4tt@ 100a468c     Hooks.obj
 0002:000046b0       ??_C@_04NEODDMOL@head?$AA@ 100a46b0     Hooks.obj
 0002:000046b8       ??_C@_03NKAHBJFB@arm?$AA@  100a46b8     Hooks.obj
 0002:000046bc       ??_C@_03MLOLJMPD@leg?$AA@  100a46bc     Hooks.obj
 0002:000046c0       ??_C@_07FMAKEIBO@stomach?$AA@ 100a46c0     Hooks.obj
 0002:000046c8       ??_C@_04IEJGKNJ@body?$AA@  100a46c8     Hooks.obj
 0002:000046d4       ??_7item_purchase_listener@item_purchase@@6B@ 100a46d4     Hooks.obj
 0002:000046e0       ??_C@_0O@JAENPIHH@item_purchase?$AA@ 100a46e0     Hooks.obj
 0002:000046f0       ??_C@_0M@GPCKBPEK@player_hurt?$AA@ 100a46f0     Hooks.obj
 0002:000046fc       ??_C@_07PGLPGHFC@Console?$AA@ 100a46fc     Hooks.obj
 0002:00004704       ??_C@_06IHAGGOEE@userid?$AA@ 100a4704     Hooks.obj
 0002:0000470c       ??_C@_06OAGFEBMA@kevlar?$AA@ 100a470c     Hooks.obj
 0002:00004714       ??_C@_04NHBLIOAO@suit?$AA@ 100a4714     Hooks.obj
 0002:0000471c       ??_C@_04FOFDHAEH@vest?$AA@ 100a471c     Hooks.obj
 0002:00004724       ??_C@_06DIDIIJPA@cutter?$AA@ 100a4724     Hooks.obj
 0002:0000472c       ??_C@_06EBPNENDG@defuse?$AA@ 100a472c     Hooks.obj
 0002:00004734       ??_C@_07MDJDKHIJ@weapon_?$AA@ 100a4734     Hooks.obj
 0002:0000473c       ??_C@_0L@MHABPGNE@?$FLinsidous?$FN?$AA@ 100a473c     Hooks.obj
 0002:00004748       ??_C@_0BA@ECBOCLFB@?5?$AE?$CFs?5bought?5?$CFs?6?$AA@ 100a4748     Hooks.obj
 0002:00004758       ??_C@_08KBGNDPBA@hitgroup?$AA@ 100a4758     Hooks.obj
 0002:00004764       ??_C@_0L@CPHGICGA@dmg_health?$AA@ 100a4764     Hooks.obj
 0002:00004770       ??_C@_06KJINILIP@health?$AA@ 100a4770     Hooks.obj
 0002:00004778       ??_C@_0O@GNAEHPBE@?$FLinsidous?4cc?$FN?$AA@ 100a4778     Hooks.obj
 0002:00004788       ??_C@_0DA@DNJNKBON@Hit?5?$CFs?5in?5the?5?$CFs?5for?5?$CFd?5?$CI?$CFd?5heal@ 100a4788     Hooks.obj
 0002:000047b8       ??_C@_0BC@GLPEDPCN@x?$DP?$DP?$DP?$DPx?$DP?$DP?$DP?$DPxxxxxxx?$AA@ 100a47b8     Hooks.obj
 0002:000047cc       ??_C@_0BC@GDECIDIO@?$KB?$AA?$AA?$AA?$AA?$LJ?$AA?$AA?$AA?$AAV?$PPP?$BE?$IL4?$IF?$AA@ 100a47cc     Hooks.obj
 0002:000047e0       ??_C@_09BEBKICJB@?$CD?$CDtabarea?$AA@ 100a47e0     Hooks.obj
 0002:000047f0       ??_C@_0EP@OOGELO@?5?5?5?5?5?5?5?5?5?5?5?5?5?5?5?5?5?5?5?5?5?5?5?5?5?5?5?5?5?5?5?5@ 100a47f0     Hooks.obj
 0002:00004840       ??_C@_09MFCGKFEE@New?5Child?$AA@ 100a4840     Hooks.obj
 0002:0000484c       ??_C@_01HHGOMJKL@l?$AA@    100a484c     Hooks.obj
 0002:00004850       ??_C@_01LKDEMHDF@s?$AA@    100a4850     Hooks.obj
 0002:00004854       ??_C@_01KDCPPGHE@r?$AA@    100a4854     Hooks.obj
 0002:00004858       ??_C@_01PAPGNFGE@c?$AA@    100a4858     Hooks.obj
 0002:00004860       ??_C@_0GC@FGKEINC@?5?5?5?5?5?5?5?5?5?5?5?5?5?5?5?5?5?5?5?5?5?5?5?5?5?5?5?5?5?5?5?5@ 100a4860     Hooks.obj
 0002:000048c4       ??_C@_04FEOMFELI@Back?$AA@ 100a48c4     Hooks.obj
 0002:000048cc       ??_C@_0M@JFLJDBJA@first?5child?$AA@ 100a48cc     Hooks.obj
 0002:000048d8       ??_C@_04HJBPJAJJ@?$CF1?4f?$AA@ 100a48d8     Hooks.obj
 0002:000048e0       ??_C@_0N@IAHDLFBG@second?5child?$AA@ 100a48e0     Hooks.obj
 0002:000048f0       ??_C@_04GEFJINEE@?$CF?42f?$AA@ 100a48f0     Hooks.obj
 0002:000048f8       ??_C@_0BA@HMEMDOMB@Min?5dmg?5Snipers?$AA@ 100a48f8     Hooks.obj
 0002:00004908       ??_C@_0P@GDCLCDPD@Min?5dmg?5Rifles?$AA@ 100a4908     Hooks.obj
 0002:00004918       ??_C@_0BA@BJKMOOIP@Min?5dmg?5Pistols?$AA@ 100a4918     Hooks.obj
 0002:00004928       ??_C@_0BA@GPDGDKMG@Min?5dmg?5Heavies?$AA@ 100a4928     Hooks.obj
 0002:00004938       ??_C@_0N@JGPIDGML@Min?5dmg?5SMGs?$AA@ 100a4938     Hooks.obj
 0002:00004948       ??_C@_0BG@CFMKDAFG@Min?5dmg?5Revolver?1Deag?$AA@ 100a4948     Hooks.obj
 0002:00004960       ??_C@_04GGBPDDBN@?$CF?41f?$AA@ 100a4960     Hooks.obj
 0002:00004968       ??_C@_0M@JKMCEE@third?5child?$AA@ 100a4968     Hooks.obj
 0002:00004974       ??_C@_0N@DJDOJBMO@fourth?5child?$AA@ 100a4974     Hooks.obj
 0002:00004984       ??_C@_0L@IPCIDFFB@At?5Players?$AA@ 100a4984     Hooks.obj
 0002:00004990       ??_C@_0BA@HACGPMMF@Legit?5Backtrack?$AA@ 100a4990     Hooks.obj
 0002:000049a0       ??_C@_05CEADFHJI@Ticks?$AA@ 100a49a0     Hooks.obj
 0002:000049a8       ??_C@_0P@NGHDCGHC@Backtrack?5line?$AA@ 100a49a8     Hooks.obj
 0002:000049b8       ??_C@_0M@PJFFIHDI@Auto?5Pistol?$AA@ 100a49b8     Hooks.obj
 0002:000049c4       ??_C@_0M@BNANDJPO@Smoke?5Check?$AA@ 100a49c4     Hooks.obj
 0002:000049d0       ??_C@_0L@CADHNLAF@Joku?5Lapsi?$AA@ 100a49d0     Hooks.obj
 0002:000049dc       ??_C@_0BE@LNNBFKNG@Full?$AA?$ANCorners?$AA?$AN3D?$AA?$AA?$AA@ 100a49dc     Hooks.obj
 0002:000049f0       ??_C@_08NNGILAGK@?$CD?$CDboxkek?$AA@ 100a49f0     Hooks.obj
 0002:000049fc       ??_C@_0P@KIFGIGOF@Custom?9Skybox?3?$AA@ 100a49fc     Hooks.obj
 0002:00004a0c       ??_C@_09GDOIDDCK@?$CD?$CDaadk342?$AA@ 100a4a0c     Hooks.obj
 0002:00004a18       ??_C@_0O@BJNHGOFA@Dynamic?5Light?$AA@ 100a4a18     Hooks.obj
 0002:00004a28       ??_C@_0N@JCCLOPAH@Enemy?5Scoped?$AA@ 100a4a28     Hooks.obj
 0002:00004a38       ??_C@_0BA@EGJOBINB@Enemy?5Reloading?$AA@ 100a4a38     Hooks.obj
 0002:00004a48       ??_C@_0P@DIOIJPIO@Transparencies?$AA@ 100a4a48     Hooks.obj
 0002:00004a58       ??_C@_05JJFBEBFJ@Hands?$AA@ 100a4a58     Hooks.obj
 0002:00004a60       ??_C@_04IBALKHCM@Glow?$AA@ 100a4a60     Hooks.obj
 0002:00004a68       ??_C@_0L@MCKFDNGD@ChamVModel?$AA@ 100a4a68     Hooks.obj
 0002:00004a74       ??_C@_07EHPKPKNO@Filters?$AA@ 100a4a74     Hooks.obj
 0002:00004a7c       ??_C@_06CPCBHFIH@Styles?$AA@ 100a4a7c     Hooks.obj
 0002:00004a88       ??_C@_0ED@DEOHNDBD@Normal?$AA?$ANFlat?$AA?$ANWireframe?$AA?$ANGlass?$AA?$AN@ 100a4a88     Hooks.obj
 0002:00004acc       ??_C@_06JDBIHHFN@?$CD?$CDsdgl?$AA@ 100a4acc     Hooks.obj
 0002:00004ad4       ??_C@_06JIENJKLM@?$CD?$CDaw43?$AA@ 100a4ad4     Hooks.obj
 0002:00004adc       ??_C@_07PIDJGBEP@?$CD?$CDsdgl2?$AA@ 100a4adc     Hooks.obj
 0002:00004ae4       ??_C@_0P@EIOINLOD@Anti?9Untrusted?$AA@ 100a4ae4     Hooks.obj
 0002:00004af4       ??_C@_0M@IEEDOIEI@Auto?5Accept?$AA@ 100a4af4     Hooks.obj
 0002:00004b00       ??_C@_0L@CDJLCHBH@Show?5Ranks?$AA@ 100a4b00     Hooks.obj
 0002:00004b0c       ??_C@_09NCAIJGGI@SlideWalk?$AA@ 100a4b0c     Hooks.obj
 0002:00004b18       ??_C@_06LLCHJONG@Config?$AA@ 100a4b18     Hooks.obj
 0002:00004b20       ??_C@_04PBAHLACE@File?$AA@ 100a4b20     Hooks.obj
 0002:00004b28       ??_C@_0M@JDPEBFKB@Save?5Config?$AA@ 100a4b28     Hooks.obj
 0002:00004b34       ??_C@_0M@GNAHMCPI@Load?5Config?$AA@ 100a4b34     Hooks.obj
 0002:00004b40       ??_C@_08GBBBEGOB@ClanTags?$AA@ 100a4b40     Hooks.obj
 0002:00004b4c       ??_C@_0CK@OCCEMIOL@None?$AA?$ANInsidous1?$AA?$ANInsidous2?$AA?$ANGay?$AA@ 100a4b4c     Hooks.obj
 0002:00004b78       ??_C@_0N@MPGALPEE@?$CD?$CDclantagsxd?$AA@ 100a4b78     Hooks.obj
 0002:00004b88       ??_C@_09DOGKCEDN@ChatSpams?$AA@ 100a4b88     Hooks.obj
 0002:00004b94       ??_C@_0M@NGOEGKPK@?$CD?$CDChatSpams?$AA@ 100a4b94     Hooks.obj
 0002:00004ba0       ??_C@_0BA@LGOPGPH@2Click?5?$DN?5noname?$AA@ 100a4ba0     Hooks.obj
 0002:00004bb0       ??_C@_06HCBIANPB@Noname?$AA@ 100a4bb0     Hooks.obj
 0002:00004bb8       ??_C@_04GGFNNAM@?6?$KN?$KN?$KN?$AA@ 100a4bb8     Hooks.obj
 0002:00004bc0       ??_C@_09NHIOLBMG@LogEvents?$AA@ 100a4bc0     Hooks.obj
 0002:00004bcc       ??_C@_0BA@GOOLPPCL@DmgInfo?5in?5chat?$AA@ 100a4bcc     Hooks.obj
 0002:00004bdc       ??_C@_0BF@OLPENCMB@Color?5Switching?5menu?$AA@ 100a4bdc     Hooks.obj
 0002:00004bf4       ??_C@_09MOMEKKPE@FPS?5Boost?$AA@ 100a4bf4     Hooks.obj
 0002:00004c00       ??_C@_0O@MDJEBMHG@Chrome?5?5World?$AA@ 100a4c00     Hooks.obj
 0002:00004c10       ??_C@_07DOHIPHHN@LsdMode?$AA@ 100a4c10     Hooks.obj
 0002:00004c18       ??_C@_08NIOOIPJJ@GrayMode?$AA@ 100a4c18     Hooks.obj
 0002:00004c24       ??_C@_0BF@KDHKCFFG@BoxEsp?5Toggle?1Hotkey?$AA@ 100a4c24     Hooks.obj
 0002:00004c3c       ??_C@_0BH@INNNHGDD@Skeleton?5Toggle?1Hotkey?$AA@ 100a4c3c     Hooks.obj
 0002:00004c54       ??_C@_0M@HHHKMIKD@SkeleHotkey?$AA@ 100a4c54     Hooks.obj
 0002:00004c60       ??_C@_07EAIJPHEA@?$CD?$CDTPKey?$AA@ 100a4c60     Hooks.obj
 0002:00004c68       ??_C@_08DCNHNBCG@?$CD?$CDRadKey?$AA@ 100a4c68     Hooks.obj
 0002:00004c74       ??_C@_03LGOGDKEL@?5?$HM?5?$AA@ 100a4c74     Hooks.obj
 0002:00004c78       ??_C@_08PKGPFBOH@?$CD?$CDKNIVES?$AA@ 100a4c78     Hooks.obj
 0002:00004c84       ??_C@_0CI@FIFCAFFN@Charred?$AA?$ANSnakebite?$AA?$ANBronzed?$AA?$ANGue@ 100a4c84     Hooks.obj
 0002:00004cb0       ??_C@_0ED@OPPKIEHJ@Hedge?5Maze?$AA?$ANPandoras?5Box?$AA?$ANSuperc@ 100a4cb0     Hooks.obj
 0002:00004cf8       ??_C@_0EC@KDAEKMFA@Lunar?5Weave?$AA?$ANConvoy?$AA?$ANCrimson?5Wea@ 100a4cf8     Hooks.obj
 0002:00004d3c       ??_C@_0CN@HEKKAIGK@Leather?$AA?$ANSpruce?5DDPAT?$AA?$ANSlaughter@ 100a4d3c     Hooks.obj
 0002:00004d6c       ??_C@_0DF@FBONHEKL@Eclipse?$AA?$ANSpearmint?$AA?$ANBoom?$CB?$AA?$ANCool?5@ 100a4d6c     Hooks.obj
 0002:00004da4       ??_C@_0DO@CHMKAMCA@Forest?5DDPAT?$AA?$ANCrimson?5Kimono?$AA?$ANEm@ 100a4da4     Hooks.obj
 0002:00004de4       ??_C@_0CM@DGFANCHK@Case?5Hardened?$AA?$ANEmerald?$AA?$ANRattler?$AA@ 100a4de4     Hooks.obj
 0002:00004e10       ??_C@_0L@PKJEPIAP@?$CD?$CDteamglow?$AA@ 100a4e10     Hooks.obj
 0002:00004e1c       ??_C@_08FMJCFLHE@?$CD?$CDEdddSP?$AA@ 100a4e1c     Hooks.obj
 0002:00004e28       ??_C@_06GEOJPENC@?$CD?$CDglow?$AA@ 100a4e28     Hooks.obj
 0002:00004e30       ??_C@_06NFJJHJKM@?$CD?$CDESP2?$AA@ 100a4e30     Hooks.obj
 0002:00004e38       ??_C@_07JNNAHBNN@?$CD?$CD45ESP?$AA@ 100a4e38     Hooks.obj
 0002:00004e40       ??_C@_08EHFNMEEI@?$CD?$CDE772SP?$AA@ 100a4e40     Hooks.obj
 0002:00004e4c       ??_C@_07BCJAIEHN@?$CD?$CD43ESP?$AA@ 100a4e4c     Hooks.obj
 0002:00004e54       ??_C@_08OJPMLMLE@?$CD?$CDES234P?$AA@ 100a4e54     Hooks.obj
 0002:00004e60       ??_C@_07CDHJAGLM@?$CD?$CD45ESs?$AA@ 100a4e60     Hooks.obj
 0002:00004e68       ??_C@_0M@BIKLBJLM@Third?5child?$AA@ 100a4e68     Hooks.obj
 0002:00004e74       ??_C@_0M@ECKIOABL@?$CD?$CDEasd445SP?$AA@ 100a4e74     Hooks.obj
 0002:00004e80       ??_C@_05DBOPBJKC@?$CD?$CDESP?$AA@ 100a4e80     Hooks.obj
 0002:00004e88       ??_C@_08HDKFFDKJ@?$CD?$CDfd5432?$AA@ 100a4e88     Hooks.obj
 0002:00004e94       ??_C@_0N@IKEANKDL@Fourth?5child?$AA@ 100a4e94     Hooks.obj
 0002:00004ea4       ??_C@_07IBENDIMP@?$CD?$CDkl423?$AA@ 100a4ea4     Hooks.obj
 0002:00004eac       ??_C@_03PKPBNCAL@?o?$LL?$LP?$AA@ 100a4eac     Hooks.obj
 0002:00004eb0       ??_C@_02DEBJNODD@?$PP?$PO?$AA@ 100a4eb0     Hooks.obj
 0002:00004eb4       ??_C@_02CMMAIFEF@?$PO?$PP?$AA@ 100a4eb4     Hooks.obj
 0002:00004eb8       ??_C@_04JFAAKOPK@?$PP?$PO?$AA?$AA?$AA@ 100a4eb8     Hooks.obj
 0002:00004ec0       ??_C@_04BFKDKLEK@?$AA?$AA?$PO?$PP?$AA@ 100a4ec0     Hooks.obj
 0002:00004ec8       ??_C@_02JDPG@rb?$AA@       100a4ec8     Hooks.obj
 0002:00004ecc       ??_C@_0CE@JCEOECKP@?4?2csgo?2scripts?2items?2items_game?4@ 100a4ecc     Hooks.obj
 0002:00004ef0       ??_C@_0CB@OHPFOPGN@?4?2csgo?2resource?2csgo_english?4txt@ 100a4ef0     Hooks.obj
 0002:00004f14       ??_C@_0N@KHLPAJDO@weapon_icons?$AA@ 100a4f14     Hooks.obj
 0002:00004f24       ??_C@_0L@HLAHKMKO@paint_kits?$AA@ 100a4f24     Hooks.obj
 0002:00004f30       ??_C@_06OIOKNNNI@Tokens?$AA@ 100a4f30     Hooks.obj
 0002:00004f38       ??_C@_09PPGHGLFF@icon_path?$AA@ 100a4f38     Hooks.obj
 0002:00004f44       ??_C@_0BA@KPEHNEEL@description_tag?$AA@ 100a4f44     Hooks.obj
 0002:00004f54       ??_C@_04MENKDCKE@seed?$AA@ 100a4f54     Hooks.obj
 0002:00004f5c       ??_C@_08DFOEJFON@paintkit?$AA@ 100a4f5c     Hooks.obj
 0002:00004f68       ??_C@_03FJEPELFP@tag?$AA@  100a4f68     Hooks.obj
 0002:00004f6c       ??_C@_08NGFNFJHL@Valve001?$AA@ 100a4f6c     Hooks.obj
 0002:00004f78       ??_C@_0BB@KAAHPEBP@cl_mouseenable?50?$AA@ 100a4f78     Hooks.obj
 0002:00004f8c       ??_C@_0BB@LJBMMFFO@cl_mouseenable?51?$AA@ 100a4f8c     Hooks.obj
 0002:00004fa0       ??_C@_0BP@NLIKMDDD@UI?1competitive_accept_beep?4wav?$AA@ 100a4fa0     Hooks.obj
 0002:00004fc0       ??_C@_0DF@JCNCBEEG@55?58B?5EC?583?5E4?5F8?583?5EC?508?556?58B@ 100a4fc0     Hooks.obj
 0002:00004ff8       ??_C@_0P@IIPEELKE@Other?5textures?$AA@ 100a4ff8     Hooks.obj
 0002:00005008       ??_C@_0P@GADCLAFB@dev?1glow_color?$AA@ 100a5008     Hooks.obj
 0002:00005018       ??_C@_07PEBMJIBN@CWeapon?$AA@ 100a5018     Hooks.obj
 0002:00005020       ??_C@_0P@CGNIIJII@75?504?5B0?501?55F?$AA@ 100a5020     Hooks.obj
 0002:00005030       ??_C@_09NFOPKLIK@sv_cheats?$AA@ 100a5030     Hooks.obj
 0002:0000503c       ??_C@_0CA@HBEHKNAA@FF?515?5?$DP?5?$DP?5?$DP?5?$DP?58B?5F8?585?5DB?574?51F?$AA@ 100a503c     Hooks.obj
 0002:0000505c       ??_C@_1DA@GNNHHLNF@?$AAg?$AAa?$AAm?$AAe?$AAo?$AAv?$AAe?$AAr?$AAl?$AAa?$AAy?$AAr?$AAe?$AAn?$AAd?$AAe?$AAr?$AAe?$AAr?$AA?4?$AAd?$AAl?$AAl?$AA?$AA@ 100a505c     Hooks.obj
 0002:0000508c       ??_C@_0CA@KPLHDCAF@FF?515?5?$DP?5?$DP?5?$DP?5?$DP?58B?5F8?585?5FF?578?518?$AA@ 100a508c     Hooks.obj
 0002:000050ac       ??_C@_0BG@BBKNOMOH@invalid?5map?$DMK?0?5T?$DO?5key?$AA@ 100a50ac     Hooks.obj
 0002:000050c4       ??_C@_0BC@KBDMBKEH@deque?$DMT?$DO?5too?5long?$AA@ 100a50c4     Hooks.obj
 0002:000050dc       ??_7?$_Ref_count_obj@VNode@valve_parser@@@std@@6B@ 100a50dc     Hooks.obj
 0002:000050ec       ??_C@_0BB@MOGOBHAF@list?$DMT?$DO?5too?5long?$AA@ 100a50ec     Hooks.obj
 0002:00005100       __real@3ba3d70a            100a5100     Hooks.obj
 0002:00005104       __real@3c8efa35            100a5104     Hooks.obj
 0002:00005108       __real@3e6147ae            100a5108     Hooks.obj
 0002:0000510c       __real@3f8ccccd            100a510c     Hooks.obj
 0002:00005110       __real@3fdccccccccccccd    100a5110     Hooks.obj
 0002:00005118       __real@3fe0000000000000    100a5118     Hooks.obj
 0002:00005120       __real@3ff199999999999a    100a5120     Hooks.obj
 0002:00005128       __real@400921fb54442d18    100a5128     Hooks.obj
 0002:00005130       __real@4066800000000000    100a5130     Hooks.obj
 0002:00005138       __real@41f00000            100a5138     Hooks.obj
 0002:0000513c       __real@42100000            100a513c     Hooks.obj
 0002:00005140       __real@42652ee0            100a5140     Hooks.obj
 0002:00005144       __real@42b20000            100a5144     Hooks.obj
 0002:00005148       __real@43330000            100a5148     Hooks.obj
 0002:0000514c       __real@43340000            100a514c     Hooks.obj
 0002:00005150       __real@43e10000            100a5150     Hooks.obj
 0002:00005154       __real@c2b20000            100a5154     Hooks.obj
 0002:00005158       __real@c3330000            100a5158     Hooks.obj
 0002:0000515c       __real@c3340000            100a515c     Hooks.obj
 0002:00005160       __real@c3e10000            100a5160     Hooks.obj
 0002:00005170       __xmm@000000003f6147ae3f68f5c33f6b851f 100a5170     Hooks.obj
 0002:00005180       __xmm@000e55545942505d7711485c545f7431 100a5180     Hooks.obj
 0002:00005190       __xmm@00130e0d0e22410f0e15040d040a3261 100a5190     Hooks.obj
 0002:000051a0       __xmm@00252c2d26243e2c201f692428210a49 100a51a0     Hooks.obj
 0002:000051b0       __xmm@004b416a4b4a5d7f4a4b4e414a5d682f 100a51b0     Hooks.obj
 0002:000051c0       __xmm@004f4e5350537f1c6c6f79515d59683c 100a51c0     Hooks.obj
 0002:000051d0       __xmm@00627827252c231062302736362b0842 100a51d0     Hooks.obj
 0002:000051e0       __xmm@06111b16170022521716131c17003572 100a51e0     Hooks.obj
 0002:000051f0       __xmm@090a092546150b070e25150208072e66 100a51f0     Hooks.obj
 0002:00005200       __xmm@100d0e0d2142161a364207090d0f3162 100a5200     Hooks.obj
 0002:00005210       __xmm@150d050f32460d050714120d05072466 100a5210     Hooks.obj
 0002:00005220       __xmm@170a090a2645111d31451c0a06002165 100a5220     Hooks.obj
 0002:00005230       __xmm@171f160d0d110c3d5e1217111d1b2c7e 100a5230     Hooks.obj
 0002:00005240       __xmm@18251a121003051a1210331416102371 100a5240     Hooks.obj
 0002:00005250       __xmm@1e03021d0c081a1f081901040b6e6e4d 100a5250     Hooks.obj
 0002:00005260       __xmm@1f172c5816170b0a1d281c0a11102c78 100a5260     Hooks.obj
 0002:00005270       __xmm@21312624242a311763262f21222d0643 100a5270     Hooks.obj
 0002:00005280       __xmm@22233c2d291b6c272d3e38382d381f4c 100a5280     Hooks.obj
 0002:00005290       __xmm@232d2e210a6f2a2c212e272c3b26074f 100a5290     Hooks.obj
 0002:000052a0       __xmm@2c2d3033301c7f28303318323e3a0b5f 100a52a0     Hooks.obj
 0002:000052b0       __xmm@2d252c37372b36076420252136341744 100a52b0     Hooks.obj
 0002:000052c0       __xmm@2d2c3132311d7e0e0d1b27333b301b5e 100a52c0     Hooks.obj
 0002:000052d0       __xmm@2f7b775b2f6a6b6e616a7d482f6a470f 100a52d0     Hooks.obj
 0002:000052e0       __xmm@312b74767f70433163746565785b5711 100a52e0     Hooks.obj
 0002:000052f0       __xmm@312c2f2c006331262831220e372a0b43 100a52f0     Hooks.obj
 0002:00005300       __xmm@33303f381d32333238371e2230331a56 100a5300     Hooks.obj
 0002:00005310       __xmm@36273532733630213c35362726211153 100a5310     Hooks.obj
 0002:00005320       __xmm@3924076d28262c0b6d28212f2c23084d 100a5320     Hooks.obj
 0002:00005330       __xmm@3a273c292b212c2601682424291f2948 100a5330     Hooks.obj
 0002:00005340       __xmm@3e23d70a3ec28f5c3ec7ae143ecccccd 100a5340     Hooks.obj
 0002:00005350       __xmm@3e5d0e142b0e101c153e04101813387d 100a5350     Hooks.obj
 0002:00005360       __xmm@3e9eb8523f547ae13f4ccccd3f4ccccd 100a5360     Hooks.obj
 0002:00005370       __xmm@3ec7ae143ec28f5c3ec7ae143ecccccd 100a5370     Hooks.obj
 0002:00005380       __xmm@3ecccccd3f7ae1483f170a3d3e851eb8 100a5380     Hooks.obj
 0002:00005390       __xmm@3edc28f6000000003f8000003e800000 100a5390     Hooks.obj
 0002:000053a0       __xmm@3f2147ae3ec28f5c3ec7ae143ecccccd 100a53a0     Hooks.obj
 0002:000053b0       __xmm@3f3ae1483f7333333f7ae1483f800000 100a53b0     Hooks.obj
 0002:000053c0       __xmm@3f4000003f7333333f7ae1483f800000 100a53c0     Hooks.obj
 0002:000053d0       __xmm@3f6147ae3f547ae13f4ccccd3f4ccccd 100a53d0     Hooks.obj
 0002:000053e0       __xmm@3f80000000000000000000003e19999a 100a53e0     Hooks.obj
 0002:000053f0       __xmm@3f80000000000000000000003f4ccccd 100a53f0     Hooks.obj
 0002:00005400       __xmm@3f800000000000003f8000003e800000 100a5400     Hooks.obj
 0002:00005410       __xmm@3f8000003d8f5c293d4ccccd3d75c28f 100a5410     Hooks.obj
 0002:00005420       __xmm@3f8000003db851ec3d8f5c293d8f5c29 100a5420     Hooks.obj
 0002:00005430       __xmm@3f8000003de147ae3de147ae3de147ae 100a5430     Hooks.obj
 0002:00005440       __xmm@3f8000003df5c28f3db851ec3dcccccd 100a5440     Hooks.obj
 0002:00005450       __xmm@3f8000003e570a3d3e3851ec3e428f5c 100a5450     Hooks.obj
 0002:00005460       __xmm@3f8000003e947ae13e6b851f3e75c28f 100a5460     Hooks.obj
 0002:00005470       __xmm@3f8000003ec28f5c3ec7ae143ecccccd 100a5470     Hooks.obj
 0002:00005480       __xmm@3f8000003f0000003f0000003f000000 100a5480     Hooks.obj
 0002:00005490       __xmm@3f8000003f147ae13f0f5c293f0f5c29 100a5490     Hooks.obj
 0002:000054a0       __xmm@3f8000003f4ccccd0000000000000000 100a54a0     Hooks.obj
 0002:000054b0       __xmm@3f8000003f62e2e33e28a8a93f0a8a8b 100a54b0     Hooks.obj
 0002:000054c0       __xmm@3f8000003f7ae1483f7ae1483f7ae148 100a54c0     Hooks.obj
 0002:000054d0       __xmm@41f00000000000000000000000000000 100a54d0     Hooks.obj
 0002:000054e0       __xmm@425f5c5f7310475f5c77495d555e7530 100a54e0     Hooks.obj
 0002:000054f0       __xmm@45111d31451c17040c010b00060b2c65 100a54f0     Hooks.obj
 0002:00005500       __xmm@484b6704505c70044140454a41566324 100a5500     Hooks.obj
 0002:00005510       __xmm@494f4b6a0e010e5c4b584241584b7c2e 100a5510     Hooks.obj
 0002:00005520       __xmm@4c454b48476c0944406804405d476829 100a5520     Hooks.obj
 0002:00005530       __xmm@4f4c4f6300574f4c674e4f5041457720 100a5530     Hooks.obj
 0002:00005540       __xmm@504e424b6054464a754d4c5342467423 100a5540     Hooks.obj
 0002:00005550       __xmm@5156504f4164054b4a4c514c564a7525 100a5550     Hooks.obj
 0002:00005560       __xmm@5655791a5e5f486a5f5e5b545f487d3a 100a5560     Hooks.obj
 0002:00005570       __xmm@567a194a506f4a5458517a54585c6d39 100a5570     Hooks.obj
 0002:00005580       __xmm@5a525b40405c4170135f5a5c50566133 100a5580     Hooks.obj
 0002:00005590       __xmm@616e696c276968276a6e466e73694607 100a5590     Hooks.obj
 0002:000055a0       __xmm@627f5c367a77734436737a7477785316 100a55a0     Hooks.obj
 0002:000055b0       __xmm@63442369606b6b63582c7e6d686d5e0c 100a55b0     Hooks.obj
 0002:000055c0       __xmm@6e6d4122767a5622746d766d6e6d4f02 100a55c0     Hooks.obj
 0002:000055d0       __xmm@731044486410575e51525843515c7630 100a55d0     Hooks.obj
 0002:000055e0       __xmm@777f766d6d716c5d3e7a7f7b6c6e4d1e 100a55e0     Hooks.obj
 0002:000055f0       __xmm@7a607f67407a6468614a70646c674c09 100a55f0     Hooks.obj
 0002:00005600       __xmm@7c7d6a6b66635c2f78606d61666e5d0f 100a5600     Hooks.obj
 0002:00005610       __xmm@0000000000000000000000003f800000 100a5610     imgui_impl_dx9.obj
 0002:00005620       __xmm@00000000000000003f80000000000000 100a5620     imgui_impl_dx9.obj
 0002:00005630       __xmm@000000003f8000000000000000000000 100a5630     imgui_impl_dx9.obj
 0002:00005640       __xmm@3f800000000000000000000000000000 100a5640     imgui_impl_dx9.obj
 0002:00005884       ??_C@_09GBFFKCDJ@?$CD?$CDOverlay?$AA@ 100a5884     imgui.obj
 0002:00005890       ??_C@_09BJIHMJFE@imgui?4ini?$AA@ 100a5890     imgui.obj
 0002:0000589c       ??_C@_0O@HCOAADPE@imgui_log?4txt?$AA@ 100a589c     imgui.obj
 0002:000058ac       ??_C@_05EJCOBEBF@?$CDMOVE?$AA@ 100a58ac     imgui.obj
 0002:000058b4       ??_C@_05GCIPIGEI@Debug?$AA@ 100a58b4     imgui.obj
 0002:000058bc       ??_C@_04EBNJJJJI@?$CF?4?$CKs?$AA@ 100a58bc     imgui.obj
 0002:000058c4       ??_C@_09GLAGEDJB@Pos?$DN?$CFf?0?$CFf?$AA@ 100a58c4     imgui.obj
 0002:000058d0       ??_C@_0L@MKDCLHEO@Size?$DN?$CFf?0?$CFf?$AA@ 100a58d0     imgui.obj
 0002:000058dc       ??_C@_0N@IAKNMBB@Collapsed?$DN?$CFd?$AA@ 100a58dc     imgui.obj
 0002:000058ec       ??_C@_02BKFDOEMK@wt?$AA@   100a58ec     imgui.obj
 0002:000058f0       ??_C@_03OIJOKPOL@?$CD?$CD?$CD?$AA@ 100a58f0     imgui.obj
 0002:000058f4       ??_C@_05MGFEFMAH@?$FL?$CFs?$FN?6?$AA@ 100a58f4     imgui.obj
 0002:000058fc       ??_C@_0L@DDMADIHO@Pos?$DN?$CFd?0?$CFd?6?$AA@ 100a58fc     imgui.obj
 0002:00005908       ??_C@_0M@CFANMDMP@Size?$DN?$CFd?0?$CFd?6?$AA@ 100a5908     imgui.obj
 0002:00005914       ??_C@_0O@JAFHMCKE@Collapsed?$DN?$CFd?6?$AA@ 100a5914     imgui.obj
 0002:00005924       ??_C@_01EEMJAFIK@?6?$AA@   100a5924     imgui.obj
 0002:00005928       ??_C@_09FDEMHCFC@?$AN?6?$CF?$CKs?$CF?4?$CKs?$AA@ 100a5928     imgui.obj
 0002:00005934       ??_C@_05DBJFMKBA@?5?$CF?4?$CKs?$AA@ 100a5934     imgui.obj
 0002:0000593c       ??_C@_07HLBIICCF@?$CD?$CDmenus?$AA@ 100a593c     imgui.obj
 0002:00005944       ??_C@_09DOLGHDNN@?$CD?$CDmenu_?$CFd?$AA@ 100a5944     imgui.obj
 0002:00005950       ??_C@_0N@HOGJLDGL@?$CD?$CDpopup_?$CF08x?$AA@ 100a5950     imgui.obj
 0002:00005960       ??_C@_0L@MEFOPDEP@?$CFs?4?$CFs?4?$CF08X?$AA@ 100a5960     imgui.obj
 0002:0000596c       ??_C@_07GKHNNJPF@?$CFs?4?$CF08X?$AA@ 100a596c     imgui.obj
 0002:00005974       ??_C@_07HDHBJEOI@?$CDRESIZE?$AA@ 100a5974     imgui.obj
 0002:0000597c       ??_C@_06KIIKKNMI@?$CDCLOSE?$AA@ 100a597c     imgui.obj
 0002:00005984       ??_C@_0O@DGCNCOIK@?$CDCLOSECOLUMNS?$AA@ 100a5984     imgui.obj
 0002:00005994       ??_C@_08ENAFOMOP@?$CDSCROLLX?$AA@ 100a5994     imgui.obj
 0002:000059a0       ??_C@_08FEBONNKO@?$CDSCROLLY?$AA@ 100a59a0     imgui.obj
 0002:000059ac       ??_C@_02PCIJFNDE@?$AN?6?$AA@ 100a59ac     imgui.obj
 0002:000059b0       ??_C@_01PPODPGHN@?$DO?$AA@ 100a59b0     imgui.obj
 0002:000059b4       ??_C@_02DPKJAMEF@?$CFd?$AA@ 100a59b4     imgui.obj
 0002:000059b8       ??_C@_04EEFKBNAO@?$CF?4?$CKd?$AA@ 100a59b8     imgui.obj
 0002:000059c0       ??_C@_04HGGMHPIM@?$CF?4?$CKf?$AA@ 100a59c0     imgui.obj
 0002:000059f0       ??_C@_04GFJLOHHD@?$CF?43f?$AA@ 100a59f0     imgui.obj
 0002:000059f8       ??_C@_03JHEALCLB@?$FLx?$FN?$AA@ 100a59f8     imgui.obj
 0002:000059fc       ??_C@_03PFOPMNLJ@?$FL?5?$FN?$AA@ 100a59fc     imgui.obj
 0002:00005a00       ??_C@_03KFJJABDB@?$CIx?$CJ?$AA@ 100a5a00     imgui.obj
 0002:00005a04       ??_C@_03MHDGHODJ@?$CI?5?$CJ?$AA@ 100a5a04     imgui.obj
 0002:00005a08       ??_C@_01JOAMLHOP@?9?$AA@   100a5a08     imgui.obj
 0002:00005a0c       ??_C@_01MIFGBAGJ@?$CL?$AA@ 100a5a0c     imgui.obj
 0002:00005a10       ??_C@_04JIMNDDED@?$CF08X?$AA@ 100a5a10     imgui.obj
 0002:00005a18       ??_C@_0P@HFPOEILF@?$CKUnknown?5item?$CK?$AA@ 100a5a18     imgui.obj
 0002:00005a28       ??_C@_0N@NDJHAEGI@?$CDcolorbutton?$AA@ 100a5a28     imgui.obj
 0002:00005a38       ??_C@_0CD@CFNNKNML@?$AN?6?9?9?9?9?9?9?9?9?9?9?9?9?9?9?9?9?9?9?9?9?9?9?9?9?9?9?9?9?9?9@ 100a5a38     imgui.obj
 0002:00005a5c       ??_C@_07HIFEPIJN@columns?$AA@ 100a5a5c     imgui.obj
 0002:00005a64       ??_C@_0L@KCOHFILK@VK_LBUTTON?$AA@ 100a5a64     imgui.obj
 0002:00005a70       ??_C@_0L@MLNGHLKD@VK_RBUTTON?$AA@ 100a5a70     imgui.obj
 0002:00005a7c       ??_C@_09INKGPFMC@VK_CANCEL?$AA@ 100a5a7c     imgui.obj
 0002:00005a88       ??_C@_0L@GOENFICE@VK_MBUTTON?$AA@ 100a5a88     imgui.obj
 0002:00005a94       ??_C@_0M@BMGHKJAF@VK_XBUTTON1?$AA@ 100a5a94     imgui.obj
 0002:00005aa0       ??_C@_0M@DHEKPKMG@VK_XBUTTON2?$AA@ 100a5aa0     imgui.obj
 0002:00005aac       ??_C@_07NCIKNAFA@VK_BACK?$AA@ 100a5aac     imgui.obj
 0002:00005ab4       ??_C@_06KDCAMDM@VK_TAB?$AA@ 100a5ab4     imgui.obj
 0002:00005abc       ??_C@_08PIAECJOM@VK_CLEAR?$AA@ 100a5abc     imgui.obj
 0002:00005ac8       ??_C@_09KDODHALJ@VK_RETURN?$AA@ 100a5ac8     imgui.obj
 0002:00005ad4       ??_C@_08BHJBIDAM@VK_SHIFT?$AA@ 100a5ad4     imgui.obj
 0002:00005ae0       ??_C@_0L@GEFMOENA@VK_CONTROL?$AA@ 100a5ae0     imgui.obj
 0002:00005aec       ??_C@_07DCBHMFK@VK_MENU?$AA@ 100a5aec     imgui.obj
 0002:00005af4       ??_C@_08MPOODJHP@VK_PAUSE?$AA@ 100a5af4     imgui.obj
 0002:00005b00       ??_C@_0L@LKDKNNID@VK_CAPITAL?$AA@ 100a5b00     imgui.obj
 0002:00005b0c       ??_C@_07CNKNMJPI@VK_KANA?$AA@ 100a5b0c     imgui.obj
 0002:00005b14       ??_C@_08IEAKEKF@VK_JUNJA?$AA@ 100a5b14     imgui.obj
 0002:00005b20       ??_C@_08GDGJIPPB@VK_FINAL?$AA@ 100a5b20     imgui.obj
 0002:00005b2c       ??_C@_08JOKFMMEK@VK_KANJI?$AA@ 100a5b2c     imgui.obj
 0002:00005b38       ??_C@_09DJNOLFIA@VK_ESCAPE?$AA@ 100a5b38     imgui.obj
 0002:00005b44       ??_C@_0L@EFLHHAOM@VK_CONVERT?$AA@ 100a5b44     imgui.obj
 0002:00005b50       ??_C@_0O@JCIMAAFP@VK_NONCONVERT?$AA@ 100a5b50     imgui.obj
 0002:00005b60       ??_C@_09BCPMCHEP@VK_ACCEPT?$AA@ 100a5b60     imgui.obj
 0002:00005b6c       ??_C@_0O@FCDOCDG@VK_MODECHANGE?$AA@ 100a5b6c     imgui.obj
 0002:00005b7c       ??_C@_08NHKHJGFL@VK_SPACE?$AA@ 100a5b7c     imgui.obj
 0002:00005b88       ??_C@_08OCNOOCII@VK_PRIOR?$AA@ 100a5b88     imgui.obj
 0002:00005b94       ??_C@_07EFDBOIAJ@VK_NEXT?$AA@ 100a5b94     imgui.obj
 0002:00005b9c       ??_C@_06LPJBNMHN@VK_END?$AA@ 100a5b9c     imgui.obj
 0002:00005ba4       ??_C@_07OMPILPEG@VK_HOME?$AA@ 100a5ba4     imgui.obj
 0002:00005bac       ??_C@_07CJEJDFBD@VK_LEFT?$AA@ 100a5bac     imgui.obj
 0002:00005bb4       ??_C@_05PIGLHCBF@VK_UP?$AA@ 100a5bb4     imgui.obj
 0002:00005bbc       ??_C@_08LOMCDCA@VK_RIGHT?$AA@ 100a5bbc     imgui.obj
 0002:00005bc8       ??_C@_07NLENKNCK@VK_DOWN?$AA@ 100a5bc8     imgui.obj
 0002:00005bd0       ??_C@_09KINEMDEN@VK_SELECT?$AA@ 100a5bd0     imgui.obj
 0002:00005bdc       ??_C@_08LFEGCPDJ@VK_PRINT?$AA@ 100a5bdc     imgui.obj
 0002:00005be8       ??_C@_0L@OECLDLCH@VK_EXECUTE?$AA@ 100a5be8     imgui.obj
 0002:00005bf4       ??_C@_0M@PHCCMJCA@VK_SNAPSHOT?$AA@ 100a5bf4     imgui.obj
 0002:00005c00       ??_C@_09POOJDJBK@VK_INSERT?$AA@ 100a5c00     imgui.obj
 0002:00005c0c       ??_C@_09EABNPHOI@VK_DELETE?$AA@ 100a5c0c     imgui.obj
 0002:00005c18       ??_C@_07LFDCNDAB@VK_HELP?$AA@ 100a5c18     imgui.obj
 0002:00005c20       ??_C@_07GICIBHOB@VK_LWIN?$AA@ 100a5c20     imgui.obj
 0002:00005c28       ??_C@_07LHPIDOAC@VK_RWIN?$AA@ 100a5c28     imgui.obj
 0002:00005c30       ??_C@_07OBPEBPAK@VK_APPS?$AA@ 100a5c30     imgui.obj
 0002:00005c38       ??_C@_08MOONOBCJ@VK_SLEEP?$AA@ 100a5c38     imgui.obj
 0002:00005c44       ??_C@_0L@ICJAMHIF@VK_NUMPAD0?$AA@ 100a5c44     imgui.obj
 0002:00005c50       ??_C@_0L@JLILPGME@VK_NUMPAD1?$AA@ 100a5c50     imgui.obj
 0002:00005c5c       ??_C@_0L@LAKGKFAH@VK_NUMPAD2?$AA@ 100a5c5c     imgui.obj
 0002:00005c68       ??_C@_0L@KJLNJEEG@VK_NUMPAD3?$AA@ 100a5c68     imgui.obj
 0002:00005c74       ??_C@_0L@OGPMACIB@VK_NUMPAD4?$AA@ 100a5c74     imgui.obj
 0002:00005c80       ??_C@_0L@PPOHDDMA@VK_NUMPAD5?$AA@ 100a5c80     imgui.obj
 0002:00005c8c       ??_C@_0L@NEMKGAAD@VK_NUMPAD6?$AA@ 100a5c8c     imgui.obj
 0002:00005c98       ??_C@_0L@MNNBFBEC@VK_NUMPAD7?$AA@ 100a5c98     imgui.obj
 0002:00005ca4       ??_C@_0L@EKEJENIN@VK_NUMPAD8?$AA@ 100a5ca4     imgui.obj
 0002:00005cb0       ??_C@_0L@FDFCHMMM@VK_NUMPAD9?$AA@ 100a5cb0     imgui.obj
 0002:00005cbc       ??_C@_0M@EAKCGOCP@VK_MULTIPLY?$AA@ 100a5cbc     imgui.obj
 0002:00005cc8       ??_C@_06DNGEMOPM@VK_ADD?$AA@ 100a5cc8     imgui.obj
 0002:00005cd0       ??_C@_0N@BBNOCIBO@VK_SEPARATOR?$AA@ 100a5cd0     imgui.obj
 0002:00005ce0       ??_C@_0M@DFPICDII@VK_SUBTRACT?$AA@ 100a5ce0     imgui.obj
 0002:00005cec       ??_C@_0L@OMODJIKJ@VK_DECIMAL?$AA@ 100a5cec     imgui.obj
 0002:00005cf8       ??_C@_09ELHPKEHI@VK_DIVIDE?$AA@ 100a5cf8     imgui.obj
 0002:00005d04       ??_C@_05JKONDFNK@VK_F1?$AA@ 100a5d04     imgui.obj
 0002:00005d0c       ??_C@_05LBMAGGBJ@VK_F2?$AA@ 100a5d0c     imgui.obj
 0002:00005d14       ??_C@_05KINLFHFI@VK_F3?$AA@ 100a5d14     imgui.obj
 0002:00005d1c       ??_C@_05OHJKMBJP@VK_F4?$AA@ 100a5d1c     imgui.obj
 0002:00005d24       ??_C@_05POIBPANO@VK_F5?$AA@ 100a5d24     imgui.obj
 0002:00005d2c       ??_C@_05NFKMKDBN@VK_F6?$AA@ 100a5d2c     imgui.obj
 0002:00005d34       ??_C@_05MMLHJCFM@VK_F7?$AA@ 100a5d34     imgui.obj
 0002:00005d3c       ??_C@_05ELCPIOJD@VK_F8?$AA@ 100a5d3c     imgui.obj
 0002:00005d44       ??_C@_05FCDELPNC@VK_F9?$AA@ 100a5d44     imgui.obj
 0002:00005d4c       ??_C@_06LJNKOAAM@VK_F10?$AA@ 100a5d4c     imgui.obj
 0002:00005d54       ??_C@_06KAMBNBEN@VK_F11?$AA@ 100a5d54     imgui.obj
 0002:00005d5c       ??_C@_06ILOMICIO@VK_F12?$AA@ 100a5d5c     imgui.obj
 0002:00005d64       ??_C@_0L@ONLHMIN@VK_NUMLOCK?$AA@ 100a5d64     imgui.obj
 0002:00005d70       ??_C@_09EHKHDGLD@VK_SCROLL?$AA@ 100a5d70     imgui.obj
 0002:00005d7c       ??_C@_09FFFABFHP@VK_LSHIFT?$AA@ 100a5d7c     imgui.obj
 0002:00005d88       ??_C@_09GCLBPCOM@VK_RSHIFT?$AA@ 100a5d88     imgui.obj
 0002:00005d94       ??_C@_0M@HJCCLKFF@VK_LCONTROL?$AA@ 100a5d94     imgui.obj
 0002:00005da0       ??_C@_0M@BNCACDLG@VK_RCONTROL?$AA@ 100a5da0     imgui.obj
 0002:00005dac       ??_C@_08HACPGDHD@VK_LMENU?$AA@ 100a5dac     imgui.obj
 0002:00005db8       ??_C@_08EJPDAAJI@VK_RMENU?$AA@ 100a5db8     imgui.obj
 0002:00005dc4       ??_C@_0O@LAKLKJLE@?$DMPress?5a?5key?$DO?$AA@ 100a5dc4     imgui.obj
 0002:00005dd4       __real@1e3ce508            100a5dd4     imgui.obj
 0002:00005dd8       __real@38d1b717            100a5dd8     imgui.obj
 0002:00005ddc       __real@3a83126f            100a5ddc     imgui.obj
 0002:00005de0       __real@3e2aaaab            100a5de0     imgui.obj
 0002:00005de4       __real@3e800000            100a5de4     imgui.obj
 0002:00005de8       __real@3e9d2f1b            100a5de8     imgui.obj
 0002:00005dec       __real@3ecccccd            100a5dec     imgui.obj
 0002:00005df0       __real@3f266666            100a5df0     imgui.obj
 0002:00005df4       __real@3f350481            100a5df4     imgui.obj
 0002:00005df8       __real@3f4ccccd            100a5df8     imgui.obj
 0002:00005dfc       __real@3f5db22d            100a5dfc     imgui.obj
 0002:00005e00       __real@3f733333            100a5e00     imgui.obj
 0002:00005e04       __real@3f7fff58            100a5e04     imgui.obj
 0002:00005e08       __real@3f800054            100a5e08     imgui.obj
 0002:00005e0c       __real@3f99999a            100a5e0c     imgui.obj
 0002:00005e10       __real@3faccccd            100a5e10     imgui.obj
 0002:00005e18       __real@3ff0000000000000    100a5e18     imgui.obj
 0002:00005e20       __real@3ff3333340000000    100a5e20     imgui.obj
 0002:00005e28       __real@40200000            100a5e28     imgui.obj
 0002:00005e30       __real@4024000000000000    100a5e30     imgui.obj
 0002:00005e38       __real@40a00000            100a5e38     imgui.obj
 0002:00005e3c       __real@40c90fdb            100a5e3c     imgui.obj
 0002:00005e40       __real@40eccccd            100a5e40     imgui.obj
 0002:00005e44       __real@41000000            100a5e44     imgui.obj
 0002:00005e48       __real@41800000            100a5e48     imgui.obj
 0002:00005e4c       __real@42f00000            100a5e4c     imgui.obj
 0002:00005e50       __real@461c3c00            100a5e50     imgui.obj
 0002:00005e54       __real@7f7fffff            100a5e54     imgui.obj
 0002:00005e58       __real@beaaaaab            100a5e58     imgui.obj
 0002:00005e5c       __real@bf5db22d            100a5e5c     imgui.obj
 0002:00005e60       __real@c61c3c00            100a5e60     imgui.obj
 0002:00005e64       __real@ff7fffff            100a5e64     imgui.obj
 0002:00005e70       __xmm@3e4ccccd3f4ccccd3ecccccd3ecccccd 100a5e70     imgui.obj
 0002:00005e80       __xmm@3e99999a3f4ccccd3ecccccd3ecccccd 100a5e80     imgui.obj
 0002:00005e90       __xmm@3e99999a3f8000003f8000003f800000 100a5e90     imgui.obj
 0002:00005ea0       __xmm@3eb333333e4ccccd3e4ccccd3e4ccccd 100a5ea0     imgui.obj
 0002:00005eb0       __xmm@3eb333333f8000000000000000000000 100a5eb0     imgui.obj
 0002:00005ec0       __xmm@3ecccccd3f0000003f0000003f4ccccd 100a5ec0     imgui.obj
 0002:00005ed0       __xmm@3ecccccd3f4ccccd3ecccccd3ecccccd 100a5ed0     imgui.obj
 0002:00005ee0       __xmm@3ecccccd3f4ccccd3f4ccccd3f666666 100a5ee0     imgui.obj
 0002:00005ef0       __xmm@3ee666663f2666663f2666663f666666 100a5ef0     imgui.obj
 0002:00005f00       __xmm@3ee666663f6666663ecccccd3ecccccd 100a5f00     imgui.obj
 0002:00005f10       __xmm@3f0000003f6666663f0000003f000000 100a5f10     imgui.obj
 0002:00005f20       __xmm@3f19999a3e99999a3e8000003e4ccccd 100a5f20     imgui.obj
 0002:00005f30       __xmm@3f19999a3ecccccd3ecccccd3f2b851f 100a5f30     imgui.obj
 0002:00005f40       __xmm@3f19999a3f6666663f3333333f333333 100a5f40     imgui.obj
 0002:00005f50       __xmm@3f19999a3f8000003f8000003f800000 100a5f50     imgui.obj
 0002:00005f60       __xmm@3f2666663f3333333f3333333f333333 100a5f60     imgui.obj
 0002:00005f70       __xmm@3f333333000000000000000000000000 100a5f70     imgui.obj
 0002:00005f80       __xmm@3f4ccccd3f0ccccd3ecccccd3ecccccd 100a5f80     imgui.obj
 0002:00005f90       __xmm@3f4ccccd3f5eb8523f07ae143f07ae14 100a5f90     imgui.obj
 0002:00005fa0       __xmm@3f4ccccd3f6666663ee666663ee66666 100a5fa0     imgui.obj
 0002:00005fb0       __xmm@3f547ae13f0a3d713e8a3d713e8a3d71 100a5fb0     imgui.obj
 0002:00005fc0       __xmm@3f5eb8523f2147ae3ea3d70a3ea3d70a 100a5fc0     imgui.obj
 0002:00005fd0       __xmm@3f6666663dcccccd3d4ccccd3d4ccccd 100a5fd0     imgui.obj
 0002:00005fe0       __xmm@3f6666663f8000003f8000003f800000 100a5fe0     imgui.obj
 0002:00005ff0       __xmm@3f7d70a43e4ccccd3e4ccccd3e4ccccd 100a5ff0     imgui.obj
 0002:00006000       __xmm@3f800000000000003f19999a3f800000 100a6000     imgui.obj
 0002:00006010       __xmm@3f800000000000003f3333333f666666 100a6010     imgui.obj
 0002:00006020       __xmm@3f8000003ecccccd3ecccccd3f2b851f 100a6020     imgui.obj
 0002:00006030       __xmm@3f8000003f0000003f0000003f4ccccd 100a6030     imgui.obj
 0002:00006040       __xmm@3f8000003f19999a3f19999a3f19999a 100a6040     imgui.obj
 0002:00006050       __xmm@3f8000003f19999a3f19999a3f333333 100a6050     imgui.obj
 0002:00006060       __xmm@3f8000003f3333333f3333333f333333 100a6060     imgui.obj
 0002:00006070       __xmm@3f8000003f3333333f3333333f666666 100a6070     imgui.obj
 0002:00006080       __xmm@3f8000003f6666663f6666663f666666 100a6080     imgui.obj
 0002:00006090       __xmm@7f7fffff7f7fffffff7fffffff7fffff 100a6090     imgui.obj
 0002:000060a0       __xmm@7fffffff7fffffff7fffffff7fffffff 100a60a0     imgui.obj
 0002:000060b0       __xmm@ff7fffffff7fffff7f7fffff7f7fffff 100a60b0     imgui.obj
 0002:000060c0       __xmm@ffffffffffffffffffffffffffffffff 100a60c0     imgui.obj
 0002:00008fa0       ??_C@_04EICJPCEA@cmap?$AA@ 100a8fa0     imgui_draw.obj
 0002:00008fa8       ??_C@_04DACNFKGE@loca?$AA@ 100a8fa8     imgui_draw.obj
 0002:00008fb0       ??_C@_04LLIHEPK@glyf?$AA@  100a8fb0     imgui_draw.obj
 0002:00008fb8       ??_C@_04FMPHLIKP@hhea?$AA@ 100a8fb8     imgui_draw.obj
 0002:00008fc0       ??_C@_04ONMNCIMC@hmtx?$AA@ 100a8fc0     imgui_draw.obj
 0002:00008fc8       ??_C@_04HHMMLDJI@kern?$AA@ 100a8fc8     imgui_draw.obj
 0002:00008fd0       ??_C@_04HJGCPIEK@CFF?5?$AA@ 100a8fd0     imgui_draw.obj
 0002:00008fd8       ??_C@_04KODIGLGG@maxp?$AA@ 100a8fd8     imgui_draw.obj
 0002:00008fe0       ??_C@_0BG@MBFHAHKJ@ProggyClean?4ttf?0?513px?$AA@ 100a8fe0     imgui_draw.obj
 0002:00008ff8       ??_C@_0L@EPCGLJHG@?$CFs?0?5?$CF?40fpx?$AA@ 100a8ff8     imgui_draw.obj
 0002:00009008       ??_C@_0JHP@BPFIGAMH@?4?4?9?5?5?5?5?5?5?5?5?5?9XXXXXXX?9?5?5?5?5X?5?5?5?5?9?5@ 100a9008     imgui_draw.obj
 0002:00009990       __real@37800000            100a9990     imgui_draw.obj
 0002:00009994       __real@38800000            100a9994     imgui_draw.obj
 0002:00009998       __real@3eb33333            100a9998     imgui_draw.obj
 0002:0000999c       __real@3ffeb852            100a999c     imgui_draw.obj
 0002:000099a0       __real@41100000            100a99a0     imgui_draw.obj
 0002:000099a4       __real@41500000            100a99a4     imgui_draw.obj
 0002:000099a8       __real@41880000            100a99a8     imgui_draw.obj
 0002:000099ac       __real@41900000            100a99ac     imgui_draw.obj
 0002:000099b0       __real@41980000            100a99b0     imgui_draw.obj
 0002:000099b4       __real@41a80000            100a99b4     imgui_draw.obj
 0002:000099b8       __real@41b80000            100a99b8     imgui_draw.obj
 0002:000099bc       __real@41f80000            100a99bc     imgui_draw.obj
 0002:000099c0       __real@425c0000            100a99c0     imgui_draw.obj
 0002:000099c4       __real@42920000            100a99c4     imgui_draw.obj
 0002:000099c8       __real@42b60000            100a99c8     imgui_draw.obj
 0002:000099d0       __xmm@00000003000000020000000100000000 100a99d0     imgui_draw.obj
 0002:000099e0       __xmm@00000008000000080000000800000008 100a99e0     imgui_draw.obj
 0002:000099f0       __xmm@40000000400000004000000040000000 100a99f0     imgui_draw.obj
 0002:00009a00       __xmm@40490fdb40490fdb40490fdb40490fdb 100a9a00     imgui_draw.obj
 0002:00009a10       __xmm@41400000414000004140000041400000 100a9a10     imgui_draw.obj
 0002:00009a20       ??_C@_0BA@OBHPCBFP@CreateInterface?$AA@ 100a9a20     Interfaces.obj
 0002:00009a30       ??_C@_1BG@HGOJCJMF@?$AAe?$AAn?$AAg?$AAi?$AAn?$AAe?$AA?4?$AAd?$AAl?$AAl?$AA?$AA@ 100a9a30     Interfaces.obj
 0002:00009a48       ??_C@_1CG@NFNABGLJ@?$AAv?$AAg?$AAu?$AAi?$AAm?$AAa?$AAt?$AAs?$AAu?$AAr?$AAf?$AAa?$AAc?$AAe?$AA?4?$AAd?$AAl?$AAl?$AA?$AA@ 100a9a48     Interfaces.obj
 0002:00009a70       ??_C@_1BE@MJHLMMOO@?$AAv?$AAg?$AAu?$AAi?$AA2?$AA?4?$AAd?$AAl?$AAl?$AA?$AA@ 100a9a70     Interfaces.obj
 0002:00009a84       ??_C@_1CG@GOPMJEA@?$AAm?$AAa?$AAt?$AAe?$AAr?$AAi?$AAa?$AAl?$AAs?$AAy?$AAs?$AAt?$AAe?$AAm?$AA?4?$AAd?$AAl?$AAl?$AA?$AA@ 100a9a84     Interfaces.obj
 0002:00009aac       ??_C@_1BK@IKFCGDJB@?$AAv?$AAp?$AAh?$AAy?$AAs?$AAi?$AAc?$AAs?$AA?4?$AAd?$AAl?$AAl?$AA?$AA@ 100a9aac     Interfaces.obj
 0002:00009ac8       ??_C@_1BI@IHACCDEG@?$AAv?$AAs?$AAt?$AAd?$AAl?$AAi?$AAb?$AA?4?$AAd?$AAl?$AAl?$AA?$AA@ 100a9ac8     Interfaces.obj
 0002:00009ae0       ??_C@_1BM@IJCPLDEC@?$AAd?$AAa?$AAt?$AAa?$AAc?$AAa?$AAc?$AAh?$AAe?$AA?4?$AAd?$AAl?$AAl?$AA?$AA@ 100a9ae0     Interfaces.obj
 0002:00009afc       ??_C@_0L@CBDCKMGN@VClient018?$AA@ 100a9afc     Interfaces.obj
 0002:00009b08       ??_C@_0BB@CJDLPJJP@VEngineClient014?$AA@ 100a9b08     Interfaces.obj
 0002:00009b1c       ??_C@_0O@BLBEAEJG@VGUI_Panel009?$AA@ 100a9b1c     Interfaces.obj
 0002:00009b2c       ??_C@_0BA@NFOMELFH@VGUI_Surface031?$AA@ 100a9b2c     Interfaces.obj
 0002:00009b3c       ??_C@_0BF@LEBMDKCJ@VClientEntityList003?$AA@ 100a9b3c     Interfaces.obj
 0002:00009b54       ??_C@_0BB@JEBHNJKE@VDebugOverlay004?$AA@ 100a9b54     Interfaces.obj
 0002:00009b68       ??_C@_0BF@PFHNDOKD@VClientPrediction001?$AA@ 100a9b68     Interfaces.obj
 0002:00009b80       ??_C@_0BD@ECOBDDLG@VMaterialSystem080?$AA@ 100a9b80     Interfaces.obj
 0002:00009b94       ??_C@_0BF@IHMEMAKJ@VEngineRenderView014?$AA@ 100a9b94     Interfaces.obj
 0002:00009bac       ??_C@_0BA@MECLCOIH@VEngineModel016?$AA@ 100a9bac     Interfaces.obj
 0002:00009bbc       ??_C@_0BE@BJBBILIH@VModelInfoClient004?$AA@ 100a9bbc     Interfaces.obj
 0002:00009bd0       ??_C@_0BF@JEJONENL@EngineTraceClient004?$AA@ 100a9bd0     Interfaces.obj
 0002:00009be8       ??_C@_0BI@ENHKJIPO@VPhysicsSurfaceProps001?$AA@ 100a9be8     Interfaces.obj
 0002:00009c00       ??_C@_0P@DHJOKMPC@VEngineCvar007?$AA@ 100a9c00     Interfaces.obj
 0002:00009c10       ??_C@_0BC@EHNLKLCF@VEngineEffects001?$AA@ 100a9c10     Interfaces.obj
 0002:00009c24       ??_C@_0BA@CNGPLDEL@GameMovement001?$AA@ 100a9c24     Interfaces.obj
 0002:00009c34       ??_C@_0L@OJEIPPLD@xx?$DP?$DP?$DP?$DPxxxx?$AA@ 100a9c34     Interfaces.obj
 0002:00009c40       ??_C@_0L@OODIEBAN@?$IL?$AN?$AA?$AA?$AA?$AA?$ILF?$AIh?$AA@ 100a9c40     Interfaces.obj
 0002:00009c4c       ??_C@_0BF@KOIHLKCK@GAMEEVENTSMANAGER002?$AA@ 100a9c4c     Interfaces.obj
 0002:00009c64       ??_C@_0P@HEGCEOJI@GameConsole004?$AA@ 100a9c64     Interfaces.obj
 0002:00009c74       ??_C@_0BH@PNNOCMJE@x?$DP?$DP?$DP?$DPx?$DP?$DP?$DP?$DPxx?$DP?$DP?$DP?$DP?$DP?$DP?$DP?$DPxx?$AA@ 100a9c74     Interfaces.obj
 0002:00009c8c       ??_C@_0BH@DGLNPGJL@?$KB?$AA?$AA?$AA?$AA?$LJ?$AA?$AA?$AA?$AA?G?$AF?$AA?$AA?$AA?$AA?$AA?$AA?$AA?$AA?$PP?$BA?$AA@ 100a9c8c     Interfaces.obj
 0002:00009ca4       ??_C@_0BB@DDJDFANP@xx?$DP?$DP?$DP?$DPxxxx?$DP?$DP?$DP?$DPxx?$AA@ 100a9ca4     Interfaces.obj
 0002:00009cb8       ??_C@_0BB@EKDBOMAM@?$IL?$DN?$AA?$AA?$AA?$AA?$IF?$PP?$AP?$IE?$AA?$AA?$AA?$AA?$IB?G?$AA@ 100a9cb8     Interfaces.obj
 0002:00009ccc       ??_C@_0BF@BAHMGGHB@x?$DP?$DP?$DP?$DPxx?$DP?$DP?$DP?$DPxxx?$DP?$DP?$DP?$DPxx?$AA@ 100a9ccc     Interfaces.obj
 0002:00009ce4       ??_C@_0BF@BFBIOINK@?$KB?$AA?$AA?$AA?$AA?$IL?$AN?$AA?$AA?$AA?$AAj?$AAh?$AA?$AA?$AA?$AA?F?$IA?$AA@ 100a9ce4     Interfaces.obj
 0002:00009cfc       ??_C@_0M@FDOOFAJO@MDLCache004?$AA@ 100a9cfc     Interfaces.obj
 0002:00009d08       ??_C@_08MKCDFPJL@CHudChat?$AA@ 100a9d08     Interfaces.obj
 0002:00009d14       ??_C@_0DE@HIHJNMPD@0F?511?505?5?$DP?5?$DP?5?$DP?5?$DP?583?5C8?501?5C7?505?5@ 100a9d14     Interfaces.obj
 0002:00009d48       ??_C@_0CB@MECFBAID@B9?5?$DP?5?$DP?5?$DP?5?$DP?5E8?5?$DP?5?$DP?5?$DP?5?$DP?583?57D?5F8?5?$DP@ 100a9d48     Interfaces.obj
 0002:00009d6c       ??_C@_0DA@LEJGJDNJ@55?58B?5EC?553?58B?55D?508?556?557?58B?5F9@ 100a9d6c     Interfaces.obj
 0002:00009d9c       __real@40490fdb            100a9d9c     LagComp.obj
 0002:00009da0       ??_C@_0O@BINGBKKN@m_iShotsFired?$AA@ 100a9da0     LegitBot.obj
 0002:00009db0       ??_C@_0M@MPLEGCP@RandomFloat?$AA@ 100a9db0     LegitBot.obj
 0002:00009dbc       ??_C@_0M@EINGCJHB@vstdlib?4dll?$AA@ 100a9dbc     LegitBot.obj
 0002:00009dc8       ??_C@_0L@LPNNIEAF@RandomSeed?$AA@ 100a9dc8     LegitBot.obj
 0002:00009dd4       ??_C@_0CJ@JBAIINIA@55?58B?5EC?583?5EC?508?58B?515?5?$DP?5?$DP?5?$DP?5?$DP?5@ 100a9dd4     LegitBot.obj
 0002:00009e00       __real@34000000            100a9e00     LegitBot.obj
 0002:00009e08       __real@404a800000000000    100a9e08     LegitBot.obj
 0002:00009e10       __real@41f0000000000000    100a9e10     LegitBot.obj
 0002:00009e18       __real@42652ee1            100a9e18     LegitBot.obj
 0002:00009e1c       __real@43160000            100a9e1c     LegitBot.obj
 0002:00009e20       __real@46000000            100a9e20     LegitBot.obj
 0002:00009e30       __xmm@00000004000000060000000100000000 100a9e30     LegitBot.obj
 0002:00009e40       __real@3f91df46a2529d39    100a9e40     MathFunctions.obj
 0002:00009e48       __real@404ca5dc20000000    100a9e48     MathFunctions.obj
 0002:00009e50       __real@4333ffff            100a9e50     MathFunctions.obj
 0002:00009e54       __real@c333ffff            100a9e54     MathFunctions.obj
 0002:00009e58       ??_C@_07MOJIPLHI@m_Local?$AA@ 100a9e58     memesets.obj
 0002:00009e60       ??_C@_0O@KNDKHNCF@DT_BasePlayer?$AA@ 100a9e60     memesets.obj
 0002:00009e70       ??_C@_0BA@NAOFJBDJ@m_aimPunchAngle?$AA@ 100a9e70     memesets.obj
 0002:00009e80       ??_C@_0BD@PKLCAOHN@m_aimPunchAngleVel?$AA@ 100a9e80     memesets.obj
 0002:00009e94       ??_C@_0BB@FDCJDEOM@m_viewPunchAngle?$AA@ 100a9e94     memesets.obj
 0002:00009ea8       ??_C@_0BD@BBEIOPED@m_vecViewOffset?$FL0?$FN?$AA@ 100a9ea8     memesets.obj
 0002:00009ebc       ??_C@_0M@MBFMJJPI@m_nTickBase?$AA@ 100a9ebc     memesets.obj
 0002:00009ec8       ??_C@_0BB@CHJEEOLK@m_vecVelocity?$FL0?$FN?$AA@ 100a9ec8     memesets.obj
 0002:00009edc       ??_C@_09FOIALPOM@m_iHealth?$AA@ 100a9edc     memesets.obj
 0002:00009ee8       ??_C@_0N@IHGIGPNN@m_iMaxHealth?$AA@ 100a9ee8     memesets.obj
 0002:00009ef8       ??_C@_0M@GDCAJHLF@m_lifeState?$AA@ 100a9ef8     memesets.obj
 0002:00009f04       ??_C@_08JPGJABNM@m_fFlags?$AA@ 100a9f04     memesets.obj
 0002:00009f10       ??_C@_0BA@GKDDFKAC@m_iObserverMode?$AA@ 100a9f10     memesets.obj
 0002:00009f20       ??_C@_0BC@JPEKIGDH@m_hObserverTarget?$AA@ 100a9f20     memesets.obj
 0002:00009f34       ??_C@_0BA@FDOKDFE@m_hViewModel?$FL0?$FN?$AA@ 100a9f34     memesets.obj
 0002:00009f44       ??_C@_0BC@PDFDGCOF@m_szLastPlaceName?$AA@ 100a9f44     memesets.obj
 0002:00009f58       ??_C@_0N@PBPFNIMJ@m_flAnimTime?$AA@ 100a9f58     memesets.obj
 0002:00009f68       ??_C@_0O@NDBNDAKG@DT_BaseEntity?$AA@ 100a9f68     memesets.obj
 0002:00009f78       ??_C@_0BD@IDNCLOOB@m_flSimulationTime?$AA@ 100a9f78     memesets.obj
 0002:00009f8c       ??_C@_0M@BAFECOKC@m_vecOrigin?$AA@ 100a9f8c     memesets.obj
 0002:00009f98       ??_C@_0O@MFJONOMM@m_angRotation?$AA@ 100a9f98     memesets.obj
 0002:00009fa8       ??_C@_0O@CGPADDIF@m_nRenderMode?$AA@ 100a9fa8     memesets.obj
 0002:00009fb8       ??_C@_0L@OEKNBODE@m_iTeamNum?$AA@ 100a9fb8     memesets.obj
 0002:00009fc4       ??_C@_0M@ILMGKKBH@m_Collision?$AA@ 100a9fc4     memesets.obj
 0002:00009fd0       ??_C@_08LNJFHIKD@m_hOwner?$AA@ 100a9fd0     memesets.obj
 0002:00009fdc       ??_C@_0L@FMFDKOOG@m_bSpotted?$AA@ 100a9fdc     memesets.obj
 0002:00009fe8       ??_C@_09IEAPICB@m_vecMins?$AA@ 100a9fe8     memesets.obj
 0002:00009ff4       ??_C@_09NFFPAPAM@m_vecMaxs?$AA@ 100a9ff4     memesets.obj
 0002:0000a000       ??_C@_0N@LJDAIIAB@m_nSolidType?$AA@ 100aa000     memesets.obj
 0002:0000a010       ??_C@_0P@JHOFHJMK@m_usSolidFlags?$AA@ 100aa010     memesets.obj
 0002:0000a020       ??_C@_0BA@FKBKEPGE@m_nSurroundType?$AA@ 100aa020     memesets.obj
 0002:0000a030       ??_C@_0BA@MIGFFMNM@m_hActiveWeapon?$AA@ 100aa030     memesets.obj
 0002:0000a040       ??_C@_0BH@EFEKCINC@DT_BaseCombatCharacter?$AA@ 100aa040     memesets.obj
 0002:0000a058       ??_C@_0N@LDOBMGCE@m_hMyWeapons?$AA@ 100aa058     memesets.obj
 0002:0000a068       ??_C@_0P@KJPOMMKN@m_hMyWearables?$AA@ 100aa068     memesets.obj
 0002:0000a078       ??_C@_07DNJNDODI@m_iPing?$AA@ 100aa078     memesets.obj
 0002:0000a080       ??_C@_0BC@IFPHJDLO@DT_PlayerResource?$AA@ 100aa080     memesets.obj
 0002:0000a094       ??_C@_08ODGANKKH@m_iKills?$AA@ 100aa094     memesets.obj
 0002:0000a0a0       ??_C@_0L@LIKEPIEL@m_iAssists?$AA@ 100aa0a0     memesets.obj
 0002:0000a0ac       ??_C@_09LAIHDLGG@m_iDeaths?$AA@ 100aa0ac     memesets.obj
 0002:0000a0b8       ??_C@_0N@DKMHJNOJ@m_bConnected?$AA@ 100aa0b8     memesets.obj
 0002:0000a0c8       ??_C@_07HDHIIIPH@m_iTeam?$AA@ 100aa0c8     memesets.obj
 0002:0000a0d0       ??_C@_0P@OEENIJDK@m_iPendingTeam?$AA@ 100aa0d0     memesets.obj
 0002:0000a0e0       ??_C@_08LCOLEBAI@m_bAlive?$AA@ 100aa0e0     memesets.obj
 0002:0000a0ec       ??_C@_0M@FJILONLA@m_iPlayerC4?$AA@ 100aa0ec     memesets.obj
 0002:0000a0f8       ??_C@_0BE@GCJLEPHJ@DT_CSPlayerResource?$AA@ 100aa0f8     memesets.obj
 0002:0000a10c       ??_C@_0N@EKGNDJJL@m_iPlayerVIP?$AA@ 100aa10c     memesets.obj
 0002:0000a11c       ??_C@_0BA@GPGBJIPL@m_bHostageAlive?$AA@ 100aa11c     memesets.obj
 0002:0000a12c       ??_C@_0BM@GLADDJBN@m_isHostageFollowingSomeone?$AA@ 100aa12c     memesets.obj
 0002:0000a148       ??_C@_0BE@GLLCGJA@m_iHostageEntityIDs?$AA@ 100aa148     memesets.obj
 0002:0000a15c       ??_C@_0BC@LFCHEEPJ@m_bombsiteCenterB?$AA@ 100aa15c     memesets.obj
 0002:0000a170       ??_C@_0BB@CPNHLEFC@m_hostageRescueX?$AA@ 100aa170     memesets.obj
 0002:0000a184       ??_C@_0BB@DGMMIFBD@m_hostageRescueY?$AA@ 100aa184     memesets.obj
 0002:0000a198       ??_C@_0BB@BNOBNGNA@m_hostageRescueZ?$AA@ 100aa198     memesets.obj
 0002:0000a1ac       ??_C@_07NPOJKDD@m_iMVPs?$AA@ 100aa1ac     memesets.obj
 0002:0000a1b4       ??_C@_08PGCKLHCP@m_iArmor?$AA@ 100aa1b4     memesets.obj
 0002:0000a1c0       ??_C@_0N@KELFAIEF@m_bHasHelmet?$AA@ 100aa1c0     memesets.obj
 0002:0000a1d0       ??_C@_0O@NFCJDAAN@m_bHasDefuser?$AA@ 100aa1d0     memesets.obj
 0002:0000a1e0       ??_C@_08FOMANGLD@m_iScore?$AA@ 100aa1e0     memesets.obj
 0002:0000a1ec       ??_C@_0BG@KANNKOGA@m_iCompetitiveRanking?$AA@ 100aa1ec     memesets.obj
 0002:0000a204       ??_C@_0BD@HFFFAAPP@m_iCompetitiveWins?$AA@ 100aa204     memesets.obj
 0002:0000a218       ??_C@_0BF@JMNDALEG@m_iCompTeammateColor?$AA@ 100aa218     memesets.obj
 0002:0000a230       ??_C@_0BC@OJNAAJJM@m_bControllingBot?$AA@ 100aa230     memesets.obj
 0002:0000a244       ??_C@_0BE@GACGIDEJ@m_iControlledPlayer?$AA@ 100aa244     memesets.obj
 0002:0000a258       ??_C@_0BG@MPPMBNPI@m_iControlledByPlayer?$AA@ 100aa258     memesets.obj
 0002:0000a270       ??_C@_0BB@IELLMEAA@m_iBotDifficulty?$AA@ 100aa270     memesets.obj
 0002:0000a284       ??_C@_08JDCNAFMF@m_szClan?$AA@ 100aa284     memesets.obj
 0002:0000a290       ??_C@_0BC@HLMKIJMC@m_iTotalCashSpent?$AA@ 100aa290     memesets.obj
 0002:0000a2a4       ??_C@_0BG@LBGMJPMF@m_iCashSpentThisRound?$AA@ 100aa2a4     memesets.obj
 0002:0000a2bc       ??_C@_0BI@COCFGAEB@m_nEndMatchNextMapVotes?$AA@ 100aa2bc     memesets.obj
 0002:0000a2d4       ??_C@_0BL@BGCGOEKE@m_bEndMatchNextMapAllVoted?$AA@ 100aa2d4     memesets.obj
 0002:0000a2f0       ??_C@_0BC@LDIMCMFD@m_nActiveCoinRank?$AA@ 100aa2f0     memesets.obj
 0002:0000a304       ??_C@_0L@EBHDEJP@m_nMusicID?$AA@ 100aa304     memesets.obj
 0002:0000a310       ??_C@_0BK@NDAGNIMG@m_nPersonaDataPublicLevel?$AA@ 100aa310     memesets.obj
 0002:0000a32c       ??_C@_0CD@DFIANLDO@m_nPersonaDataPublicCommendsLead@ 100aa32c     memesets.obj
 0002:0000a350       ??_C@_0CE@CKCABNKC@m_nPersonaDataPublicCommendsTeac@ 100aa350     memesets.obj
 0002:0000a374       ??_C@_0CF@PGLFMDGG@m_nPersonaDataPublicCommendsFrie@ 100aa374     memesets.obj
 0002:0000a39c       ??_C@_0P@EBMPNKJL@m_bBombTicking?$AA@ 100aa39c     memesets.obj
 0002:0000a3ac       ??_C@_0N@CBNMHOGE@DT_PlantedC4?$AA@ 100aa3ac     memesets.obj
 0002:0000a3bc       ??_C@_0L@HFCEAPNC@m_flC4Blow?$AA@ 100aa3bc     memesets.obj
 0002:0000a3c8       ??_C@_0P@GNBFDCEN@m_bBombDefused?$AA@ 100aa3c8     memesets.obj
 0002:0000a3d8       ??_C@_0P@ELNCOBLM@m_hBombDefuser?$AA@ 100aa3d8     memesets.obj
 0002:0000a3e8       ??_C@_0BE@GMKOIPKK@m_flDefuseCountDown?$AA@ 100aa3e8     memesets.obj
 0002:0000a3fc       ??_C@_0BC@ELHPMMNM@m_angEyeAngles?$FL0?$FN?$AA@ 100aa3fc     memesets.obj
 0002:0000a410       ??_C@_0BC@EKLNKGOL@m_angEyeAngles?$FL1?$FN?$AA@ 100aa410     memesets.obj
 0002:0000a424       ??_C@_0L@CIHHHMAD@m_iAccount?$AA@ 100aa424     memesets.obj
 0002:0000a430       ??_C@_0BE@EEFKMNFD@m_totalHitsOnServer?$AA@ 100aa430     memesets.obj
 0002:0000a444       ??_C@_0N@IIBEIILJ@m_ArmorValue?$AA@ 100aa444     memesets.obj
 0002:0000a454       ??_C@_0O@HHNOFAMN@m_bIsDefusing?$AA@ 100aa454     memesets.obj
 0002:0000a464       ??_C@_0BF@HMCMCOMC@m_bIsGrabbingHostage?$AA@ 100aa464     memesets.obj
 0002:0000a47c       ??_C@_0M@PPOAODEA@m_bIsScoped?$AA@ 100aa47c     memesets.obj
 0002:0000a488       ??_C@_0BD@IHDNKCCD@m_bGunGameImmunity?$AA@ 100aa488     memesets.obj
 0002:0000a49c       ??_C@_0O@MHCNMMHJ@m_bIsRescuing?$AA@ 100aa49c     memesets.obj
 0002:0000a4ac       ??_C@_0BH@GJAPHBOD@m_flLowerBodyYawTarget?$AA@ 100aa4ac     memesets.obj
 0002:0000a4c4       ??_C@_0BB@NKFLGFCN@m_bHasHeavyArmor?$AA@ 100aa4c4     memesets.obj
 0002:0000a4d8       ??_C@_0CB@DLDOLANK@m_iGunGameProgressiveWeaponIndex@ 100aa4d8     memesets.obj
 0002:0000a4fc       ??_C@_0BH@BLPCDECE@m_iItemDefinitionIndex?$AA@ 100aa4fc     memesets.obj
 0002:0000a514       ??_C@_0BI@KDIKOMBE@DT_BaseAttributableItem?$AA@ 100aa514     memesets.obj
 0002:0000a52c       ??_C@_0N@JJMAHKON@m_iAccountID?$AA@ 100aa52c     memesets.obj
 0002:0000a53c       ??_C@_0BB@OIFBPKHJ@m_iEntityQuality?$AA@ 100aa53c     memesets.obj
 0002:0000a550       ??_C@_0P@GFHGANFM@m_szCustomName?$AA@ 100aa550     memesets.obj
 0002:0000a560       ??_C@_0BE@HFEMCGPD@m_nFallbackPaintKit?$AA@ 100aa560     memesets.obj
 0002:0000a574       ??_C@_0BA@LONLNMG@m_nFallbackSeed?$AA@ 100aa574     memesets.obj
 0002:0000a584       ??_C@_0BB@IMPAFKGK@m_flFallbackWear?$AA@ 100aa584     memesets.obj
 0002:0000a598       ??_C@_0BE@GGJDINOK@m_nFallbackStatTrak?$AA@ 100aa598     memesets.obj
 0002:0000a5ac       ??_C@_0BH@FOJBBMAP@m_OriginalOwnerXuidLow?$AA@ 100aa5ac     memesets.obj
 0002:0000a5c4       ??_C@_0BI@PBAIDHEO@m_OriginalOwnerXuidHigh?$AA@ 100aa5c4     memesets.obj
 0002:0000a5dc       ??_C@_09FPFKFAGF@m_hWeapon?$AA@ 100aa5dc     memesets.obj
 0002:0000a5e8       ??_C@_0BD@LCOIAPKE@m_fAccuracyPenalty?$AA@ 100aa5e8     memesets.obj
 0002:0000a5fc       ??_C@_0BA@GJLMCNFJ@DT_WeaponCSBase?$AA@ 100aa5fc     memesets.obj
 0002:0000a60c       ??_C@_0BK@KKEKOEGH@m_flPostponeFireReadyTime?$AA@ 100aa60c     memesets.obj
 0002:0000a628       ??_C@_0BB@JJMGBPAD@m_bStartedArming?$AA@ 100aa628     memesets.obj
 0002:0000a63c       ??_C@_0M@JGIBKOEO@DT_WeaponC4?$AA@ 100aa63c     memesets.obj
 0002:0000a648       ??_C@_0BG@IBOJPCLN@m_flNextPrimaryAttack?$AA@ 100aa648     memesets.obj
 0002:0000a660       ??_C@_0BE@OBECLDDP@DT_BaseCombatWeapon?$AA@ 100aa660     memesets.obj
 0002:0000a674       ??_C@_0BC@NCIEGBIJ@m_iViewModelIndex?$AA@ 100aa674     memesets.obj
 0002:0000a688       ??_C@_0BD@GFBBMJBP@m_iWorldModelIndex?$AA@ 100aa688     memesets.obj
 0002:0000a69c       ??_C@_08CHHOFABL@m_iClip1?$AA@ 100aa69c     memesets.obj
 0002:0000a6a8       ??_C@_0BL@GKAMNBOO@m_iPrimaryReserveAmmoCount?$AA@ 100aa6a8     memesets.obj
 0002:0000a6c4       ??_C@_0BE@JINCONAD@m_hWeaponWorldModel?$AA@ 100aa6c4     memesets.obj
 0002:0000a6d8       ??_C@_09GPNFKAOD@m_bRedraw?$AA@ 100aa6d8     memesets.obj
 0002:0000a6e4       ??_C@_0BB@BDMKEGJH@DT_BaseCSGrenade?$AA@ 100aa6e4     memesets.obj
 0002:0000a6f8       ??_C@_0BC@LPCCHHOO@m_bIsHeldByPlayer?$AA@ 100aa6f8     memesets.obj
 0002:0000a70c       ??_C@_0N@GJDDOKLN@m_bPinPulled?$AA@ 100aa70c     memesets.obj
 0002:0000a71c       ??_C@_0N@EOAKBOFO@m_fThrowTime?$AA@ 100aa71c     memesets.obj
 0002:0000a72c       ??_C@_0BH@JPEBIMEL@m_bLoopingSoundPlaying?$AA@ 100aa72c     memesets.obj
 0002:0000a744       ??_C@_0BC@CGLBMEHH@m_flThrowStrength?$AA@ 100aa744     memesets.obj
 0002:0000a758       ??_C@_0O@NMFDIDKK@m_bShouldGlow?$AA@ 100aa758     memesets.obj
 0002:0000a768       ??_C@_0P@EPLJGIG@DT_DynamicProp?$AA@ 100aa768     memesets.obj
 0002:0000a778       ??_C@_0P@JHJOOGNN@m_bBombPlanted?$AA@ 100aa778     memesets.obj
 0002:0000a788       ??_C@_0BE@IPKPBPLB@DT_CSGameRulesProxy?$AA@ 100aa788     memesets.obj
 0002:0000a79c       ??_C@_0N@JFDHBEH@m_bIsValveDS?$AA@ 100aa79c     memesets.obj
 0002:0000a7ac       ??_C@_0BA@FGPFAKFO@m_bFreezePeriod?$AA@ 100aa7ac     memesets.obj
 0002:0000a7bc       ??_C@_0BJ@OBKKCMDK@m_bMatchWaitingForResume?$AA@ 100aa7bc     memesets.obj
 0002:0000a7d8       ??_C@_0BA@DLBKCLCP@m_bWarmupPeriod?$AA@ 100aa7d8     memesets.obj
 0002:0000a7e8       ??_C@_0BD@CEBJMCLM@m_fWarmupPeriodEnd?$AA@ 100aa7e8     memesets.obj
 0002:0000a7fc       ??_C@_0BF@OJDNPIGK@m_fWarmupPeriodStart?$AA@ 100aa7fc     memesets.obj
 0002:0000a814       ??_C@_0BK@HIJBNGMF@m_bTerroristTimeOutActive?$AA@ 100aa814     memesets.obj
 0002:0000a830       ??_C@_0BD@MDNEANN@m_bCTTimeOutActive?$AA@ 100aa830     memesets.obj
 0002:0000a844       ??_C@_0BO@ENMHFLDL@m_flTerroristTimeOutRemaining?$AA@ 100aa844     memesets.obj
 0002:0000a864       ??_C@_0BH@FPKHMPDF@m_flCTTimeOutRemaining?$AA@ 100aa864     memesets.obj
 0002:0000a87c       ??_C@_0BF@GDBAEODN@m_nTerroristTimeOuts?$AA@ 100aa87c     memesets.obj
 0002:0000a894       ??_C@_0O@IGEFBAGN@m_nCTTimeOuts?$AA@ 100aa894     memesets.obj
 0002:0000a8a4       ??_C@_0N@JNHNIFIO@m_iRoundTime?$AA@ 100aa8a4     memesets.obj
 0002:0000a8b4       ??_C@_0M@FLLJMMKE@m_gamePhase?$AA@ 100aa8b4     memesets.obj
 0002:0000a8c0       ??_C@_0BE@KEKHEGNF@m_totalRoundsPlayed?$AA@ 100aa8c0     memesets.obj
 0002:0000a8d4       ??_C@_0BD@EBJNNNMG@m_nOvertimePlaying?$AA@ 100aa8d4     memesets.obj
 0002:0000a8e8       ??_C@_0BL@NKJDDBCF@m_timeUntilNextPhaseStarts?$AA@ 100aa8e8     memesets.obj
 0002:0000a904       ??_C@_0BP@GCOKGIFP@m_flCMMItemDropRevealStartTime?$AA@ 100aa904     memesets.obj
 0002:0000a924       ??_C@_0BN@NMPCBPAB@m_flCMMItemDropRevealEndTime?$AA@ 100aa924     memesets.obj
 0002:0000a944       ??_C@_0BC@MLHDHAAA@m_fRoundStartTime?$AA@ 100aa944     memesets.obj
 0002:0000a958       ??_C@_0P@LOLFLJBG@m_bGameRestart?$AA@ 100aa958     memesets.obj
 0002:0000a968       ??_C@_0BF@PMKBOBOP@m_flRestartRoundTime?$AA@ 100aa968     memesets.obj
 0002:0000a980       ??_C@_0BC@NGDEGODG@m_flGameStartTime?$AA@ 100aa980     memesets.obj
 0002:0000a994       ??_C@_0BF@FECDGLAF@m_iHostagesRemaining?$AA@ 100aa994     memesets.obj
 0002:0000a9ac       ??_C@_0BF@IPONGFOO@m_bAnyHostageReached?$AA@ 100aa9ac     memesets.obj
 0002:0000a9c4       ??_C@_0BE@BPNNCPCI@m_bMapHasBombTarget?$AA@ 100aa9c4     memesets.obj
 0002:0000a9d8       ??_C@_0BE@JHHDBCLC@m_bMapHasRescueZone?$AA@ 100aa9d8     memesets.obj
 0002:0000a9ec       ??_C@_0BB@NDEMODOB@m_bMapHasBuyZone?$AA@ 100aa9ec     memesets.obj
 0002:0000aa00       ??_C@_0BH@CLEBKBOP@m_bIsQueuedMatchmaking?$AA@ 100aaa00     memesets.obj
 0002:0000aa18       ??_C@_0BD@CJGEJGLF@m_bIsQuestEligible?$AA@ 100aaa18     memesets.obj
 0002:0000aa2c       ??_C@_0L@DHLJINBK@m_bLogoMap?$AA@ 100aaa2c     memesets.obj
 0002:0000aa38       ??_C@_0CC@DPFLLPLD@m_iNumGunGameProgressiveWeaponsC@ 100aaa38     memesets.obj
 0002:0000aa5c       ??_C@_0CB@IHDMHPNN@m_iNumGunGameProgressiveWeaponsT@ 100aaa5c     memesets.obj
 0002:0000aa80       ??_C@_0BG@EFCJOAAA@m_iSpectatorSlotCount?$AA@ 100aaa80     memesets.obj
 0002:0000aa98       ??_C@_0P@DCDGOBFL@m_bBombDropped?$AA@ 100aaa98     memesets.obj
 0002:0000aaa8       ??_C@_0BC@GEAIMNEJ@m_iRoundWinStatus?$AA@ 100aaaa8     memesets.obj
 0002:0000aabc       ??_C@_0BC@NONNLGAI@m_eRoundWinReason?$AA@ 100aaabc     memesets.obj
 0002:0000aad0       ??_C@_0BF@JEODADEL@m_flDMBonusStartTime?$AA@ 100aaad0     memesets.obj
 0002:0000aae8       ??_C@_0BG@LDEMIEEH@m_flDMBonusTimeLength?$AA@ 100aaae8     memesets.obj
 0002:0000ab00       ??_C@_0BN@NPLPPDPK@m_unDMBonusWeaponLoadoutSlot?$AA@ 100aab00     memesets.obj
 0002:0000ab20       ??_C@_0BB@HPNDDBEJ@m_bDMBonusActive?$AA@ 100aab20     memesets.obj
 0002:0000ab34       ??_C@_0M@KJIOLGL@m_bTCantBuy?$AA@ 100aab34     memesets.obj
 0002:0000ab40       ??_C@_0N@IMJFBHMI@m_bCTCantBuy?$AA@ 100aab40     memesets.obj
 0002:0000ab50       ??_C@_0BJ@HMEDHELN@m_flGuardianBuyUntilTime?$AA@ 100aab50     memesets.obj
 0002:0000ab6c       ??_C@_0BL@EKABNMBF@m_iMatchStats_RoundResults?$AA@ 100aab6c     memesets.obj
 0002:0000ab88       ??_C@_0BN@OCOGDPCE@m_iMatchStats_PlayersAlive_T?$AA@ 100aab88     memesets.obj
 0002:0000aba8       ??_C@_0BO@PLFPCPEL@m_iMatchStats_PlayersAlive_CT?$AA@ 100aaba8     memesets.obj
 0002:0000abc8       ??_C@_0BM@PMNFKLMA@m_GGProgressiveWeaponOrderC?$AA@ 100aabc8     memesets.obj
 0002:0000abe4       ??_C@_0BM@PJFGCPFG@m_GGProgressiveWeaponOrderT?$AA@ 100aabe4     memesets.obj
 0002:0000ac00       ??_C@_0CI@EOJFCPDI@m_GGProgressiveWeaponKillUpgrade@ 100aac00     memesets.obj
 0002:0000ac28       ??_C@_0CH@PICJHNJJ@m_GGProgressiveWeaponKillUpgrade@ 100aac28     memesets.obj
 0002:0000ac50       ??_C@_0O@BHJHMPJL@m_MatchDevice?$AA@ 100aac50     memesets.obj
 0002:0000ac60       ??_C@_0BD@HOFMIBII@m_bHasMatchStarted?$AA@ 100aac60     memesets.obj
 0002:0000ac74       ??_C@_0BH@CNMPJIGA@m_TeamRespawnWaveTimes?$AA@ 100aac74     memesets.obj
 0002:0000ac8c       ??_C@_0BE@PNOPPDEM@m_flNextRespawnWave?$AA@ 100aac8c     memesets.obj
 0002:0000aca0       ??_C@_0BF@BDPNFLGD@m_nNextMapInMapgroup?$AA@ 100aaca0     memesets.obj
 0002:0000acb8       ??_C@_0BP@LDLODINM@m_nEndMatchMapGroupVoteOptions?$AA@ 100aacb8     memesets.obj
 0002:0000acd8       ??_C@_0BD@JPLMDBEN@m_bIsDroppingItems?$AA@ 100aacd8     memesets.obj
 0002:0000acec       ??_C@_0CG@PMFADGGM@m_iActiveAssassinationTargetMiss@ 100aacec     memesets.obj
 0002:0000ad14       ??_C@_0BC@FJCBDDPO@m_fMatchStartTime?$AA@ 100aad14     memesets.obj
 0002:0000ad28       ??_C@_0BI@IIHPCNMB@m_szTournamentEventName?$AA@ 100aad28     memesets.obj
 0002:0000ad40       ??_C@_0BJ@KKHLHAII@m_szTournamentEventStage?$AA@ 100aad40     memesets.obj
 0002:0000ad5c       ??_C@_0BN@GOFKHDOE@m_szTournamentPredictionsTxt?$AA@ 100aad5c     memesets.obj
 0002:0000ad7c       ??_C@_0BM@PBOMOIKP@m_nTournamentPredictionsPct?$AA@ 100aad7c     memesets.obj
 0002:0000ad98       ??_C@_0BB@LNONGHAF@m_szMatchStatTxt?$AA@ 100aad98     memesets.obj
 0002:0000adac       ??_C@_0BK@GIDOPPJD@m_nGuardianModeWaveNumber?$AA@ 100aadac     memesets.obj
 0002:0000adc8       ??_C@_0CF@FCBJMBOD@m_nGuardianModeSpecialKillsRemai@ 100aadc8     memesets.obj
 0002:0000adf0       ??_C@_0CD@OCIFPPFA@m_nGuardianModeSpecialWeaponNeed@ 100aadf0     memesets.obj
 0002:0000ae14       ??_C@_0BJ@GGGKAAEI@m_nHalloweenMaskListSeed?$AA@ 100aae14     memesets.obj
 0002:0000ae30       ??_C@_0BG@GDKBNHJD@m_numGlobalGiftsGiven?$AA@ 100aae30     memesets.obj
 0002:0000ae48       ??_C@_0BD@OEOIEEKB@m_numGlobalGifters?$AA@ 100aae48     memesets.obj
 0002:0000ae5c       ??_C@_0BO@LKDNLPIA@m_numGlobalGiftsPeriodSeconds?$AA@ 100aae5c     memesets.obj
 0002:0000ae7c       ??_C@_0BN@PDKAKIJA@m_arrFeaturedGiftersAccounts?$AA@ 100aae7c     memesets.obj
 0002:0000ae9c       ??_C@_0BK@HJLIHIAP@m_arrFeaturedGiftersGifts?$AA@ 100aae9c     memesets.obj
 0002:0000aeb8       ??_C@_0CE@MBPJGGJ@m_arrTournamentActiveCasterAccou@ 100aaeb8     memesets.obj
 0002:0000aedc       ??_C@_0N@FAHAMKOH@m_nHitboxSet?$AA@ 100aaedc     memesets.obj
 0002:0000aeec       ??_C@_0BB@POPPCPOC@DT_BaseAnimating?$AA@ 100aaeec     memesets.obj
 0002:0000af00       ??_C@_09CPPOEBIG@xxxxxxxxx?$AA@ 100aaf00     Misc.obj
 0002:0000af0c       ??_C@_09JNDMODPH@SVW?$IL?Z?$IL?y?$PP?$BF?$AA@ 100aaf0c     Misc.obj
 0002:0000af18       ??_C@_02JOGGLHBA@?2n?$AA@  100aaf18     Misc.obj
 0002:0000af1c       ??_C@_02COELENML@?2t?$AA@  100aaf1c     Misc.obj
 0002:0000af20       ??_C@_01GPOEFGEJ@?7?$AA@   100aaf20     Misc.obj
 0002:0000afb0       ??_C@_04DFPDFDOM@BETA?$AA@ 100aafb0     Misc.obj
 0002:0000afb8       ??_C@_0BM@OMNEGENF@Register?5NOW?5on?5Insidous?4cc?$AA@ 100aafb8     Misc.obj
 0002:0000afd4       ??_C@_0CA@POOJMLFM@Get?5huge?5bonuses?5and?5advantages?$AA@ 100aafd4     Misc.obj
 0002:0000aff4       ??_C@_0BP@KHHBOICF@Join?5our?5giveaway?5and?5register?$AA@ 100aaff4     Misc.obj
 0002:0000b014       ??_C@_0BN@MHDNJLBB@And?5you?5have?5a?5chance?5to?5win?$AA@ 100ab014     Misc.obj
 0002:0000b034       ??_C@_0CF@GIKKBIPI@A?5prize?5is?5free?5lifetime?5Insidou@ 100ab034     Misc.obj
 0002:0000b05c       ??_C@_0BN@NKGBBDPP@And?5access?5to?5BETA?5Insidious?$AA@ 100ab05c     Misc.obj
 0002:0000b07c       ??_C@_0M@EOJCABJL@Insidous?4cc?$AA@ 100ab07c     Misc.obj
 0002:0000b088       ??_C@_08BLKLIJEH@cs_tibet?$AA@ 100ab088     Misc.obj
 0002:0000b094       ??_C@_07NIBJEIAE@embassy?$AA@ 100ab094     Misc.obj
 0002:0000b09c       ??_C@_05FBDOCGFM@italy?$AA@ 100ab09c     Misc.obj
 0002:0000b0a4       ??_C@_06MPAOAEGI@jungle?$AA@ 100ab0a4     Misc.obj
 0002:0000b0ac       ??_C@_09GDEEAKEC@nukeblank?$AA@ 100ab0ac     Misc.obj
 0002:0000b0b8       ??_C@_06MDIHCADF@office?$AA@ 100ab0b8     Misc.obj
 0002:0000b0c0       ??_C@_0BI@MBHPCPAG@sky_cs15_daylight02_hdr?$AA@ 100ab0c0     Misc.obj
 0002:0000b0d8       ??_C@_0BI@KCDPMKD@sky_cs15_daylight03_hdr?$AA@ 100ab0d8     Misc.obj
 0002:0000b0f0       ??_C@_0BI@BHCGMMBL@sky_cs15_daylight04_hdr?$AA@ 100ab0f0     Misc.obj
 0002:0000b108       ??_C@_0BC@NJBKFELC@sky_csgo_cloudy01?$AA@ 100ab108     Misc.obj
 0002:0000b11c       ??_C@_0BC@PIPMLIGP@sky_csgo_night02b?$AA@ 100ab11c     Misc.obj
 0002:0000b130       ??_C@_0BE@PBHHAKHI@sky_csgo_night_flat?$AA@ 100ab130     Misc.obj
 0002:0000b144       ??_C@_0BB@JFCHDEMK@sky_day02_05_hdr?$AA@ 100ab144     Misc.obj
 0002:0000b158       ??_C@_0N@MNJEOBGO@sky_day02_05?$AA@ 100ab158     Misc.obj
 0002:0000b168       ??_C@_0L@OPAPPBEE@sky_venice?$AA@ 100ab168     Misc.obj
 0002:0000b174       ??_C@_08PEMGGMKO@sky_dust?$AA@ 100ab174     Misc.obj
 0002:0000b180       ??_C@_0BE@IOKGLHFD@sky_l4d_rural02_ldr?$AA@ 100ab180     Misc.obj
 0002:0000b194       ??_C@_0M@FPDMGLII@vertigo_hdr?$AA@ 100ab194     Misc.obj
 0002:0000b1a0       ??_C@_0BA@HGAAPMNH@vertigoblue_hdr?$AA@ 100ab1a0     Misc.obj
 0002:0000b1b0       ??_C@_07PIBIFNJM@vietnam?$AA@ 100ab1b0     Misc.obj
 0002:0000b1b8       ??_C@_0BH@HAEHGEK@mat_postprocess_enable?$AA@ 100ab1b8     Misc.obj
 0002:0000b1d0       ??_C@_0M@CMHOOKLM@net_fakelag?$AA@ 100ab1d0     Misc.obj
 0002:0000b1dc       ??_C@_0N@IFJHEDAB@mat_drawgray?$AA@ 100ab1dc     Misc.obj
 0002:0000b1ec       ??_C@_0BC@LFLDMDCJ@mat_showmiplevels?$AA@ 100ab1ec     Misc.obj
 0002:0000b200       ??_C@_03IKGEINEE@?$CFs?5?$AA@ 100ab200     Misc.obj
 0002:0000b204       ??_C@_0P@OCHDDMNN@cl_righthand?50?$AA@ 100ab204     Misc.obj
 0002:0000b214       ??_C@_0P@PLGIANJM@cl_righthand?51?$AA@ 100ab214     Misc.obj
 0002:0000b224       ??_C@_0BB@CHHHPEBD@r_showenvcubemap?$AA@ 100ab224     Misc.obj
 0002:0000b238       ??_C@_09DNECJBKD@developer?$AA@ 100ab238     Misc.obj
 0002:0000b244       ??_C@_0BA@PJJKDFOF@con_filter_text?$AA@ 100ab244     Misc.obj
 0002:0000b254       ??_C@_0BE@EMKBBHFP@con_filter_text_out?$AA@ 100ab254     Misc.obj
 0002:0000b268       ??_C@_0BC@JPBBANLP@con_filter_enable?$AA@ 100ab268     Misc.obj
 0002:0000b27c       ??_C@_04BAMNGIMJ@hit?5?$AA@ 100ab27c     Misc.obj
 0002:0000b284       ??_C@_06BNEMEGKN@bought?$AA@ 100ab284     Misc.obj
 0002:0000b28c       ??_C@_0BB@OKHOGIP@sv_airaccelerate?$AA@ 100ab28c     Misc.obj
 0002:0000b2a0       ??_C@_0M@NAINEIIC@sv_maxspeed?$AA@ 100ab2a0     Misc.obj
 0002:0000b2b0       __real@3f1921fb60000000    100ab2b0     Misc.obj
 0002:0000b2b8       __real@3fb999999999999a    100ab2b8     Misc.obj
 0002:0000b2c0       __real@3fd54fdf3b645a1d    100ab2c0     Misc.obj
 0002:0000b2c8       __real@3fd921fb60000000    100ab2c8     Misc.obj
 0002:0000b2d0       __real@3fe921fb60000000    100ab2d0     Misc.obj
 0002:0000b2d8       __real@3ff2d97c88000000    100ab2d8     Misc.obj
 0002:0000b2e0       __real@3ff921fb60000000    100ab2e0     Misc.obj
 0002:0000b2e8       __real@4004000000000000    100ab2e8     Misc.obj
 0002:0000b2f0       __real@400921fb60000000    100ab2f0     Misc.obj
 0002:0000b2f8       __real@403e000000000000    100ab2f8     Misc.obj
 0002:0000b300       __xmm@000202020202020202020241410c5122 100ab300     Misc.obj
 0002:0000b310       __xmm@00060606060606064545085553494226 100ab310     Misc.obj
 0002:0000b320       __xmm@000f0f421f190308051f02254c4c4c6c 100ab320     Misc.obj
 0002:0000b330       __xmm@0010101010101053531e43455f545930 100ab330     Misc.obj
 0002:0000b340       __xmm@00242424242424242467672a77716b04 100ab340     Misc.obj
 0002:0000b350       __xmm@00262626656528757369626f75684f06 100ab350     Misc.obj
 0002:0000b360       __xmm@0027646429747268636e74694e272707 100ab360     Misc.obj
 0002:0000b370       __xmm@003271713c61677d767b617c5b323212 100ab370     Misc.obj
 0002:0000b380       __xmm@003f3f3f3f3f3f3f3f3f3f3f7c7c311f 100ab380     Misc.obj
 0002:0000b390       __xmm@00424242424201014c11170d060b1162 100ab390     Misc.obj
 0002:0000b3a0       __xmm@005656151558050319121f05183f5676 100ab3a0     Misc.obj
 0002:0000b3b0       __xmm@00616161616161616161616161616141 100ab3b0     Misc.obj
 0002:0000b3c0       __xmm@006d6d6d6d6d6d6d6d6d6d6d6d6d2e4d 100ab3c0     Misc.obj
 0002:0000b3d0       __xmm@007b7b7b7b7b7b7b7b7b7b7b7b38385b 100ab3d0     Misc.obj
 0002:0000b3e0       __xmm@007c7c7c7c3f3f722f293338352f325c 100ab3e0     Misc.obj
 0002:0000b3f0       __xmm@007c7c7c7c7c7c7c7c7c3f3f722f295c 100ab3f0     Misc.obj
 0002:0000b400       __xmm@0209041e03244d4d4d4d4d4d4d4d4d6d 100ab400     Misc.obj
 0002:0000b410       __xmm@04040404040404040404040404096d24 100ab410     Misc.obj
 0002:0000b420       __xmm@046d6d6d6d6d6d6d6d6d6d6d6d6d6d4d 100ab420     Misc.obj
 0002:0000b430       __xmm@0d0d0d0d0d0d0d00584249445e43642d 100ab430     Misc.obj
 0002:0000b440       __xmm@1212121212121212125d565b415c7b32 100ab440     Misc.obj
 0002:0000b450       __xmm@151515151515151515151515465b7c35 100ab450     Misc.obj
 0002:0000b460       __xmm@1f1f1f1f1f1f124c4a505b564c51763f 100ab460     Misc.obj
 0002:0000b470       __xmm@2929292929292929292929607a674009 100ab470     Misc.obj
 0002:0000b480       __xmm@303030303030303030303030307e5910 100ab480     Misc.obj
 0002:0000b490       __xmm@303030303030303030303f79637e5910 100ab490     Misc.obj
 0002:0000b4a0       __xmm@31313131313131313e7e7578627f5811 100ab4a0     Misc.obj
 0002:0000b4b0       __xmm@3131313172723f62647e7578627f5811 100ab4b0     Misc.obj
 0002:0000b4c0       __xmm@367b26203a313c263b1c757575757555 100ab4c0     Misc.obj
 0002:0000b4d0       __xmm@3838383838383838383835716b765118 100ab4d0     Misc.obj
 0002:0000b4e0       __xmm@393939393939393934767d706a775019 100ab4e0     Misc.obj
 0002:0000b4f0       __xmm@3b212a273d20076e6e6e6e6e6e6e6e4e 100ab4f0     Misc.obj
 0002:0000b500       __xmm@43434343434343434343070a100d2a63 100ab500     Misc.obj
 0002:0000b510       __xmm@4444444444444b17110b000d170a2d64 100ab510     Misc.obj
 0002:0000b520       __xmm@48484848484848484848484847062168 100ab520     Misc.obj
 0002:0000b530       __xmm@49494949494949461c060d001a072069 100ab530     Misc.obj
 0002:0000b540       __xmm@4949494949494949494949461a072069 100ab540     Misc.obj
 0002:0000b550       __xmm@49494949494949494949494949494469 100ab550     Misc.obj
 0002:0000b560       __xmm@4b4b4b4b4b4b4b4b4b4b4b4b4b4b4b6b 100ab560     Misc.obj
 0002:0000b570       __xmm@4c4c4c4c430f421f190308051f02256c 100ab570     Misc.obj
 0002:0000b580       __xmm@4f4f4f4f4f4f4f4f4f400b061c01266f 100ab580     Misc.obj
 0002:0000b590       __xmm@5151515151515151515151515c1f3871 100ab590     Misc.obj
 0002:0000b5a0       __xmm@53535353535353535353535353535c73 100ab5a0     Misc.obj
 0002:0000b5b0       __xmm@545248434e54496e0707070707070727 100ab5b0     Misc.obj
 0002:0000b5c0       __xmm@56565656561558050319121f05183f76 100ab5c0     Misc.obj
 0002:0000b5d0       __xmm@5a7d1414141414141414141414141434 100ab5d0     Misc.obj
 0002:0000b5e0       __xmm@5c5c5c5c5c5c5c5c5c5c5c5c5c5c357c 100ab5e0     Misc.obj
 0002:0000b5f0       __xmm@6262626262626262626f262b312c0b42 100ab5f0     Misc.obj
 0002:0000b600       __xmm@626262626f216c31372d262b312c0b42 100ab600     Misc.obj
 0002:0000b610       __xmm@67676767676767676767676767680e47 100ab610     Misc.obj
 0002:0000b620       __xmm@696969696969693a3c262d203a270049 100ab620     Misc.obj
 0002:0000b630       __xmm@6c617b66412828282828282828282808 100ab630     Misc.obj
 0002:0000b640       __xmm@72727272727272727272727f213c1b52 100ab640     Misc.obj
 0002:0000b650       __xmm@7373737373737373263c373a203d1a53 100ab650     Misc.obj
 0002:0000b660       __xmm@766b4c25252525252525252525252505 100ab660     Misc.obj
 0002:0000b670       __xmm@7c667b5c353535353535353535353515 100ab670     Misc.obj
 0002:0000b680       __real@3fc6571840000000    100ab680     RageBot.obj
 0002:0000b688       __real@3fe0c15240000000    100ab688     RageBot.obj
 0002:0000b690       __real@406bcfc0659b6018    100ab690     RageBot.obj
 0002:0000b698       __real@4076800000000000    100ab698     RageBot.obj
 0002:0000b6a0       __real@42960000            100ab6a0     RageBot.obj
 0002:0000b6a4       __real@42d20000            100ab6a4     RageBot.obj
 0002:0000b6a8       __real@42dc0000            100ab6a8     RageBot.obj
 0002:0000b6ac       __real@42ec0000            100ab6ac     RageBot.obj
 0002:0000b6b0       __real@42fa0000            100ab6b0     RageBot.obj
 0002:0000b6b4       __real@43070000            100ab6b4     RageBot.obj
 0002:0000b6b8       __real@43110000            100ab6b8     RageBot.obj
 0002:0000b6bc       __real@431b0000            100ab6bc     RageBot.obj
 0002:0000b6c0       __xmm@00000003000000040000000600000007 100ab6c0     RageBot.obj
 0002:0000b6d0       __xmm@00000008000000090000001000000012 100ab6d0     RageBot.obj
 0002:0000b6e0       __xmm@0000000c0000000d0000000e0000000f 100ab6e0     RageBot.obj
 0002:0000b6f0       __xmm@00000011000000130000000a0000000b 100ab6f0     RageBot.obj
 0002:0000b700       ??_C@_0N@DCGJBAGD@Verdana?5Bold?$AA@ 100ab700     Render.obj
 0002:0000b710       ??_C@_06IAEPOIJG@Tahoma?$AA@ 100ab710     Render.obj
 0002:0000b718       ??_C@_0BB@FAJJLNMN@Smallest?5Pixel?97?$AA@ 100ab718     Render.obj
 0002:0000b72c       ??_C@_07EHHHOIHI@Verdana?$AA@ 100ab72c     Render.obj
 0002:0000b734       ??_C@_0BE@LPOJCLFC@AdobeGothicStd?9Bold?$AA@ 100ab734     Render.obj
 0002:0000b748       __real@3f50624dd2f1a9fc    100ab748     Render.obj
 0002:0000b750       ??_C@_0L@ODBCCLKK@xxxxxxxxxx?$AA@ 100ab750     MiscFunctions.obj
 0002:0000b75c       ??_C@_0L@FLCBOCJD@U?$IL?l?$ID?l0?s?$AP?$BAu?$AA@ 100ab75c     MiscFunctions.obj
 0002:0000b768       ??_C@_08GPCNJHOL@say?5?$CC?$CFs?$CC?$AA@ 100ab768     MiscFunctions.obj
 0002:0000b778       ??_7ios_base@std@@6B@      100ab778     Utilities.obj
 0002:0000b780       ??_7?$basic_ios@DU?$char_traits@D@std@@@std@@6B@ 100ab780     Utilities.obj
 0002:0000b788       ??_7?$basic_ostream@DU?$char_traits@D@std@@@std@@6B@ 100ab788     Utilities.obj
 0002:0000b78c       ??_8?$basic_ostream@DU?$char_traits@D@std@@@std@@7B@ 100ab78c     Utilities.obj
 0002:0000b798       ??_7?$basic_streambuf@DU?$char_traits@D@std@@@std@@6B@ 100ab798     Utilities.obj
 0002:0000b7d8       ??_7?$basic_filebuf@DU?$char_traits@D@std@@@std@@6B@ 100ab7d8     Utilities.obj
 0002:0000b818       ??_7?$basic_ofstream@DU?$char_traits@D@std@@@std@@6B@ 100ab818     Utilities.obj
 0002:0000b81c       ??_8?$basic_ofstream@DU?$char_traits@D@std@@@std@@7B@ 100ab81c     Utilities.obj
 0002:0000b824       ??_C@_0BA@ELKIONDK@bad?5locale?5name?$AA@ 100ab824     Utilities.obj
 0002:0000b838       ??_7_Facet_base@std@@6B@   100ab838     Utilities.obj
 0002:0000b848       ??_7?$ctype@D@std@@6B@     100ab848     Utilities.obj
 0002:0000b878       ??_7error_category@std@@6B@ 100ab878     Utilities.obj
 0002:0000b894       ??_7_System_error@std@@6B@ 100ab894     Utilities.obj
 0002:0000b89c       ??_C@_02LMMGGCAJ@?3?5?$AA@ 100ab89c     Utilities.obj
 0002:0000b8a4       ??_7system_error@std@@6B@  100ab8a4     Utilities.obj
 0002:0000b8b0       ??_7_Iostream_error_category@std@@6B@ 100ab8b0     Utilities.obj
 0002:0000b8c8       ??_C@_08LLGCOLLL@iostream?$AA@ 100ab8c8     Utilities.obj
 0002:0000b8d4       ??_C@_0BG@PADBLCHM@iostream?5stream?5error?$AA@ 100ab8d4     Utilities.obj
 0002:0000b8f0       ??_7failure@ios_base@std@@6B@ 100ab8f0     Utilities.obj
 0002:0000b8f8       ??_C@_0BF@PHHKMMFD@ios_base?3?3badbit?5set?$AA@ 100ab8f8     Utilities.obj
 0002:0000b910       ??_C@_0BG@FMKFHCIL@ios_base?3?3failbit?5set?$AA@ 100ab910     Utilities.obj
 0002:0000b928       ??_C@_0BF@OOHOMBOF@ios_base?3?3eofbit?5set?$AA@ 100ab928     Utilities.obj
 0002:0000b944       ??_7?$codecvt@DDU_Mbstatet@@@std@@6B@ 100ab944     Utilities.obj
 0002:0000b970       ??_7type_info@@6B@         100ab970     LIBCMT:std_type_info_static.obj
 0002:0000b978       ??_C@_1EC@JIJBPKFM@?$AAa?$AAp?$AAi?$AA?9?$AAm?$AAs?$AA?9?$AAw?$AAi?$AAn?$AA?9?$AAc?$AAo?$AAr?$AAe?$AA?9?$AAs?$AAy?$AAn?$AAc?$AAh?$AA?9?$AAl?$AA1?$AA?9?$AA2?$AA?9?$AA0?$AA?4?$AAd?$AAl?$AAl@ 100ab978     LIBCMT:thread_safe_statics.obj
 0002:0000b9bc       ??_C@_1BK@MGMFAEKH@?$AAk?$AAe?$AAr?$AAn?$AAe?$AAl?$AA3?$AA2?$AA?4?$AAd?$AAl?$AAl?$AA?$AA@ 100ab9bc     LIBCMT:thread_safe_statics.obj
 0002:0000b9d8       ??_C@_0BM@HLJJNPAH@InitializeConditionVariable?$AA@ 100ab9d8     LIBCMT:thread_safe_statics.obj
 0002:0000b9f4       ??_C@_0BJ@JEBJOJFJ@SleepConditionVariableCS?$AA@ 100ab9f4     LIBCMT:thread_safe_statics.obj
 0002:0000ba10       ??_C@_0BJ@PGPPEPCC@WakeAllConditionVariable?$AA@ 100aba10     LIBCMT:thread_safe_statics.obj
 0002:0000bb18       __pRawDllMain              100abb18     LIBCMT:dll_dllmain.obj
 0002:0000bb18       __pDefaultRawDllMain       100abb18     LIBCMT:dll_dllmain.obj
 0002:0000bb20       ??_7bad_alloc@std@@6B@     100abb20     LIBCMT:throw_bad_alloc.obj
 0002:0000bb28       ??_C@_0P@GHFPNOJB@bad?5allocation?$AA@ 100abb28     LIBCMT:throw_bad_alloc.obj
 0002:0000bb3c       ??_7bad_array_new_length@std@@6B@ 100abb3c     LIBCMT:throw_bad_alloc.obj
 0002:0000bb44       ??_C@_0BF@KINCDENJ@bad?5array?5new?5length?$AA@ 100abb44     LIBCMT:throw_bad_alloc.obj
 0002:0000bb60       ??_7logic_error@std@@6B@   100abb60     libcpmt:xthrow.obj
 0002:0000bb6c       ??_7invalid_argument@std@@6B@ 100abb6c     libcpmt:xthrow.obj
 0002:0000bb78       ??_7length_error@std@@6B@  100abb78     libcpmt:xthrow.obj
 0002:0000bb84       ??_7out_of_range@std@@6B@  100abb84     libcpmt:xthrow.obj
 0002:0000bb8c       ??_C@_0BM@EEBBMCOD@invalid?5random_device?5value?$AA@ 100abb8c     libcpmt:xrngdev.obj
 0002:0000bba8       ?_BADOFF@std@@3_JB         100abba8     libcpmt:ios.obj
 0002:0000bbb4       ??_7_Locimp@locale@std@@6B@ 100abbb4     libcpmt:locale0.obj
 0002:0000bbc0       ??_C@_01NBENCBCI@?$CK?$AA@ 100abbc0     libcpmt:locale0.obj
 0002:0000bbc4       ??_C@_0O@BFJCFAAK@unknown?5error?$AA@ 100abbc4     libcpmt:xonce.obj
 0002:0000c098       ??_C@_0BN@LKKBCCDB@address?5family?5not?5supported?$AA@ 100ac098     libcpmt:syserror.obj
 0002:0000c0b8       ??_C@_0P@LDMLAFHI@address?5in?5use?$AA@ 100ac0b8     libcpmt:syserror.obj
 0002:0000c0c8       ??_C@_0BG@DHPCNBJB@address?5not?5available?$AA@ 100ac0c8     libcpmt:syserror.obj
 0002:0000c0e0       ??_C@_0BC@DFIBIBIL@already?5connected?$AA@ 100ac0e0     libcpmt:syserror.obj
 0002:0000c0f4       ??_C@_0BH@CAKOHOMI@argument?5list?5too?5long?$AA@ 100ac0f4     libcpmt:syserror.obj
 0002:0000c10c       ??_C@_0BH@CGIMPKIM@argument?5out?5of?5domain?$AA@ 100ac10c     libcpmt:syserror.obj
 0002:0000c124       ??_C@_0M@KGHGGJGL@bad?5address?$AA@ 100ac124     libcpmt:syserror.obj
 0002:0000c130       ??_C@_0BE@MPJPGCEO@bad?5file?5descriptor?$AA@ 100ac130     libcpmt:syserror.obj
 0002:0000c144       ??_C@_0M@PMMIEFCP@bad?5message?$AA@ 100ac144     libcpmt:syserror.obj
 0002:0000c150       ??_C@_0M@KPHOFDBE@broken?5pipe?$AA@ 100ac150     libcpmt:syserror.obj
 0002:0000c15c       ??_C@_0BD@MGNDDEGM@connection?5aborted?$AA@ 100ac15c     libcpmt:syserror.obj
 0002:0000c170       ??_C@_0BP@KAIHPOGN@connection?5already?5in?5progress?$AA@ 100ac170     libcpmt:syserror.obj
 0002:0000c190       ??_C@_0BD@PJLIIJEL@connection?5refused?$AA@ 100ac190     libcpmt:syserror.obj
 0002:0000c1a4       ??_C@_0BB@IECNJNOI@connection?5reset?$AA@ 100ac1a4     libcpmt:syserror.obj
 0002:0000c1b8       ??_C@_0BC@PPHBOELF@cross?5device?5link?$AA@ 100ac1b8     libcpmt:syserror.obj
 0002:0000c1cc       ??_C@_0BN@KDMIFEIP@destination?5address?5required?$AA@ 100ac1cc     libcpmt:syserror.obj
 0002:0000c1ec       ??_C@_0BI@NGCEHDD@device?5or?5resource?5busy?$AA@ 100ac1ec     libcpmt:syserror.obj
 0002:0000c204       ??_C@_0BE@JIDOCPHM@directory?5not?5empty?$AA@ 100ac204     libcpmt:syserror.obj
 0002:0000c218       ??_C@_0BI@BNCLIGPB@executable?5format?5error?$AA@ 100ac218     libcpmt:syserror.obj
 0002:0000c230       ??_C@_0M@MIDIAGJP@file?5exists?$AA@ 100ac230     libcpmt:syserror.obj
 0002:0000c23c       ??_C@_0P@DNAJLBJK@file?5too?5large?$AA@ 100ac23c     libcpmt:syserror.obj
 0002:0000c24c       ??_C@_0BC@EJHOMAAK@filename?5too?5long?$AA@ 100ac24c     libcpmt:syserror.obj
 0002:0000c260       ??_C@_0BH@KEFGLDAF@function?5not?5supported?$AA@ 100ac260     libcpmt:syserror.obj
 0002:0000c278       ??_C@_0BB@DHFDFGDM@host?5unreachable?$AA@ 100ac278     libcpmt:syserror.obj
 0002:0000c28c       ??_C@_0BD@JPHBMONG@identifier?5removed?$AA@ 100ac28c     libcpmt:syserror.obj
 0002:0000c2a0       ??_C@_0BG@CDNPAGJK@illegal?5byte?5sequence?$AA@ 100ac2a0     libcpmt:syserror.obj
 0002:0000c2b8       ??_C@_0CD@BNPLBMNA@inappropriate?5io?5control?5operati@ 100ac2b8     libcpmt:syserror.obj
 0002:0000c2dc       ??_C@_0M@EGEKIIMP@interrupted?$AA@ 100ac2dc     libcpmt:syserror.obj
 0002:0000c2e8       ??_C@_0BB@FCMFBGOM@invalid?5argument?$AA@ 100ac2e8     libcpmt:syserror.obj
 0002:0000c2fc       ??_C@_0N@OHAFKDEK@invalid?5seek?$AA@ 100ac2fc     libcpmt:syserror.obj
 0002:0000c30c       ??_C@_08GLNPIFBN@io?5error?$AA@ 100ac30c     libcpmt:syserror.obj
 0002:0000c318       ??_C@_0P@FLLDBIDK@is?5a?5directory?$AA@ 100ac318     libcpmt:syserror.obj
 0002:0000c328       ??_C@_0N@IFLPBIOP@message?5size?$AA@ 100ac328     libcpmt:syserror.obj
 0002:0000c338       ??_C@_0N@KIIEAAIO@network?5down?$AA@ 100ac338     libcpmt:syserror.obj
 0002:0000c348       ??_C@_0O@FNPDBHEE@network?5reset?$AA@ 100ac348     libcpmt:syserror.obj
 0002:0000c358       ??_C@_0BE@IFNCKGE@network?5unreachable?$AA@ 100ac358     libcpmt:syserror.obj
 0002:0000c36c       ??_C@_0BA@PFFCAOFK@no?5buffer?5space?$AA@ 100ac36c     libcpmt:syserror.obj
 0002:0000c37c       ??_C@_0BB@IEPBLJHK@no?5child?5process?$AA@ 100ac37c     libcpmt:syserror.obj
 0002:0000c390       ??_C@_07PLECNNKG@no?5link?$AA@ 100ac390     libcpmt:syserror.obj
 0002:0000c398       ??_C@_0BC@NJECKMKE@no?5lock?5available?$AA@ 100ac398     libcpmt:syserror.obj
 0002:0000c3ac       ??_C@_0BF@PBGGPKKE@no?5message?5available?$AA@ 100ac3ac     libcpmt:syserror.obj
 0002:0000c3c4       ??_C@_0L@EDOLMPAK@no?5message?$AA@ 100ac3c4     libcpmt:syserror.obj
 0002:0000c3d0       ??_C@_0BD@EAMBFIDF@no?5protocol?5option?$AA@ 100ac3d0     libcpmt:syserror.obj
 0002:0000c3e4       ??_C@_0BD@IJDJKDEA@no?5space?5on?5device?$AA@ 100ac3e4     libcpmt:syserror.obj
 0002:0000c3f8       ??_C@_0BE@MKFDAFMP@no?5stream?5resources?$AA@ 100ac3f8     libcpmt:syserror.obj
 0002:0000c40c       ??_C@_0BK@IMCPHCBI@no?5such?5device?5or?5address?$AA@ 100ac40c     libcpmt:syserror.obj
 0002:0000c428       ??_C@_0P@FDINDDOK@no?5such?5device?$AA@ 100ac428     libcpmt:syserror.obj
 0002:0000c438       ??_C@_0BK@NDOCBPGE@no?5such?5file?5or?5directory?$AA@ 100ac438     libcpmt:syserror.obj
 0002:0000c454       ??_C@_0BA@ENLPPKBN@no?5such?5process?$AA@ 100ac454     libcpmt:syserror.obj
 0002:0000c464       ??_C@_0BA@DOCPFFJG@not?5a?5directory?$AA@ 100ac464     libcpmt:syserror.obj
 0002:0000c474       ??_C@_0N@POEIPGGF@not?5a?5socket?$AA@ 100ac474     libcpmt:syserror.obj
 0002:0000c484       ??_C@_0N@LGAPMMPI@not?5a?5stream?$AA@ 100ac484     libcpmt:syserror.obj
 0002:0000c494       ??_C@_0O@GLMIBBEG@not?5connected?$AA@ 100ac494     libcpmt:syserror.obj
 0002:0000c4a4       ??_C@_0BC@ENOOLCNF@not?5enough?5memory?$AA@ 100ac4a4     libcpmt:syserror.obj
 0002:0000c4b8       ??_C@_0O@NHEDABJP@not?5supported?$AA@ 100ac4b8     libcpmt:syserror.obj
 0002:0000c4c8       ??_C@_0BD@MOLBPMEA@operation?5canceled?$AA@ 100ac4c8     libcpmt:syserror.obj
 0002:0000c4dc       ??_C@_0BG@KDKHOPCO@operation?5in?5progress?$AA@ 100ac4dc     libcpmt:syserror.obj
 0002:0000c4f4       ??_C@_0BI@OHIEJAAB@operation?5not?5permitted?$AA@ 100ac4f4     libcpmt:syserror.obj
 0002:0000c50c       ??_C@_0BI@LNEGIFLN@operation?5not?5supported?$AA@ 100ac50c     libcpmt:syserror.obj
 0002:0000c524       ??_C@_0BG@OEMDKMEE@operation?5would?5block?$AA@ 100ac524     libcpmt:syserror.obj
 0002:0000c53c       ??_C@_0L@BLPOFLNJ@owner?5dead?$AA@ 100ac53c     libcpmt:syserror.obj
 0002:0000c548       ??_C@_0BC@CIJDGCDI@permission?5denied?$AA@ 100ac548     libcpmt:syserror.obj
 0002:0000c55c       ??_C@_0P@FNPOCJBE@protocol?5error?$AA@ 100ac55c     libcpmt:syserror.obj
 0002:0000c56c       ??_C@_0BH@JPPPLHJB@protocol?5not?5supported?$AA@ 100ac56c     libcpmt:syserror.obj
 0002:0000c584       ??_C@_0BG@EICBIHDP@read?5only?5file?5system?$AA@ 100ac584     libcpmt:syserror.obj
 0002:0000c59c       ??_C@_0BO@BJBOMOEJ@resource?5deadlock?5would?5occur?$AA@ 100ac59c     libcpmt:syserror.obj
 0002:0000c5bc       ??_C@_0BP@LKNGHENJ@resource?5unavailable?5try?5again?$AA@ 100ac5bc     libcpmt:syserror.obj
 0002:0000c5dc       ??_C@_0BE@GOIPJJHG@result?5out?5of?5range?$AA@ 100ac5dc     libcpmt:syserror.obj
 0002:0000c5f0       ??_C@_0BG@MPLKFPAE@state?5not?5recoverable?$AA@ 100ac5f0     libcpmt:syserror.obj
 0002:0000c608       ??_C@_0P@DIIFGFCG@stream?5timeout?$AA@ 100ac608     libcpmt:syserror.obj
 0002:0000c618       ??_C@_0P@IPFDMIFL@text?5file?5busy?$AA@ 100ac618     libcpmt:syserror.obj
 0002:0000c628       ??_C@_09KJPPMAOI@timed?5out?$AA@ 100ac628     libcpmt:syserror.obj
 0002:0000c634       ??_C@_0BO@HACHBEKI@too?5many?5files?5open?5in?5system?$AA@ 100ac634     libcpmt:syserror.obj
 0002:0000c654       ??_C@_0BE@GHAFMPAH@too?5many?5files?5open?$AA@ 100ac654     libcpmt:syserror.obj
 0002:0000c668       ??_C@_0P@HCOMKFCC@too?5many?5links?$AA@ 100ac668     libcpmt:syserror.obj
 0002:0000c678       ??_C@_0BO@EFGOJEF@too?5many?5symbolic?5link?5levels?$AA@ 100ac678     libcpmt:syserror.obj
 0002:0000c698       ??_C@_0BA@KGKGOOJA@value?5too?5large?$AA@ 100ac698     libcpmt:syserror.obj
 0002:0000c6a8       ??_C@_0BE@MIEJDDNH@wrong?5protocol?5type?$AA@ 100ac6a8     libcpmt:syserror.obj
 0002:0000c6bc       ??_C@_08KNHFBNJ@FlsAlloc?$AA@ 100ac6bc     libcpmt:winapisupp.obj
 0002:0000c6c8       ??_C@_07PEJMOBNF@FlsFree?$AA@ 100ac6c8     libcpmt:winapisupp.obj
 0002:0000c6d0       ??_C@_0M@GDNOONDI@FlsGetValue?$AA@ 100ac6d0     libcpmt:winapisupp.obj
 0002:0000c6dc       ??_C@_0M@JCPCPOEF@FlsSetValue?$AA@ 100ac6dc     libcpmt:winapisupp.obj
 0002:0000c6e8       ??_C@_0BM@HCFOFFN@InitializeCriticalSectionEx?$AA@ 100ac6e8     libcpmt:winapisupp.obj
 0002:0000c704       ??_C@_0BE@GPLMMCMH@InitOnceExecuteOnce?$AA@ 100ac704     libcpmt:winapisupp.obj
 0002:0000c718       ??_C@_0P@DLHPPCNH@CreateEventExW?$AA@ 100ac718     libcpmt:winapisupp.obj
 0002:0000c728       ??_C@_0BB@MEFPJLHN@CreateSemaphoreW?$AA@ 100ac728     libcpmt:winapisupp.obj
 0002:0000c73c       ??_C@_0BD@KIEEOEEH@CreateSemaphoreExW?$AA@ 100ac73c     libcpmt:winapisupp.obj
 0002:0000c750       ??_C@_0BG@OGFAJCKC@CreateThreadpoolTimer?$AA@ 100ac750     libcpmt:winapisupp.obj
 0002:0000c768       ??_C@_0BD@LPLEMMDI@SetThreadpoolTimer?$AA@ 100ac768     libcpmt:winapisupp.obj
 0002:0000c77c       ??_C@_0CA@FMNJENH@WaitForThreadpoolTimerCallbacks?$AA@ 100ac77c     libcpmt:winapisupp.obj
 0002:0000c79c       ??_C@_0BF@DCFCCNOC@CloseThreadpoolTimer?$AA@ 100ac79c     libcpmt:winapisupp.obj
 0002:0000c7b4       ??_C@_0BF@FLABGKKM@CreateThreadpoolWait?$AA@ 100ac7b4     libcpmt:winapisupp.obj
 0002:0000c7cc       ??_C@_0BC@MGCOHNA@SetThreadpoolWait?$AA@ 100ac7cc     libcpmt:winapisupp.obj
 0002:0000c7e0       ??_C@_0BE@OCIOMIMP@CloseThreadpoolWait?$AA@ 100ac7e0     libcpmt:winapisupp.obj
 0002:0000c7f4       ??_C@_0BJ@LKGHFHBO@FlushProcessWriteBuffers?$AA@ 100ac7f4     libcpmt:winapisupp.obj
 0002:0000c810       ??_C@_0BP@KALKKPMO@FreeLibraryWhenCallbackReturns?$AA@ 100ac810     libcpmt:winapisupp.obj
 0002:0000c830       ??_C@_0BK@DFNBACLA@GetCurrentProcessorNumber?$AA@ 100ac830     libcpmt:winapisupp.obj
 0002:0000c84c       ??_C@_0BE@FKKLLFLM@CreateSymbolicLinkW?$AA@ 100ac84c     libcpmt:winapisupp.obj
 0002:0000c860       ??_C@_0BE@JOGNEJCI@GetCurrentPackageId?$AA@ 100ac860     libcpmt:winapisupp.obj
 0002:0000c874       ??_C@_0P@CDHHOHKP@GetTickCount64?$AA@ 100ac874     libcpmt:winapisupp.obj
 0002:0000c884       ??_C@_0BN@NEEHBBPO@GetFileInformationByHandleEx?$AA@ 100ac884     libcpmt:winapisupp.obj
 0002:0000c8a4       ??_C@_0BL@KBBHGKCM@SetFileInformationByHandle?$AA@ 100ac8a4     libcpmt:winapisupp.obj
 0002:0000c8c0       ??_C@_0BP@FPNJPEJC@GetSystemTimePreciseAsFileTime?$AA@ 100ac8c0     libcpmt:winapisupp.obj
 0002:0000c8e0       ??_C@_0BG@BFNILBLN@WakeConditionVariable?$AA@ 100ac8e0     libcpmt:winapisupp.obj
 0002:0000c8f8       ??_C@_0BC@MMLHEBPB@InitializeSRWLock?$AA@ 100ac8f8     libcpmt:winapisupp.obj
 0002:0000c90c       ??_C@_0BI@OMNLIJDB@AcquireSRWLockExclusive?$AA@ 100ac90c     libcpmt:winapisupp.obj
 0002:0000c924       ??_C@_0BL@OGHFEMNA@TryAcquireSRWLockExclusive?$AA@ 100ac924     libcpmt:winapisupp.obj
 0002:0000c940       ??_C@_0BI@HMIEPCNJ@ReleaseSRWLockExclusive?$AA@ 100ac940     libcpmt:winapisupp.obj
 0002:0000c958       ??_C@_0BK@LGACAGIC@SleepConditionVariableSRW?$AA@ 100ac958     libcpmt:winapisupp.obj
 0002:0000c974       ??_C@_0BF@GGPHFPJA@CreateThreadpoolWork?$AA@ 100ac974     libcpmt:winapisupp.obj
 0002:0000c98c       ??_C@_0BF@NHDAIMMO@SubmitThreadpoolWork?$AA@ 100ac98c     libcpmt:winapisupp.obj
 0002:0000c9a4       ??_C@_0BE@NPHIPNPD@CloseThreadpoolWork?$AA@ 100ac9a4     libcpmt:winapisupp.obj
 0002:0000c9b8       ??_C@_0BA@IHGNDAEB@CompareStringEx?$AA@ 100ac9b8     libcpmt:winapisupp.obj
 0002:0000c9c8       ??_C@_0BA@ONOKGCMP@GetLocaleInfoEx?$AA@ 100ac9c8     libcpmt:winapisupp.obj
 0002:0000c9d8       ??_C@_0O@KKBNKAPF@LCMapStringEx?$AA@ 100ac9d8     libcpmt:winapisupp.obj
 0002:0000c9e8       ??_C@_1M@BOFOGHPB@?$AAs?$AAq?$AA?9?$AAa?$AAl?$AA?$AA@ 100ac9e8     libcpmt:winapinls.obj
 0002:0000c9f4       ??_C@_1BG@LJBBIPGB@?$AAs?$AAr?$AA?9?$AAb?$AAa?$AA?9?$AAc?$AAy?$AAr?$AAl?$AA?$AA@ 100ac9f4     libcpmt:winapinls.obj
 0002:0000ca0c       ??_C@_1BG@JLBENFOE@?$AAs?$AAr?$AA?9?$AAb?$AAa?$AA?9?$AAl?$AAa?$AAt?$AAn?$AA?$AA@ 100aca0c     libcpmt:winapinls.obj
 0002:0000ca24       ??_C@_1BG@KODPNHE@?$AAs?$AAr?$AA?9?$AAs?$AAp?$AA?9?$AAc?$AAy?$AAr?$AAl?$AA?$AA@ 100aca24     libcpmt:winapinls.obj
 0002:0000ca3c       ??_C@_1BG@CIOGKHPB@?$AAs?$AAr?$AA?9?$AAs?$AAp?$AA?9?$AAl?$AAa?$AAt?$AAn?$AA?$AA@ 100aca3c     libcpmt:winapinls.obj
 0002:0000ca54       ??_C@_1M@NGFJLMAC@?$AAs?$AAv?$AA?9?$AAf?$AAi?$AA?$AA@ 100aca54     libcpmt:winapinls.obj
 0002:0000ca60       ??_C@_1M@MPJEJAJC@?$AAs?$AAv?$AA?9?$AAs?$AAe?$AA?$AA@ 100aca60     libcpmt:winapinls.obj
 0002:0000ca6c       ??_C@_1M@MPNDHLFK@?$AAs?$AAw?$AA?9?$AAk?$AAe?$AA?$AA@ 100aca6c     libcpmt:winapinls.obj
 0002:0000ca78       ??_C@_1O@KOHBJJI@?$AAs?$AAy?$AAr?$AA?9?$AAs?$AAy?$AA?$AA@ 100aca78     libcpmt:winapinls.obj
 0002:0000ca88       ??_C@_1M@LDCEFHA@?$AAt?$AAa?$AA?9?$AAi?$AAn?$AA?$AA@ 100aca88     libcpmt:winapinls.obj
 0002:0000ca94       ??_C@_1M@CNJOFAK@?$AAt?$AAe?$AA?9?$AAi?$AAn?$AA?$AA@ 100aca94     libcpmt:winapinls.obj
 0002:0000caa0       ??_C@_1M@GNAECACD@?$AAt?$AAh?$AA?9?$AAt?$AAh?$AA?$AA@ 100acaa0     libcpmt:winapinls.obj
 0002:0000caac       ??_C@_1M@CHBIHOJO@?$AAt?$AAn?$AA?9?$AAz?$AAa?$AA?$AA@ 100acaac     libcpmt:winapinls.obj
 0002:0000cab8       ??_C@_1M@GCCMIGPJ@?$AAt?$AAr?$AA?9?$AAt?$AAr?$AA?$AA@ 100acab8     libcpmt:winapinls.obj
 0002:0000cac4       ??_C@_1M@CELMCNBK@?$AAt?$AAt?$AA?9?$AAr?$AAu?$AA?$AA@ 100acac4     libcpmt:winapinls.obj
 0002:0000cad0       ??_C@_1M@KLMCELGA@?$AAu?$AAk?$AA?9?$AAu?$AAa?$AA?$AA@ 100acad0     libcpmt:winapinls.obj
 0002:0000cadc       ??_C@_1M@EPAJJAJF@?$AAu?$AAr?$AA?9?$AAp?$AAk?$AA?$AA@ 100acadc     libcpmt:winapinls.obj
 0002:0000cae8       ??_C@_1BG@GEGPMCDJ@?$AAu?$AAz?$AA?9?$AAu?$AAz?$AA?9?$AAc?$AAy?$AAr?$AAl?$AA?$AA@ 100acae8     libcpmt:winapinls.obj
 0002:0000cb00       ??_C@_1BG@EGGKJILM@?$AAu?$AAz?$AA?9?$AAu?$AAz?$AA?9?$AAl?$AAa?$AAt?$AAn?$AA?$AA@ 100acb00     libcpmt:winapinls.obj
 0002:0000cb18       ??_C@_1M@GFOCLFF@?$AAv?$AAi?$AA?9?$AAv?$AAn?$AA?$AA@ 100acb18     libcpmt:winapinls.obj
 0002:0000cb24       ??_C@_1M@CPAMEDFI@?$AAx?$AAh?$AA?9?$AAz?$AAa?$AA?$AA@ 100acb24     libcpmt:winapinls.obj
 0002:0000cb30       ??_C@_1O@EBKIFIGN@?$AAz?$AAh?$AA?9?$AAc?$AAh?$AAs?$AA?$AA@ 100acb30     libcpmt:winapinls.obj
 0002:0000cb40       ??_C@_1O@NMHPGANE@?$AAz?$AAh?$AA?9?$AAc?$AAh?$AAt?$AA?$AA@ 100acb40     libcpmt:winapinls.obj
 0002:0000cb50       ??_C@_1M@LPINJOMC@?$AAz?$AAh?$AA?9?$AAc?$AAn?$AA?$AA@ 100acb50     libcpmt:winapinls.obj
 0002:0000cb5c       ??_C@_1M@OCJEJODD@?$AAz?$AAh?$AA?9?$AAh?$AAk?$AA?$AA@ 100acb5c     libcpmt:winapinls.obj
 0002:0000cb68       ??_C@_1M@DNDLJINH@?$AAz?$AAh?$AA?9?$AAm?$AAo?$AA?$AA@ 100acb68     libcpmt:winapinls.obj
 0002:0000cb74       ??_C@_1M@MBFDNDND@?$AAz?$AAh?$AA?9?$AAs?$AAg?$AA?$AA@ 100acb74     libcpmt:winapinls.obj
 0002:0000cb80       ??_C@_1M@IMEPLEPE@?$AAz?$AAh?$AA?9?$AAt?$AAw?$AA?$AA@ 100acb80     libcpmt:winapinls.obj
 0002:0000cb8c       ??_C@_1M@BBGHNHJP@?$AAz?$AAu?$AA?9?$AAz?$AAa?$AA?$AA@ 100acb8c     libcpmt:winapinls.obj
 0002:0000d9d8       ??_C@_15EMKDOKLE@?$AAa?$AAr?$AA?$AA@ 100ad9d8     libcpmt:winapinls.obj
 0002:0000d9e0       ??_C@_15KNPADPLH@?$AAb?$AAg?$AA?$AA@ 100ad9e0     libcpmt:winapinls.obj
 0002:0000d9e8       ??_C@_15EDMHLDMO@?$AAc?$AAa?$AA?$AA@ 100ad9e8     libcpmt:winapinls.obj
 0002:0000d9f0       ??_C@_1O@BPEAJADD@?$AAz?$AAh?$AA?9?$AAC?$AAH?$AAS?$AA?$AA@ 100ad9f0     libcpmt:winapinls.obj
 0002:0000da00       ??_C@_15LJNHCMNK@?$AAc?$AAs?$AA?$AA@ 100ada00     libcpmt:winapinls.obj
 0002:0000da08       ??_C@_15FOMCIDHG@?$AAd?$AAa?$AA?$AA@ 100ada08     libcpmt:winapinls.obj
 0002:0000da10       ??_C@_15NBKABECB@?$AAd?$AAe?$AA?$AA@ 100ada10     libcpmt:winapinls.obj
 0002:0000da18       ??_C@_15GHPEIIAO@?$AAe?$AAl?$AA?$AA@ 100ada18     libcpmt:winapinls.obj
 0002:0000da20       ??_C@_15MNPNEAIF@?$AAe?$AAn?$AA?$AA@ 100ada20     libcpmt:winapinls.obj
 0002:0000da28       ??_C@_15GPIOMPMH@?$AAe?$AAs?$AA?$AA@ 100ada28     libcpmt:winapinls.obj
 0002:0000da30       ??_C@_15NGLOAKJC@?$AAf?$AAi?$AA?$AA@ 100ada30     libcpmt:winapinls.obj
 0002:0000da38       ??_C@_15FBKGNKAM@?$AAf?$AAr?$AA?$AA@ 100ada38     libcpmt:winapinls.obj
 0002:0000da40       ??_C@_15KGGCNEFK@?$AAh?$AAe?$AA?$AA@ 100ada40     libcpmt:winapinls.obj
 0002:0000da48       ??_C@_15PGHLIDMF@?$AAh?$AAu?$AA?$AA@ 100ada48     libcpmt:winapinls.obj
 0002:0000da50       ??_C@_15BIEMAPLM@?$AAi?$AAs?$AA?$AA@ 100ada50     libcpmt:winapinls.obj
 0002:0000da58       ??_C@_15IFJLDHAF@?$AAi?$AAt?$AA?$AA@ 100ada58     libcpmt:winapinls.obj
 0002:0000da60       ??_C@_15GEMIOCAG@?$AAj?$AAa?$AA?$AA@ 100ada60     libcpmt:winapinls.obj
 0002:0000da68       ??_C@_15EPELEGJA@?$AAk?$AAo?$AA?$AA@ 100ada68     libcpmt:winapinls.obj
 0002:0000da70       ??_C@_15NDDHIMN@?$AAn?$AAl?$AA?$AA@ 100ada70     libcpmt:winapinls.obj
 0002:0000da78       ??_C@_15BPIGNHCD@?$AAn?$AAo?$AA?$AA@ 100ada78     libcpmt:winapinls.obj
 0002:0000da80       ??_C@_15DEOPBLCG@?$AAp?$AAl?$AA?$AA@ 100ada80     libcpmt:winapinls.obj
 0002:0000da88       ??_C@_15KBECGEFG@?$AAp?$AAt?$AA?$AA@ 100ada88     libcpmt:winapinls.obj
 0002:0000da90       ??_C@_15GLJCBFMD@?$AAr?$AAo?$AA?$AA@ 100ada90     libcpmt:winapinls.obj
 0002:0000da98       ??_C@_15FEDGKCDI@?$AAr?$AAu?$AA?$AA@ 100ada98     libcpmt:winapinls.obj
 0002:0000daa0       ??_C@_15GLKMLLHM@?$AAh?$AAr?$AA?$AA@ 100adaa0     libcpmt:winapinls.obj
 0002:0000daa8       ??_C@_15CPKMFBDB@?$AAs?$AAk?$AA?$AA@ 100adaa8     libcpmt:winapinls.obj
 0002:0000dab0       ??_C@_15BAAIOGMK@?$AAs?$AAq?$AA?$AA@ 100adab0     libcpmt:winapinls.obj
 0002:0000dab8       ??_C@_15INNPNOHD@?$AAs?$AAv?$AA?$AA@ 100adab8     libcpmt:winapinls.obj
 0002:0000dac0       ??_C@_15CABMMOGH@?$AAt?$AAh?$AA?$AA@ 100adac0     libcpmt:winapinls.obj
 0002:0000dac8       ??_C@_15BPLIHJJM@?$AAt?$AAr?$AA?$AA@ 100adac8     libcpmt:winapinls.obj
 0002:0000dad0       ??_C@_15NEOEKKDJ@?$AAu?$AAr?$AA?$AA@ 100adad0     libcpmt:winapinls.obj
 0002:0000dad8       ??_C@_15NFICGAJK@?$AAi?$AAd?$AA?$AA@ 100adad8     libcpmt:winapinls.obj
 0002:0000dae0       ??_C@_15PJPFLCCM@?$AAu?$AAk?$AA?$AA@ 100adae0     libcpmt:winapinls.obj
 0002:0000dae8       ??_C@_15HPJPHDM@?$AAb?$AAe?$AA?$AA@ 100adae8     libcpmt:winapinls.obj
 0002:0000daf0       ??_C@_15LCHLGJII@?$AAs?$AAl?$AA?$AA@ 100adaf0     libcpmt:winapinls.obj
 0002:0000daf8       ??_C@_15PCFJPHHO@?$AAe?$AAt?$AA?$AA@ 100adaf8     libcpmt:winapinls.obj
 0002:0000db00       ??_C@_15HPFPGODN@?$AAl?$AAv?$AA?$AA@ 100adb00     libcpmt:winapinls.obj
 0002:0000db08       ??_C@_15NFFGKGLG@?$AAl?$AAt?$AA?$AA@ 100adb08     libcpmt:winapinls.obj
 0002:0000db10       ??_C@_15BDAKCCHN@?$AAf?$AAa?$AA?$AA@ 100adb10     libcpmt:winapinls.obj
 0002:0000db18       ??_C@_15NFGIAIAJ@?$AAv?$AAi?$AA?$AA@ 100adb18     libcpmt:winapinls.obj
 0002:0000db20       ??_C@_15LMKNDMHN@?$AAh?$AAy?$AA?$AA@ 100adb20     libcpmt:winapinls.obj
 0002:0000db28       ??_C@_15IJBHMCFL@?$AAa?$AAz?$AA?$AA@ 100adb28     libcpmt:winapinls.obj
 0002:0000db30       ??_C@_15EKOFJABL@?$AAe?$AAu?$AA?$AA@ 100adb30     libcpmt:winapinls.obj
 0002:0000db38       ??_C@_15BGHADCNK@?$AAm?$AAk?$AA?$AA@ 100adb38     libcpmt:winapinls.obj
 0002:0000db40       ??_C@_15JDNICKHM@?$AAa?$AAf?$AA?$AA@ 100adb40     libcpmt:winapinls.obj
 0002:0000db48       ??_C@_15KPJEDBKD@?$AAk?$AAa?$AA?$AA@ 100adb48     libcpmt:winapinls.obj
 0002:0000db50       ??_C@_15PDNFFFEO@?$AAf?$AAo?$AA?$AA@ 100adb50     libcpmt:winapinls.obj
 0002:0000db58       ??_C@_15OMLEGLOC@?$AAh?$AAi?$AA?$AA@ 100adb58     libcpmt:winapinls.obj
 0002:0000db60       ??_C@_15IDNNENKK@?$AAm?$AAs?$AA?$AA@ 100adb60     libcpmt:winapinls.obj
 0002:0000db68       ??_C@_15MACJNBMH@?$AAk?$AAk?$AA?$AA@ 100adb68     libcpmt:winapinls.obj
 0002:0000db70       ??_C@_15DKDJEOND@?$AAk?$AAy?$AA?$AA@ 100adb70     libcpmt:winapinls.obj
 0002:0000db78       ??_C@_15DFGDLJBG@?$AAs?$AAw?$AA?$AA@ 100adb78     libcpmt:winapinls.obj
 0002:0000db80       ??_C@_15BBFAICNG@?$AAu?$AAz?$AA?$AA@ 100adb80     libcpmt:winapinls.obj
 0002:0000db88       ??_C@_15DKNDCGEA@?$AAt?$AAt?$AA?$AA@ 100adb88     libcpmt:winapinls.obj
 0002:0000db90       ??_C@_15MGIFMDPL@?$AAp?$AAa?$AA?$AA@ 100adb90     libcpmt:winapinls.obj
 0002:0000db98       ??_C@_15HCNDBBA@?$AAg?$AAu?$AA?$AA@ 100adb98     libcpmt:winapinls.obj
 0002:0000dba0       ??_C@_15FNBEIBON@?$AAt?$AAa?$AA?$AA@ 100adba0     libcpmt:winapinls.obj
 0002:0000dba8       ??_C@_15NCHGBGLK@?$AAt?$AAe?$AA?$AA@ 100adba8     libcpmt:winapinls.obj
 0002:0000dbb0       ??_C@_15PHPHCBPF@?$AAk?$AAn?$AA?$AA@ 100adbb0     libcpmt:winapinls.obj
 0002:0000dbb8       ??_C@_15DLGBCKMP@?$AAm?$AAr?$AA?$AA@ 100adbb8     libcpmt:winapinls.obj
 0002:0000dbc0       ??_C@_15EABBLBFF@?$AAs?$AAa?$AA?$AA@ 100adbc0     libcpmt:winapinls.obj
 0002:0000dbc8       ??_C@_15CBKOMCOI@?$AAm?$AAn?$AA?$AA@ 100adbc8     libcpmt:winapinls.obj
 0002:0000dbd0       ??_C@_15CKDMCJAF@?$AAg?$AAl?$AA?$AA@ 100adbd0     libcpmt:winapinls.obj
 0002:0000dbd8       ??_C@_17CNJFBPG@?$AAk?$AAo?$AAk?$AA?$AA@ 100adbd8     libcpmt:winapinls.obj
 0002:0000dbe0       ??_C@_17FFBJICPL@?$AAs?$AAy?$AAr?$AA?$AA@ 100adbe0     libcpmt:winapinls.obj
 0002:0000dbe8       ??_C@_17KPNDCPAF@?$AAd?$AAi?$AAv?$AA?$AA@ 100adbe8     libcpmt:winapinls.obj
 0002:0000dbf0       ??_C@_11LOCGONAA@?$AA?$AA@ 100adbf0     libcpmt:winapinls.obj
 0002:0000dbf4       ??_C@_1M@OKAHONE@?$AAa?$AAr?$AA?9?$AAS?$AAA?$AA?$AA@ 100adbf4     libcpmt:winapinls.obj
 0002:0000dc00       ??_C@_1M@FFFIGIGK@?$AAb?$AAg?$AA?9?$AAB?$AAG?$AA?$AA@ 100adc00     libcpmt:winapinls.obj
 0002:0000dc0c       ??_C@_1M@BJNKEDC@?$AAc?$AAa?$AA?9?$AAE?$AAS?$AA?$AA@ 100adc0c     libcpmt:winapinls.obj
 0002:0000dc18       ??_C@_1M@CLNBBOPM@?$AAz?$AAh?$AA?9?$AAT?$AAW?$AA?$AA@ 100adc18     libcpmt:winapinls.obj
 0002:0000dc24       ??_C@_1M@IJJHFJHA@?$AAc?$AAs?$AA?9?$AAC?$AAZ?$AA?$AA@ 100adc24     libcpmt:winapinls.obj
 0002:0000dc30       ??_C@_1M@CLPEOBGI@?$AAd?$AAa?$AA?9?$AAD?$AAK?$AA?$AA@ 100adc30     libcpmt:winapinls.obj
 0002:0000dc3c       ??_C@_1M@MCMADGCB@?$AAd?$AAe?$AA?9?$AAD?$AAE?$AA?$AA@ 100adc3c     libcpmt:winapinls.obj
 0002:0000dc48       ??_C@_1M@OOCKEMAM@?$AAe?$AAl?$AA?9?$AAG?$AAR?$AA?$AA@ 100adc48     libcpmt:winapinls.obj
 0002:0000dc54       ??_C@_1M@BMHNFIME@?$AAe?$AAn?$AA?9?$AAU?$AAS?$AA?$AA@ 100adc54     libcpmt:winapinls.obj
 0002:0000dc60       ??_C@_1M@DDNJFGID@?$AAf?$AAi?$AA?9?$AAF?$AAI?$AA?$AA@ 100adc60     libcpmt:winapinls.obj
 0002:0000dc6c       ??_C@_1M@GLIPPMAC@?$AAf?$AAr?$AA?9?$AAF?$AAR?$AA?$AA@ 100adc6c     libcpmt:winapinls.obj
 0002:0000dc78       ??_C@_1M@GFMCHPE@?$AAh?$AAe?$AA?9?$AAI?$AAL?$AA?$AA@ 100adc78     libcpmt:winapinls.obj
 0002:0000dc84       ??_C@_1M@MHLPGNKM@?$AAh?$AAu?$AA?9?$AAH?$AAU?$AA?$AA@ 100adc84     libcpmt:winapinls.obj
 0002:0000dc90       ??_C@_1M@LPDDNNPN@?$AAi?$AAs?$AA?9?$AAI?$AAS?$AA?$AA@ 100adc90     libcpmt:winapinls.obj
 0002:0000dc9c       ??_C@_1M@MADIPODN@?$AAi?$AAt?$AA?9?$AAI?$AAT?$AA?$AA@ 100adc9c     libcpmt:winapinls.obj
 0002:0000dca8       ??_C@_1M@HPNHIDJI@?$AAj?$AAa?$AA?9?$AAJ?$AAP?$AA?$AA@ 100adca8     libcpmt:winapinls.obj
 0002:0000dcb4       ??_C@_1M@JLOOOEGK@?$AAk?$AAo?$AA?9?$AAK?$AAR?$AA?$AA@ 100adcb4     libcpmt:winapinls.obj
 0002:0000dcc0       ??_C@_1M@IHBJJGG@?$AAn?$AAl?$AA?9?$AAN?$AAL?$AA?$AA@ 100adcc0     libcpmt:winapinls.obj
 0002:0000dccc       ??_C@_1M@EANAGDL@?$AAn?$AAb?$AA?9?$AAN?$AAO?$AA?$AA@ 100adccc     libcpmt:winapinls.obj
 0002:0000dcd8       ??_C@_1M@NEIEMEGP@?$AAp?$AAl?$AA?9?$AAP?$AAL?$AA?$AA@ 100adcd8     libcpmt:winapinls.obj
 0002:0000dce4       ??_C@_1M@BOCFIGEP@?$AAp?$AAt?$AA?9?$AAB?$AAR?$AA?$AA@ 100adce4     libcpmt:winapinls.obj
 0002:0000dcf0       ??_C@_1M@IMPFOPBG@?$AAr?$AAo?$AA?9?$AAR?$AAO?$AA?$AA@ 100adcf0     libcpmt:winapinls.obj
 0002:0000dcfc       ??_C@_1M@IDNNEJMM@?$AAr?$AAu?$AA?9?$AAR?$AAU?$AA?$AA@ 100adcfc     libcpmt:winapinls.obj
 0002:0000dd08       ??_C@_1M@LILEEOGM@?$AAh?$AAr?$AA?9?$AAH?$AAR?$AA?$AA@ 100add08     libcpmt:winapinls.obj
 0002:0000dd14       ??_C@_1M@FKIFEHPB@?$AAs?$AAk?$AA?9?$AAS?$AAK?$AA?$AA@ 100add14     libcpmt:winapinls.obj
 0002:0000dd20       ??_C@_1M@LJMAMNPJ@?$AAs?$AAq?$AA?9?$AAA?$AAL?$AA?$AA@ 100add20     libcpmt:winapinls.obj
 0002:0000dd2c       ??_C@_1M@GIAKDKJK@?$AAs?$AAv?$AA?9?$AAS?$AAE?$AA?$AA@ 100add2c     libcpmt:winapinls.obj
 0002:0000dd38       ??_C@_1M@MKJKIKCL@?$AAt?$AAh?$AA?9?$AAT?$AAH?$AA?$AA@ 100add38     libcpmt:winapinls.obj
 0002:0000dd44       ??_C@_1M@MFLCCMPB@?$AAt?$AAr?$AA?9?$AAT?$AAR?$AA?$AA@ 100add44     libcpmt:winapinls.obj
 0002:0000dd50       ??_C@_1M@OIJHDKJN@?$AAu?$AAr?$AA?9?$AAP?$AAK?$AA?$AA@ 100add50     libcpmt:winapinls.obj
 0002:0000dd5c       ??_C@_1M@LHIPCIEK@?$AAi?$AAd?$AA?9?$AAI?$AAD?$AA?$AA@ 100add5c     libcpmt:winapinls.obj
 0002:0000dd68       ??_C@_1M@MFMOBGI@?$AAu?$AAk?$AA?9?$AAU?$AAA?$AA?$AA@ 100add68     libcpmt:winapinls.obj
 0002:0000dd74       ??_C@_1M@OBGLJIPL@?$AAb?$AAe?$AA?9?$AAB?$AAY?$AA?$AA@ 100add74     libcpmt:winapinls.obj
 0002:0000dd80       ??_C@_1M@BCFAJEAD@?$AAs?$AAl?$AA?9?$AAS?$AAI?$AA?$AA@ 100add80     libcpmt:winapinls.obj
 0002:0000dd8c       ??_C@_1M@FKFFEDDN@?$AAe?$AAt?$AA?9?$AAE?$AAE?$AA?$AA@ 100add8c     libcpmt:winapinls.obj
 0002:0000dd98       ??_C@_1M@KGKKAACI@?$AAl?$AAv?$AA?9?$AAL?$AAV?$AA?$AA@ 100add98     libcpmt:winapinls.obj
 0002:0000dda4       ??_C@_1M@IFGBIJO@?$AAl?$AAt?$AA?9?$AAL?$AAT?$AA?$AA@ 100adda4     libcpmt:winapinls.obj
 0002:0000ddb0       ??_C@_1M@FGEAHEDM@?$AAf?$AAa?$AA?9?$AAI?$AAR?$AA?$AA@ 100addb0     libcpmt:winapinls.obj
 0002:0000ddbc       ??_C@_1M@KBMAIBFN@?$AAv?$AAi?$AA?9?$AAV?$AAN?$AA?$AA@ 100addbc     libcpmt:winapinls.obj
 0002:0000ddc8       ??_C@_1M@GPCBKDJK@?$AAh?$AAy?$AA?9?$AAA?$AAM?$AA?$AA@ 100addc8     libcpmt:winapinls.obj
 0002:0000ddd4       ??_C@_1BG@BECMDDJB@?$AAa?$AAz?$AA?9?$AAA?$AAZ?$AA?9?$AAL?$AAa?$AAt?$AAn?$AA?$AA@ 100addd4     libcpmt:winapinls.obj
 0002:0000ddec       ??_C@_1M@MAOFCAEA@?$AAe?$AAu?$AA?9?$AAE?$AAS?$AA?$AA@ 100addec     libcpmt:winapinls.obj
 0002:0000ddf8       ??_C@_1M@IGHABKPI@?$AAm?$AAk?$AA?9?$AAM?$AAK?$AA?$AA@ 100addf8     libcpmt:winapinls.obj
 0002:0000de04       ??_C@_1M@IAIGNEJG@?$AAt?$AAn?$AA?9?$AAZ?$AAA?$AA?$AA@ 100ade04     libcpmt:winapinls.obj
 0002:0000de10       ??_C@_1M@IIJCOJFA@?$AAx?$AAh?$AA?9?$AAZ?$AAA?$AA?$AA@ 100ade10     libcpmt:winapinls.obj
 0002:0000de1c       ??_C@_1M@LGPJHNJH@?$AAz?$AAu?$AA?9?$AAZ?$AAA?$AA?$AA@ 100ade1c     libcpmt:winapinls.obj
 0002:0000de28       ??_C@_1M@HOKAOIO@?$AAa?$AAf?$AA?9?$AAZ?$AAA?$AA?$AA@ 100ade28     libcpmt:winapinls.obj
 0002:0000de34       ??_C@_1M@DPCLHLIE@?$AAk?$AAa?$AA?9?$AAG?$AAE?$AA?$AA@ 100ade34     libcpmt:winapinls.obj
 0002:0000de40       ??_C@_1M@BLKMHJBI@?$AAf?$AAo?$AA?9?$AAF?$AAO?$AA?$AA@ 100ade40     libcpmt:winapinls.obj
 0002:0000de4c       ??_C@_1M@LGGJAPPB@?$AAh?$AAi?$AA?9?$AAI?$AAN?$AA?$AA@ 100ade4c     libcpmt:winapinls.obj
 0002:0000de58       ??_C@_1M@FIKPIHFE@?$AAm?$AAt?$AA?9?$AAM?$AAT?$AA?$AA@ 100ade58     libcpmt:winapinls.obj
 0002:0000de64       ??_C@_1M@HEGGPBFA@?$AAs?$AAe?$AA?9?$AAN?$AAO?$AA?$AA@ 100ade64     libcpmt:winapinls.obj
 0002:0000de70       ??_C@_1M@EIBJEEPA@?$AAm?$AAs?$AA?9?$AAM?$AAY?$AA?$AA@ 100ade70     libcpmt:winapinls.obj
 0002:0000de7c       ??_C@_1M@FHLBGMPP@?$AAk?$AAk?$AA?9?$AAK?$AAZ?$AA?$AA@ 100ade7c     libcpmt:winapinls.obj
 0002:0000de88       ??_C@_1M@NGJJLCGI@?$AAk?$AAy?$AA?9?$AAK?$AAG?$AA?$AA@ 100ade88     libcpmt:winapinls.obj
 0002:0000de94       ??_C@_1M@GIENNBFC@?$AAs?$AAw?$AA?9?$AAK?$AAE?$AA?$AA@ 100ade94     libcpmt:winapinls.obj
 0002:0000dea0       ??_C@_1BG@NDGMJIMJ@?$AAu?$AAz?$AA?9?$AAU?$AAZ?$AA?9?$AAL?$AAa?$AAt?$AAn?$AA?$AA@ 100adea0     libcpmt:winapinls.obj
 0002:0000deb8       ??_C@_1M@IDCCIHBC@?$AAt?$AAt?$AA?9?$AAR?$AAU?$AA?$AA@ 100adeb8     libcpmt:winapinls.obj
 0002:0000dec4       ??_C@_1M@LOICPMOJ@?$AAb?$AAn?$AA?9?$AAI?$AAN?$AA?$AA@ 100adec4     libcpmt:winapinls.obj
 0002:0000ded0       ??_C@_1M@KPKKNEAH@?$AAp?$AAa?$AA?9?$AAI?$AAN?$AA?$AA@ 100aded0     libcpmt:winapinls.obj
 0002:0000dedc       ??_C@_1M@PJGPPBOG@?$AAg?$AAu?$AA?9?$AAI?$AAN?$AA?$AA@ 100adedc     libcpmt:winapinls.obj
 0002:0000dee8       ??_C@_1M@KMKMOPHI@?$AAt?$AAa?$AA?9?$AAI?$AAN?$AA?$AA@ 100adee8     libcpmt:winapinls.obj
 0002:0000def4       ??_C@_1M@KFEHEPAC@?$AAt?$AAe?$AA?9?$AAI?$AAN?$AA?$AA@ 100adef4     libcpmt:winapinls.obj
 0002:0000df00       ??_C@_1M@CDCLMGHI@?$AAk?$AAn?$AA?9?$AAI?$AAN?$AA?$AA@ 100adf00     libcpmt:winapinls.obj
 0002:0000df0c       ??_C@_1M@MIODLDKF@?$AAm?$AAl?$AA?9?$AAI?$AAN?$AA?$AA@ 100adf0c     libcpmt:winapinls.obj
 0002:0000df18       ??_C@_1M@PBIEACPO@?$AAm?$AAr?$AA?9?$AAI?$AAN?$AA?$AA@ 100adf18     libcpmt:winapinls.obj
 0002:0000df24       ??_C@_1M@NIDEAGPH@?$AAs?$AAa?$AA?9?$AAI?$AAN?$AA?$AA@ 100adf24     libcpmt:winapinls.obj
 0002:0000df30       ??_C@_1M@FHIHCBIO@?$AAm?$AAn?$AA?9?$AAM?$AAN?$AA?$AA@ 100adf30     libcpmt:winapinls.obj
 0002:0000df3c       ??_C@_1M@JAIJPENP@?$AAc?$AAy?$AA?9?$AAG?$AAB?$AA?$AA@ 100adf3c     libcpmt:winapinls.obj
 0002:0000df48       ??_C@_1M@PHGFBEPN@?$AAg?$AAl?$AA?9?$AAE?$AAS?$AA?$AA@ 100adf48     libcpmt:winapinls.obj
 0002:0000df54       ??_C@_1O@KPIPDNCP@?$AAk?$AAo?$AAk?$AA?9?$AAI?$AAN?$AA?$AA@ 100adf54     libcpmt:winapinls.obj
 0002:0000df64       ??_C@_1O@KNHJLDJA@?$AAs?$AAy?$AAr?$AA?9?$AAS?$AAY?$AA?$AA@ 100adf64     libcpmt:winapinls.obj
 0002:0000df74       ??_C@_1O@MKEKBLAH@?$AAd?$AAi?$AAv?$AA?9?$AAM?$AAV?$AA?$AA@ 100adf74     libcpmt:winapinls.obj
 0002:0000df84       ??_C@_1O@OHDCKDDF@?$AAq?$AAu?$AAz?$AA?9?$AAB?$AAO?$AA?$AA@ 100adf84     libcpmt:winapinls.obj
 0002:0000df94       ??_C@_1M@LEPJNLFD@?$AAn?$AAs?$AA?9?$AAZ?$AAA?$AA?$AA@ 100adf94     libcpmt:winapinls.obj
 0002:0000dfa0       ??_C@_1M@OMLEIIJB@?$AAm?$AAi?$AA?9?$AAN?$AAZ?$AA?$AA@ 100adfa0     libcpmt:winapinls.obj
 0002:0000dfac       ??_C@_1M@PMPEAILG@?$AAa?$AAr?$AA?9?$AAI?$AAQ?$AA?$AA@ 100adfac     libcpmt:winapinls.obj
 0002:0000dfb8       ??_C@_1M@BIBDDEMK@?$AAz?$AAh?$AA?9?$AAC?$AAN?$AA?$AA@ 100adfb8     libcpmt:winapinls.obj
 0002:0000dfc4       ??_C@_1M@CNKPNOEE@?$AAd?$AAe?$AA?9?$AAC?$AAH?$AA?$AA@ 100adfc4     libcpmt:winapinls.obj
 0002:0000dfd0       ??_C@_1M@LKMGMLKO@?$AAe?$AAn?$AA?9?$AAG?$AAB?$AA?$AA@ 100adfd0     libcpmt:winapinls.obj
 0002:0000dfdc       ??_C@_1M@PGKJFFGL@?$AAe?$AAs?$AA?9?$AAM?$AAX?$AA?$AA@ 100adfdc     libcpmt:winapinls.obj
 0002:0000dfe8       ??_C@_1M@DNNANBDC@?$AAf?$AAr?$AA?9?$AAB?$AAE?$AA?$AA@ 100adfe8     libcpmt:winapinls.obj
 0002:0000dff4       ??_C@_1M@HLGMDFHM@?$AAi?$AAt?$AA?9?$AAC?$AAH?$AA?$AA@ 100adff4     libcpmt:winapinls.obj
 0002:0000e000       ??_C@_1M@CLLBGJH@?$AAn?$AAl?$AA?9?$AAB?$AAE?$AA?$AA@ 100ae000     libcpmt:winapinls.obj
 0002:0000e00c       ??_C@_1M@BODBOGLF@?$AAn?$AAn?$AA?9?$AAN?$AAO?$AA?$AA@ 100ae00c     libcpmt:winapinls.obj
 0002:0000e018       ??_C@_1M@HFFAHKAD@?$AAp?$AAt?$AA?9?$AAP?$AAT?$AA?$AA@ 100ae018     libcpmt:winapinls.obj
 0002:0000e024       ??_C@_1BG@LNOAKHIE@?$AAs?$AAr?$AA?9?$AAS?$AAP?$AA?9?$AAL?$AAa?$AAt?$AAn?$AA?$AA@ 100ae024     libcpmt:winapinls.obj
 0002:0000e03c       ??_C@_1M@HBMHBGAK@?$AAs?$AAv?$AA?9?$AAF?$AAI?$AA?$AA@ 100ae03c     libcpmt:winapinls.obj
 0002:0000e048       ??_C@_1BG@DGCJGJBE@?$AAa?$AAz?$AA?9?$AAA?$AAZ?$AA?9?$AAC?$AAy?$AAr?$AAl?$AA?$AA@ 100ae048     libcpmt:winapinls.obj
 0002:0000e060       ??_C@_1M@KEJDAAHB@?$AAs?$AAe?$AA?9?$AAS?$AAE?$AA?$AA@ 100ae060     libcpmt:winapinls.obj
 0002:0000e06c       ??_C@_1M@HEIBJJAD@?$AAm?$AAs?$AA?9?$AAB?$AAN?$AA?$AA@ 100ae06c     libcpmt:winapinls.obj
 0002:0000e078       ??_C@_1BG@PBGJMCEM@?$AAu?$AAz?$AA?9?$AAU?$AAZ?$AA?9?$AAC?$AAy?$AAr?$AAl?$AA?$AA@ 100ae078     libcpmt:winapinls.obj
 0002:0000e090       ??_C@_1O@LAOBCMDF@?$AAq?$AAu?$AAz?$AA?9?$AAE?$AAC?$AA?$AA@ 100ae090     libcpmt:winapinls.obj
 0002:0000e0a0       ??_C@_1M@POEEMAIO@?$AAa?$AAr?$AA?9?$AAE?$AAG?$AA?$AA@ 100ae0a0     libcpmt:winapinls.obj
 0002:0000e0ac       ??_C@_1M@EFAKDEDL@?$AAz?$AAh?$AA?9?$AAH?$AAK?$AA?$AA@ 100ae0ac     libcpmt:winapinls.obj
 0002:0000e0b8       ??_C@_1M@HKKIJHGI@?$AAd?$AAe?$AA?9?$AAA?$AAT?$AA?$AA@ 100ae0b8     libcpmt:winapinls.obj
 0002:0000e0c4       ??_C@_1M@KBFBEHJF@?$AAe?$AAn?$AA?9?$AAA?$AAU?$AA?$AA@ 100ae0c4     libcpmt:winapinls.obj
 0002:0000e0d0       ??_C@_1M@MNPLFAAH@?$AAe?$AAs?$AA?9?$AAE?$AAS?$AA?$AA@ 100ae0d0     libcpmt:winapinls.obj
 0002:0000e0dc       ??_C@_1M@HJOOJFMA@?$AAf?$AAr?$AA?9?$AAC?$AAA?$AA?$AA@ 100ae0dc     libcpmt:winapinls.obj
 0002:0000e0e8       ??_C@_1BG@JPOFPNAB@?$AAs?$AAr?$AA?9?$AAS?$AAP?$AA?9?$AAC?$AAy?$AAr?$AAl?$AA?$AA@ 100ae0e8     libcpmt:winapinls.obj
 0002:0000e100       ??_C@_1M@LNFOCMOB@?$AAs?$AAe?$AA?9?$AAF?$AAI?$AA?$AA@ 100ae100     libcpmt:winapinls.obj
 0002:0000e10c       ??_C@_1O@MGJBOAMB@?$AAq?$AAu?$AAz?$AA?9?$AAP?$AAE?$AA?$AA@ 100ae10c     libcpmt:winapinls.obj
 0002:0000e11c       ??_C@_1M@GJINLBOK@?$AAa?$AAr?$AA?9?$AAL?$AAY?$AA?$AA@ 100ae11c     libcpmt:winapinls.obj
 0002:0000e128       ??_C@_1M@GGMNHJNL@?$AAz?$AAh?$AA?9?$AAS?$AAG?$AA?$AA@ 100ae128     libcpmt:winapinls.obj
 0002:0000e134       ??_C@_1M@HOIKODND@?$AAd?$AAe?$AA?9?$AAL?$AAU?$AA?$AA@ 100ae134     libcpmt:winapinls.obj
 0002:0000e140       ??_C@_1M@DDOCCGFG@?$AAe?$AAn?$AA?9?$AAC?$AAA?$AA?$AA@ 100ae140     libcpmt:winapinls.obj
 0002:0000e14c       ??_C@_1M@BNOEMJLF@?$AAe?$AAs?$AA?9?$AAG?$AAT?$AA?$AA@ 100ae14c     libcpmt:winapinls.obj
 0002:0000e158       ??_C@_1M@EOGNKEK@?$AAf?$AAr?$AA?9?$AAC?$AAH?$AA?$AA@ 100ae158     libcpmt:winapinls.obj
 0002:0000e164       ??_C@_1M@FLIDJFHL@?$AAh?$AAr?$AA?9?$AAB?$AAA?$AA?$AA@ 100ae164     libcpmt:winapinls.obj
 0002:0000e170       ??_C@_1O@FMCELNAJ@?$AAs?$AAm?$AAj?$AA?9?$AAN?$AAO?$AA?$AA@ 100ae170     libcpmt:winapinls.obj
 0002:0000e180       ??_C@_1M@JHGLJMGJ@?$AAa?$AAr?$AA?9?$AAD?$AAZ?$AA?$AA@ 100ae180     libcpmt:winapinls.obj
 0002:0000e18c       ??_C@_1M@JKKFDCNP@?$AAz?$AAh?$AA?9?$AAM?$AAO?$AA?$AA@ 100ae18c     libcpmt:winapinls.obj
 0002:0000e198       ??_C@_1M@GEEFALPE@?$AAd?$AAe?$AA?9?$AAL?$AAI?$AA?$AA@ 100ae198     libcpmt:winapinls.obj
 0002:0000e1a4       ??_C@_1M@IGEOFBG@?$AAe?$AAn?$AA?9?$AAN?$AAZ?$AA?$AA@ 100ae1a4     libcpmt:winapinls.obj
 0002:0000e1b0       ??_C@_1M@KDBONEHP@?$AAe?$AAs?$AA?9?$AAC?$AAR?$AA?$AA@ 100ae1b0     libcpmt:winapinls.obj
 0002:0000e1bc       ??_C@_1M@FHMDOHNN@?$AAf?$AAr?$AA?9?$AAL?$AAU?$AA?$AA@ 100ae1bc     libcpmt:winapinls.obj
 0002:0000e1c8       ??_C@_1BG@NFKKMAFG@?$AAb?$AAs?$AA?9?$AAB?$AAA?$AA?9?$AAL?$AAa?$AAt?$AAn?$AA?$AA@ 100ae1c8     libcpmt:winapinls.obj
 0002:0000e1e0       ??_C@_1O@IMNBEMCI@?$AAs?$AAm?$AAj?$AA?9?$AAS?$AAE?$AA?$AA@ 100ae1e0     libcpmt:winapinls.obj
 0002:0000e1f0       ??_C@_1M@DHHMBNDP@?$AAa?$AAr?$AA?9?$AAM?$AAA?$AA?$AA@ 100ae1f0     libcpmt:winapinls.obj
 0002:0000e1fc       ??_C@_1M@BNBLJCGH@?$AAe?$AAn?$AA?9?$AAI?$AAE?$AA?$AA@ 100ae1fc     libcpmt:winapinls.obj
 0002:0000e208       ??_C@_1M@GEPAFMDL@?$AAe?$AAs?$AA?9?$AAP?$AAA?$AA?$AA@ 100ae208     libcpmt:winapinls.obj
 0002:0000e214       ??_C@_1M@OJONDMDL@?$AAf?$AAr?$AA?9?$AAM?$AAC?$AA?$AA@ 100ae214     libcpmt:winapinls.obj
 0002:0000e220       ??_C@_1BG@OBCNFJB@?$AAs?$AAr?$AA?9?$AAB?$AAA?$AA?9?$AAL?$AAa?$AAt?$AAn?$AA?$AA@ 100ae220     libcpmt:winapinls.obj
 0002:0000e238       ??_C@_1O@KEMEEGPO@?$AAs?$AAm?$AAa?$AA?9?$AAN?$AAO?$AA?$AA@ 100ae238     libcpmt:winapinls.obj
 0002:0000e248       ??_C@_1M@ELMGFODK@?$AAa?$AAr?$AA?9?$AAT?$AAN?$AA?$AA@ 100ae248     libcpmt:winapinls.obj
 0002:0000e254       ??_C@_1M@BHDLHFAF@?$AAe?$AAn?$AA?9?$AAZ?$AAA?$AA?$AA@ 100ae254     libcpmt:winapinls.obj
 0002:0000e260       ??_C@_1M@BMGIGLIF@?$AAe?$AAs?$AA?9?$AAD?$AAO?$AA?$AA@ 100ae260     libcpmt:winapinls.obj
 0002:0000e26c       ??_C@_1BG@CMBHIPBE@?$AAs?$AAr?$AA?9?$AAB?$AAA?$AA?9?$AAC?$AAy?$AAr?$AAl?$AA?$AA@ 100ae26c     libcpmt:winapinls.obj
 0002:0000e284       ??_C@_1O@HEDBLHNP@?$AAs?$AAm?$AAa?$AA?9?$AAS?$AAE?$AA?$AA@ 100ae284     libcpmt:winapinls.obj
 0002:0000e294       ??_C@_1M@DAGCADIM@?$AAa?$AAr?$AA?9?$AAO?$AAM?$AA?$AA@ 100ae294     libcpmt:winapinls.obj
 0002:0000e2a0       ??_C@_1M@FODLMICG@?$AAe?$AAn?$AA?9?$AAJ?$AAM?$AA?$AA@ 100ae2a0     libcpmt:winapinls.obj
 0002:0000e2ac       ??_C@_1M@DNMLCIHB@?$AAe?$AAs?$AA?9?$AAV?$AAE?$AA?$AA@ 100ae2ac     libcpmt:winapinls.obj
 0002:0000e2b8       ??_C@_1O@EOKHMKJK@?$AAs?$AAm?$AAs?$AA?9?$AAF?$AAI?$AA?$AA@ 100ae2b8     libcpmt:winapinls.obj
 0002:0000e2c8       ??_C@_1M@CAFJMKOF@?$AAa?$AAr?$AA?9?$AAY?$AAE?$AA?$AA@ 100ae2c8     libcpmt:winapinls.obj
 0002:0000e2d4       ??_C@_1M@CBFHIJLI@?$AAe?$AAn?$AA?9?$AAC?$AAB?$AA?$AA@ 100ae2d4     libcpmt:winapinls.obj
 0002:0000e2e0       ??_C@_1M@BGNFLDN@?$AAe?$AAs?$AA?9?$AAC?$AAO?$AA?$AA@ 100ae2e0     libcpmt:winapinls.obj
 0002:0000e2ec       ??_C@_1O@JMPHMAMC@?$AAs?$AAm?$AAn?$AA?9?$AAF?$AAI?$AA?$AA@ 100ae2ec     libcpmt:winapinls.obj
 0002:0000e2fc       ??_C@_1M@JLANABKE@?$AAa?$AAr?$AA?9?$AAS?$AAY?$AA?$AA@ 100ae2fc     libcpmt:winapinls.obj
 0002:0000e308       ??_C@_1M@HPKGCFGN@?$AAe?$AAn?$AA?9?$AAB?$AAZ?$AA?$AA@ 100ae308     libcpmt:winapinls.obj
 0002:0000e314       ??_C@_1M@OLJCMLGM@?$AAe?$AAs?$AA?9?$AAP?$AAE?$AA?$AA@ 100ae314     libcpmt:winapinls.obj
 0002:0000e320       ??_C@_1M@MKKGFKLE@?$AAa?$AAr?$AA?9?$AAJ?$AAO?$AA?$AA@ 100ae320     libcpmt:winapinls.obj
 0002:0000e32c       ??_C@_1M@EKPGLDNI@?$AAe?$AAn?$AA?9?$AAT?$AAT?$AA?$AA@ 100ae32c     libcpmt:winapinls.obj
 0002:0000e338       ??_C@_1M@OONGHFHE@?$AAe?$AAs?$AA?9?$AAA?$AAR?$AA?$AA@ 100ae338     libcpmt:winapinls.obj
 0002:0000e344       ??_C@_1M@OOJFGBHE@?$AAa?$AAr?$AA?9?$AAL?$AAB?$AA?$AA@ 100ae344     libcpmt:winapinls.obj
 0002:0000e350       ??_C@_1M@GCEJHNEG@?$AAe?$AAn?$AA?9?$AAZ?$AAW?$AA?$AA@ 100ae350     libcpmt:winapinls.obj
 0002:0000e35c       ??_C@_1M@JNOCAHJI@?$AAe?$AAs?$AA?9?$AAE?$AAC?$AA?$AA@ 100ae35c     libcpmt:winapinls.obj
 0002:0000e368       ??_C@_1M@JEFHPGGB@?$AAa?$AAr?$AA?9?$AAK?$AAW?$AA?$AA@ 100ae368     libcpmt:winapinls.obj
 0002:0000e374       ??_C@_1M@MLKIBJOJ@?$AAe?$AAn?$AA?9?$AAP?$AAH?$AA?$AA@ 100ae374     libcpmt:winapinls.obj
 0002:0000e380       ??_C@_1M@BDNIPEND@?$AAe?$AAs?$AA?9?$AAC?$AAL?$AA?$AA@ 100ae380     libcpmt:winapinls.obj
 0002:0000e38c       ??_C@_1M@MPNMEKBD@?$AAa?$AAr?$AA?9?$AAA?$AAE?$AA?$AA@ 100ae38c     libcpmt:winapinls.obj
 0002:0000e398       ??_C@_1M@KBJALCPI@?$AAe?$AAs?$AA?9?$AAU?$AAY?$AA?$AA@ 100ae398     libcpmt:winapinls.obj
 0002:0000e3a4       ??_C@_1M@LLCCOAGA@?$AAa?$AAr?$AA?9?$AAB?$AAH?$AA?$AA@ 100ae3a4     libcpmt:winapinls.obj
 0002:0000e3b0       ??_C@_1M@PBFNCDEL@?$AAe?$AAs?$AA?9?$AAP?$AAY?$AA?$AA@ 100ae3b0     libcpmt:winapinls.obj
 0002:0000e3bc       ??_C@_1M@EDGINPNP@?$AAa?$AAr?$AA?9?$AAQ?$AAA?$AA?$AA@ 100ae3bc     libcpmt:winapinls.obj
 0002:0000e3c8       ??_C@_1M@MKDBIIJI@?$AAe?$AAs?$AA?9?$AAB?$AAO?$AA?$AA@ 100ae3c8     libcpmt:winapinls.obj
 0002:0000e3d4       ??_C@_1M@CPKKEBLD@?$AAe?$AAs?$AA?9?$AAS?$AAV?$AA?$AA@ 100ae3d4     libcpmt:winapinls.obj
 0002:0000e3e0       ??_C@_1M@NDBGMMJL@?$AAe?$AAs?$AA?9?$AAH?$AAN?$AA?$AA@ 100ae3e0     libcpmt:winapinls.obj
 0002:0000e3ec       ??_C@_1M@JIJIBHDP@?$AAe?$AAs?$AA?9?$AAN?$AAI?$AA?$AA@ 100ae3ec     libcpmt:winapinls.obj
 0002:0000e3f8       ??_C@_1M@CGFMKEEK@?$AAe?$AAs?$AA?9?$AAP?$AAR?$AA?$AA@ 100ae3f8     libcpmt:winapinls.obj
 0002:0000e404       ??_C@_1O@ICJHKIIK@?$AAz?$AAh?$AA?9?$AAC?$AAH?$AAT?$AA?$AA@ 100ae404     libcpmt:winapinls.obj
 0002:0000e414       ??_C@_15CLNEJCE@?$AAs?$AAr?$AA?$AA@ 100ae414     libcpmt:winapinls.obj
 0002:0000e41c       ??_C@_1M@KAHEKEIG@?$AAa?$AAf?$AA?9?$AAz?$AAa?$AA?$AA@ 100ae41c     libcpmt:winapinls.obj
 0002:0000e428       ??_C@_1M@GIECOABL@?$AAa?$AAr?$AA?9?$AAa?$AAe?$AA?$AA@ 100ae428     libcpmt:winapinls.obj
 0002:0000e434       ??_C@_1M@BMLMEKGI@?$AAa?$AAr?$AA?9?$AAb?$AAh?$AA?$AA@ 100ae434     libcpmt:winapinls.obj
 0002:0000e440       ??_C@_1M@DAPFDGGB@?$AAa?$AAr?$AA?9?$AAd?$AAz?$AA?$AA@ 100ae440     libcpmt:winapinls.obj
 0002:0000e44c       ??_C@_1M@FJNKGKIG@?$AAa?$AAr?$AA?9?$AAe?$AAg?$AA?$AA@ 100ae44c     libcpmt:winapinls.obj
 0002:0000e458       ??_C@_1M@FLGKKCLO@?$AAa?$AAr?$AA?9?$AAi?$AAq?$AA?$AA@ 100ae458     libcpmt:winapinls.obj
 0002:0000e464       ??_C@_1M@GNDIPALM@?$AAa?$AAr?$AA?9?$AAj?$AAo?$AA?$AA@ 100ae464     libcpmt:winapinls.obj
 0002:0000e470       ??_C@_1M@DDMJFMGJ@?$AAa?$AAr?$AA?9?$AAk?$AAw?$AA?$AA@ 100ae470     libcpmt:winapinls.obj
 0002:0000e47c       ??_C@_1M@EJALMLHM@?$AAa?$AAr?$AA?9?$AAl?$AAb?$AA?$AA@ 100ae47c     libcpmt:winapinls.obj
 0002:0000e488       ??_C@_1M@MOBDBLOC@?$AAa?$AAr?$AA?9?$AAl?$AAy?$AA?$AA@ 100ae488     libcpmt:winapinls.obj
 0002:0000e494       ??_C@_1M@JAOCLHDH@?$AAa?$AAr?$AA?9?$AAm?$AAa?$AA?$AA@ 100ae494     libcpmt:winapinls.obj
 0002:0000e4a0       ??_C@_1M@JHPMKJIE@?$AAa?$AAr?$AA?9?$AAo?$AAm?$AA?$AA@ 100ae4a0     libcpmt:winapinls.obj
 0002:0000e4ac       ??_C@_1M@OEPGHFNH@?$AAa?$AAr?$AA?9?$AAq?$AAa?$AA?$AA@ 100ae4ac     libcpmt:winapinls.obj
 0002:0000e4b8       ??_C@_1M@KJDONENM@?$AAa?$AAr?$AA?9?$AAs?$AAa?$AA?$AA@ 100ae4b8     libcpmt:winapinls.obj
 0002:0000e4c4       ??_C@_1M@DMJDKLKM@?$AAa?$AAr?$AA?9?$AAs?$AAy?$AA?$AA@ 100ae4c4     libcpmt:winapinls.obj
 0002:0000e4d0       ??_C@_1M@OMFIPEDC@?$AAa?$AAr?$AA?9?$AAt?$AAn?$AA?$AA@ 100ae4d0     libcpmt:winapinls.obj
 0002:0000e4dc       ??_C@_1M@IHMHGAON@?$AAa?$AAr?$AA?9?$AAy?$AAe?$AA?$AA@ 100ae4dc     libcpmt:winapinls.obj
 0002:0000e4e8       ??_C@_1BG@KDCPGJGB@?$AAa?$AAz?$AA?9?$AAa?$AAz?$AA?9?$AAc?$AAy?$AAr?$AAl?$AA?$AA@ 100ae4e8     libcpmt:winapinls.obj
 0002:0000e500       ??_C@_1BG@IBCKDDOE@?$AAa?$AAz?$AA?9?$AAa?$AAz?$AA?9?$AAl?$AAa?$AAt?$AAn?$AA?$AA@ 100ae500     libcpmt:winapinls.obj
 0002:0000e518       ??_C@_1M@EGPFDCPD@?$AAb?$AAe?$AA?9?$AAb?$AAy?$AA?$AA@ 100ae518     libcpmt:winapinls.obj
 0002:0000e524       ??_C@_1M@PCMGMCGC@?$AAb?$AAg?$AA?9?$AAb?$AAg?$AA?$AA@ 100ae524     libcpmt:winapinls.obj
 0002:0000e530       ??_C@_1M@BJBMFGOB@?$AAb?$AAn?$AA?9?$AAi?$AAn?$AA?$AA@ 100ae530     libcpmt:winapinls.obj
 0002:0000e53c       ??_C@_1BG@EAKMMACD@?$AAb?$AAs?$AA?9?$AAb?$AAa?$AA?9?$AAl?$AAa?$AAt?$AAn?$AA?$AA@ 100ae53c     libcpmt:winapinls.obj
 0002:0000e554       ??_C@_1M@KGADAODK@?$AAc?$AAa?$AA?9?$AAe?$AAs?$AA?$AA@ 100ae554     libcpmt:winapinls.obj
 0002:0000e560       ??_C@_1M@COAJPDHI@?$AAc?$AAs?$AA?9?$AAc?$AAz?$AA?$AA@ 100ae560     libcpmt:winapinls.obj
 0002:0000e56c       ??_C@_1M@DHBHFONH@?$AAc?$AAy?$AA?9?$AAg?$AAb?$AA?$AA@ 100ae56c     libcpmt:winapinls.obj
 0002:0000e578       ??_C@_1M@IMGKELGA@?$AAd?$AAa?$AA?9?$AAd?$AAk?$AA?$AA@ 100ae578     libcpmt:winapinls.obj
 0002:0000e584       ??_C@_1M@NNDGDNGA@?$AAd?$AAe?$AA?9?$AAa?$AAt?$AA?$AA@ 100ae584     libcpmt:winapinls.obj
 0002:0000e590       ??_C@_1M@IKDBHEEM@?$AAd?$AAe?$AA?9?$AAc?$AAh?$AA?$AA@ 100ae590     libcpmt:winapinls.obj
 0002:0000e59c       ??_C@_1M@GFFOJMCJ@?$AAd?$AAe?$AA?9?$AAd?$AAe?$AA?$AA@ 100ae59c     libcpmt:winapinls.obj
 0002:0000e5a8       ??_C@_1M@MDNLKBPM@?$AAd?$AAe?$AA?9?$AAl?$AAi?$AA?$AA@ 100ae5a8     libcpmt:winapinls.obj
 0002:0000e5b4       ??_C@_1M@NJBEEJNL@?$AAd?$AAe?$AA?9?$AAl?$AAu?$AA?$AA@ 100ae5b4     libcpmt:winapinls.obj
 0002:0000e5c0       ??_C@_1O@GNNELBAP@?$AAd?$AAi?$AAv?$AA?9?$AAm?$AAv?$AA?$AA@ 100ae5c0     libcpmt:winapinls.obj
 0002:0000e5d0       ??_C@_1M@EJLEOGAE@?$AAe?$AAl?$AA?9?$AAg?$AAr?$AA?$AA@ 100ae5d0     libcpmt:winapinls.obj
 0002:0000e5dc       ??_C@_1M@GMPONJN@?$AAe?$AAn?$AA?9?$AAa?$AAu?$AA?$AA@ 100ae5dc     libcpmt:winapinls.obj
 0002:0000e5e8       ??_C@_1M@NIDIIPGF@?$AAe?$AAn?$AA?9?$AAb?$AAz?$AA?$AA@ 100ae5e8     libcpmt:winapinls.obj
 0002:0000e5f4       ??_C@_1M@JEHMIMFO@?$AAe?$AAn?$AA?9?$AAc?$AAa?$AA?$AA@ 100ae5f4     libcpmt:winapinls.obj
 0002:0000e600       ??_C@_1M@IGMJCDLA@?$AAe?$AAn?$AA?9?$AAc?$AAb?$AA?$AA@ 100ae600     libcpmt:winapinls.obj
 0002:0000e60c       ??_C@_1M@BNFIGBKG@?$AAe?$AAn?$AA?9?$AAg?$AAb?$AA?$AA@ 100ae60c     libcpmt:winapinls.obj
 0002:0000e618       ??_C@_1M@LKIFDIGP@?$AAe?$AAn?$AA?9?$AAi?$AAe?$AA?$AA@ 100ae618     libcpmt:winapinls.obj
 0002:0000e624       ??_C@_1M@PJKFGCCO@?$AAe?$AAn?$AA?9?$AAj?$AAm?$AA?$AA@ 100ae624     libcpmt:winapinls.obj
 0002:0000e630       ??_C@_1M@KPPKEPBO@?$AAe?$AAn?$AA?9?$AAn?$AAz?$AA?$AA@ 100ae630     libcpmt:winapinls.obj
 0002:0000e63c       ??_C@_1M@GMDGLDOB@?$AAe?$AAn?$AA?9?$AAp?$AAh?$AA?$AA@ 100ae63c     libcpmt:winapinls.obj
 0002:0000e648       ??_C@_1M@ONGIBJNA@?$AAe?$AAn?$AA?9?$AAt?$AAt?$AA?$AA@ 100ae648     libcpmt:winapinls.obj
 0002:0000e654       ??_C@_1M@LLODPCMM@?$AAe?$AAn?$AA?9?$AAu?$AAs?$AA?$AA@ 100ae654     libcpmt:winapinls.obj
 0002:0000e660       ??_C@_1M@LAKFNPAN@?$AAe?$AAn?$AA?9?$AAz?$AAa?$AA?$AA@ 100ae660     libcpmt:winapinls.obj
 0002:0000e66c       ??_C@_1M@MFNHNHEO@?$AAe?$AAn?$AA?9?$AAz?$AAw?$AA?$AA@ 100ae66c     libcpmt:winapinls.obj
 0002:0000e678       ??_C@_1M@EJEINPHM@?$AAe?$AAs?$AA?9?$AAa?$AAr?$AA?$AA@ 100ae678     libcpmt:winapinls.obj
 0002:0000e684       ??_C@_1M@GNKPCCJA@?$AAe?$AAs?$AA?9?$AAb?$AAo?$AA?$AA@ 100ae684     libcpmt:winapinls.obj
 0002:0000e690       ??_C@_1M@LEEGFONL@?$AAe?$AAs?$AA?9?$AAc?$AAl?$AA?$AA@ 100ae690     libcpmt:winapinls.obj
 0002:0000e69c       ??_C@_1M@KGPDPBDF@?$AAe?$AAs?$AA?9?$AAc?$AAo?$AA?$AA@ 100ae69c     libcpmt:winapinls.obj
 0002:0000e6a8       ??_C@_1M@EIAHOHH@?$AAe?$AAs?$AA?9?$AAc?$AAr?$AA?$AA@ 100ae6a8     libcpmt:winapinls.obj
 0002:0000e6b4       ??_C@_1M@LLPGMBIN@?$AAe?$AAs?$AA?9?$AAd?$AAo?$AA?$AA@ 100ae6b4     libcpmt:winapinls.obj
 0002:0000e6c0       ??_C@_1M@DKHMKNJA@?$AAe?$AAs?$AA?9?$AAe?$AAc?$AA?$AA@ 100ae6c0     libcpmt:winapinls.obj
 0002:0000e6cc       ??_C@_1M@GKGFPKAP@?$AAe?$AAs?$AA?9?$AAe?$AAs?$AA?$AA@ 100ae6cc     libcpmt:winapinls.obj
 0002:0000e6d8       ??_C@_1M@LKHKGDLN@?$AAe?$AAs?$AA?9?$AAg?$AAt?$AA?$AA@ 100ae6d8     libcpmt:winapinls.obj
 0002:0000e6e4       ??_C@_1M@HEIIGGJD@?$AAe?$AAs?$AA?9?$AAh?$AAn?$AA?$AA@ 100ae6e4     libcpmt:winapinls.obj
 0002:0000e6f0       ??_C@_1M@FBDHPPGD@?$AAe?$AAs?$AA?9?$AAm?$AAx?$AA?$AA@ 100ae6f0     libcpmt:winapinls.obj
 0002:0000e6fc       ??_C@_1M@DPAGLNDH@?$AAe?$AAs?$AA?9?$AAn?$AAi?$AA?$AA@ 100ae6fc     libcpmt:winapinls.obj
 0002:0000e708       ??_C@_1M@MDGOPGDD@?$AAe?$AAs?$AA?9?$AAp?$AAa?$AA?$AA@ 100ae708     libcpmt:winapinls.obj
 0002:0000e714       ??_C@_1M@EMAMGBGE@?$AAe?$AAs?$AA?9?$AAp?$AAe?$AA?$AA@ 100ae714     libcpmt:winapinls.obj
 0002:0000e720       ??_C@_1M@IBMCAOEC@?$AAe?$AAs?$AA?9?$AAp?$AAr?$AA?$AA@ 100ae720     libcpmt:winapinls.obj
 0002:0000e72c       ??_C@_1M@FGMDIJED@?$AAe?$AAs?$AA?9?$AAp?$AAy?$AA?$AA@ 100ae72c     libcpmt:winapinls.obj
 0002:0000e738       ??_C@_1M@IIDEOLLL@?$AAe?$AAs?$AA?9?$AAs?$AAv?$AA?$AA@ 100ae738     libcpmt:winapinls.obj
 0002:0000e744       ??_C@_1M@GAOBIPA@?$AAe?$AAs?$AA?9?$AAu?$AAy?$AA?$AA@ 100ae744     libcpmt:winapinls.obj
 0002:0000e750       ??_C@_1M@JKFFICHJ@?$AAe?$AAs?$AA?9?$AAv?$AAe?$AA?$AA@ 100ae750     libcpmt:winapinls.obj
 0002:0000e75c       ??_C@_1M@PNMLOJDF@?$AAe?$AAt?$AA?9?$AAe?$AAe?$AA?$AA@ 100ae75c     libcpmt:winapinls.obj
 0002:0000e768       ??_C@_1M@GHHLIKEI@?$AAe?$AAu?$AA?9?$AAe?$AAs?$AA?$AA@ 100ae768     libcpmt:winapinls.obj
 0002:0000e774       ??_C@_1M@PBNONODE@?$AAf?$AAa?$AA?9?$AAi?$AAr?$AA?$AA@ 100ae774     libcpmt:winapinls.obj
 0002:0000e780       ??_C@_1M@JEEHPMIL@?$AAf?$AAi?$AA?9?$AAf?$AAi?$AA?$AA@ 100ae780     libcpmt:winapinls.obj
 0002:0000e78c       ??_C@_1M@LMDCNDBA@?$AAf?$AAo?$AA?9?$AAf?$AAo?$AA?$AA@ 100ae78c     libcpmt:winapinls.obj
 0002:0000e798       ??_C@_1M@JKEOHLDK@?$AAf?$AAr?$AA?9?$AAb?$AAe?$AA?$AA@ 100ae798     libcpmt:winapinls.obj
 0002:0000e7a4       ??_C@_1M@NOHADPMI@?$AAf?$AAr?$AA?9?$AAc?$AAa?$AA?$AA@ 100ae7a4     libcpmt:winapinls.obj
 0002:0000e7b0       ??_C@_1M@KDHIHAEC@?$AAf?$AAr?$AA?9?$AAc?$AAh?$AA?$AA@ 100ae7b0     libcpmt:winapinls.obj
 0002:0000e7bc       ??_C@_1M@MMBBFGAK@?$AAf?$AAr?$AA?9?$AAf?$AAr?$AA?$AA@ 100ae7bc     libcpmt:winapinls.obj
 0002:0000e7c8       ??_C@_1M@PAFNENNF@?$AAf?$AAr?$AA?9?$AAl?$AAu?$AA?$AA@ 100ae7c8     libcpmt:winapinls.obj
 0002:0000e7d4       ??_C@_1M@EOHDJGDD@?$AAf?$AAr?$AA?9?$AAm?$AAc?$AA?$AA@ 100ae7d4     libcpmt:winapinls.obj
 0002:0000e7e0       ??_C@_1M@FAPLLOPF@?$AAg?$AAl?$AA?9?$AAe?$AAs?$AA?$AA@ 100ae7e0     libcpmt:winapinls.obj
 0002:0000e7ec       ??_C@_1M@FOPBFLOO@?$AAg?$AAu?$AA?9?$AAi?$AAn?$AA?$AA@ 100ae7ec     libcpmt:winapinls.obj
 0002:0000e7f8       ??_C@_1M@KBMCINPM@?$AAh?$AAe?$AA?9?$AAi?$AAl?$AA?$AA@ 100ae7f8     libcpmt:winapinls.obj
 0002:0000e804       ??_C@_1M@BBPHKFPJ@?$AAh?$AAi?$AA?9?$AAi?$AAn?$AA?$AA@ 100ae804     libcpmt:winapinls.obj
 0002:0000e810       ??_C@_1M@PMBNDPHD@?$AAh?$AAr?$AA?9?$AAb?$AAa?$AA?$AA@ 100ae810     libcpmt:winapinls.obj
 0002:0000e81c       ??_C@_1M@BPCKOEGE@?$AAh?$AAr?$AA?9?$AAh?$AAr?$AA?$AA@ 100ae81c     libcpmt:winapinls.obj
 0002:0000e828       ??_C@_1M@GACBMHKE@?$AAh?$AAu?$AA?9?$AAh?$AAu?$AA?$AA@ 100ae828     libcpmt:winapinls.obj
 0002:0000e834       ??_C@_1M@MILPAJJC@?$AAh?$AAy?$AA?9?$AAa?$AAm?$AA?$AA@ 100ae834     libcpmt:winapinls.obj
 0002:0000e840       ??_C@_1M@BABBICEC@?$AAi?$AAd?$AA?9?$AAi?$AAd?$AA?$AA@ 100ae840     libcpmt:winapinls.obj
 0002:0000e84c       ??_C@_1M@BIKNHHPF@?$AAi?$AAs?$AA?9?$AAi?$AAs?$AA?$AA@ 100ae84c     libcpmt:winapinls.obj
 0002:0000e858       ??_C@_1M@NMPCJPHE@?$AAi?$AAt?$AA?9?$AAc?$AAh?$AA?$AA@ 100ae858     libcpmt:winapinls.obj
 0002:0000e864       ??_C@_1M@GHKGFEDF@?$AAi?$AAt?$AA?9?$AAi?$AAt?$AA?$AA@ 100ae864     libcpmt:winapinls.obj
 0002:0000e870       ??_C@_1M@NIEJCJJA@?$AAj?$AAa?$AA?9?$AAj?$AAp?$AA?$AA@ 100ae870     libcpmt:winapinls.obj
 0002:0000e87c       ??_C@_1M@JILFNBIM@?$AAk?$AAa?$AA?9?$AAg?$AAe?$AA?$AA@ 100ae87c     libcpmt:winapinls.obj
 0002:0000e888       ??_C@_1M@PACPMGPH@?$AAk?$AAk?$AA?9?$AAk?$AAz?$AA?$AA@ 100ae888     libcpmt:winapinls.obj
 0002:0000e894       ??_C@_1M@IELFGMHA@?$AAk?$AAn?$AA?9?$AAi?$AAn?$AA?$AA@ 100ae894     libcpmt:winapinls.obj
 0002:0000e8a0       ??_C@_1M@DMHAEOGC@?$AAk?$AAo?$AA?9?$AAk?$AAr?$AA?$AA@ 100ae8a0     libcpmt:winapinls.obj
 0002:0000e8ac       ??_C@_1O@IBBJHCH@?$AAk?$AAo?$AAk?$AA?9?$AAi?$AAn?$AA?$AA@ 100ae8ac     libcpmt:winapinls.obj
 0002:0000e8bc       ??_C@_1M@HBAHBIGA@?$AAk?$AAy?$AA?9?$AAk?$AAg?$AA?$AA@ 100ae8bc     libcpmt:winapinls.obj
 0002:0000e8c8       ??_C@_1M@KPMILCJG@?$AAl?$AAt?$AA?9?$AAl?$AAt?$AA?$AA@ 100ae8c8     libcpmt:winapinls.obj
 0002:0000e8d4       ??_C@_1M@BDEKKCA@?$AAl?$AAv?$AA?9?$AAl?$AAv?$AA?$AA@ 100ae8d4     libcpmt:winapinls.obj
 0002:0000e8e0       ??_C@_1M@ELCKCCJJ@?$AAm?$AAi?$AA?9?$AAn?$AAz?$AA?$AA@ 100ae8e0     libcpmt:winapinls.obj
 0002:0000e8ec       ??_C@_1M@CBOOLAPA@?$AAm?$AAk?$AA?9?$AAm?$AAk?$AA?$AA@ 100ae8ec     libcpmt:winapinls.obj
 0002:0000e8f8       ??_C@_1M@GPHNBJKN@?$AAm?$AAl?$AA?9?$AAi?$AAn?$AA?$AA@ 100ae8f8     libcpmt:winapinls.obj
 0002:0000e904       ??_C@_1M@PABJILIG@?$AAm?$AAn?$AA?9?$AAm?$AAn?$AA?$AA@ 100ae904     libcpmt:winapinls.obj
 0002:0000e910       ??_C@_1M@FGBKKIPG@?$AAm?$AAr?$AA?9?$AAi?$AAn?$AA?$AA@ 100ae910     libcpmt:winapinls.obj
 0002:0000e91c       ??_C@_1M@NDBPDDAL@?$AAm?$AAs?$AA?9?$AAb?$AAn?$AA?$AA@ 100ae91c     libcpmt:winapinls.obj
 0002:0000e928       ??_C@_1M@OPIHOOPI@?$AAm?$AAs?$AA?9?$AAm?$AAy?$AA?$AA@ 100ae928     libcpmt:winapinls.obj
 0002:0000e934       ??_C@_1M@PPDBCNFM@?$AAm?$AAt?$AA?9?$AAm?$AAt?$AA?$AA@ 100ae934     libcpmt:winapinls.obj
 0002:0000e940       ??_C@_1M@KDJDKMDD@?$AAn?$AAb?$AA?9?$AAn?$AAo?$AA?$AA@ 100ae940     libcpmt:winapinls.obj
 0002:0000e94c       ??_C@_1M@KFCFLMJP@?$AAn?$AAl?$AA?9?$AAb?$AAe?$AA?$AA@ 100ae94c     libcpmt:winapinls.obj
 0002:0000e958       ??_C@_1M@KPOPDDGO@?$AAn?$AAl?$AA?9?$AAn?$AAl?$AA?$AA@ 100ae958     libcpmt:winapinls.obj
 0002:0000e964       ??_C@_1M@LJKPEMLN@?$AAn?$AAn?$AA?9?$AAn?$AAo?$AA?$AA@ 100ae964     libcpmt:winapinls.obj
 0002:0000e970       ??_C@_1M@BDGHHBFL@?$AAn?$AAs?$AA?9?$AAz?$AAa?$AA?$AA@ 100ae970     libcpmt:winapinls.obj
 0002:0000e97c       ??_C@_1M@IDEHOAP@?$AAp?$AAa?$AA?9?$AAi?$AAn?$AA?$AA@ 100ae97c     libcpmt:winapinls.obj
 0002:0000e988       ??_C@_1M@HDBKGOGH@?$AAp?$AAl?$AA?9?$AAp?$AAl?$AA?$AA@ 100ae988     libcpmt:winapinls.obj
 0002:0000e994       ??_C@_1M@LJLLCMEH@?$AAp?$AAt?$AA?9?$AAb?$AAr?$AA?$AA@ 100ae994     libcpmt:winapinls.obj
 0002:0000e9a0       ??_C@_1M@NCMONAAL@?$AAp?$AAt?$AA?9?$AAp?$AAt?$AA?$AA@ 100ae9a0     libcpmt:winapinls.obj
 0002:0000e9ac       ??_C@_1O@EAKMAJDN@?$AAq?$AAu?$AAz?$AA?9?$AAb?$AAo?$AA?$AA@ 100ae9ac     libcpmt:winapinls.obj
 0002:0000e9bc       ??_C@_1O@BHHPIGDN@?$AAq?$AAu?$AAz?$AA?9?$AAe?$AAc?$AA?$AA@ 100ae9bc     libcpmt:winapinls.obj
 0002:0000e9cc       ??_C@_1O@GBAPEKMJ@?$AAq?$AAu?$AAz?$AA?9?$AAp?$AAe?$AA?$AA@ 100ae9cc     libcpmt:winapinls.obj
 0002:0000e9dc       ??_C@_1M@CLGLEFBO@?$AAr?$AAo?$AA?9?$AAr?$AAo?$AA?$AA@ 100ae9dc     libcpmt:winapinls.obj
 0002:0000e9e8       ??_C@_1M@CEEDODME@?$AAr?$AAu?$AA?9?$AAr?$AAu?$AA?$AA@ 100ae9e8     libcpmt:winapinls.obj
 0002:0000e9f4       ??_C@_1M@HPKKKMPP@?$AAs?$AAa?$AA?9?$AAi?$AAn?$AA?$AA@ 100ae9f4     libcpmt:winapinls.obj
 0002:0000ea00       ??_C@_1M@BKMAIGOJ@?$AAs?$AAe?$AA?9?$AAf?$AAi?$AA?$AA@ 100aea00     libcpmt:winapinls.obj
 0002:0000ea0c       ??_C@_1M@NDPIFLFI@?$AAs?$AAe?$AA?9?$AAn?$AAo?$AA?$AA@ 100aea0c     libcpmt:winapinls.obj
 0002:0000ea18       ??_C@_1M@DANKKHJ@?$AAs?$AAe?$AA?9?$AAs?$AAe?$AA?$AA@ 100aea18     libcpmt:winapinls.obj
 0002:0000ea24       ??_C@_1M@PNBLONPJ@?$AAs?$AAk?$AA?9?$AAs?$AAk?$AA?$AA@ 100aea24     libcpmt:winapinls.obj
 0002:0000ea30       ??_C@_1M@LFMODOAL@?$AAs?$AAl?$AA?9?$AAs?$AAi?$AA?$AA@ 100aea30     libcpmt:winapinls.obj
 0002:0000ea3c       ??_C@_1O@DFKOMPG@?$AAs?$AAm?$AAa?$AA?9?$AAn?$AAo?$AA?$AA@ 100aea3c     libcpmt:winapinls.obj
 0002:0000ea4c       ??_C@_1O@NDKPBNNH@?$AAs?$AAm?$AAa?$AA?9?$AAs?$AAe?$AA?$AA@ 100aea4c     libcpmt:winapinls.obj
 0002:0000ea5c       ??_C@_1O@PLLKBHAB@?$AAs?$AAm?$AAj?$AA?9?$AAn?$AAo?$AA?$AA@ 100aea5c     libcpmt:winapinls.obj
 0002:0000ea6c       ??_C@_1O@CLEPOGCA@?$AAs?$AAm?$AAj?$AA?9?$AAs?$AAe?$AA?$AA@ 100aea6c     libcpmt:winapinls.obj
 0002:0000ea7c       ??_C@_1O@DLGJGKMK@?$AAs?$AAm?$AAn?$AA?9?$AAf?$AAi?$AA?$AA@ 100aea7c     libcpmt:winapinls.obj
 0002:0000ea8c       ??_C@_1O@OJDJGAJC@?$AAs?$AAm?$AAs?$AA?9?$AAf?$AAi?$AA?$AA@ 100aea8c     libcpmt:winapinls.obj
 0002:0000eb5c       __pDestructExceptionObject 100aeb5c     libvcruntime:ehhelpers.obj
 0002:0000eb6c       ??_C@_1DM@KHCHBNEB@?$AAa?$AAp?$AAi?$AA?9?$AAm?$AAs?$AA?9?$AAw?$AAi?$AAn?$AA?9?$AAc?$AAo?$AAr?$AAe?$AA?9?$AAf?$AAi?$AAb?$AAe?$AAr?$AAs?$AA?9?$AAl?$AA1?$AA?9?$AA1?$AA?9?$AA1?$AA?$AA@ 100aeb6c     libvcruntime:winapi_downlevel.obj
 0002:0000eba8       ??_C@_1DK@LPPGFMPP@?$AAa?$AAp?$AAi?$AA?9?$AAm?$AAs?$AA?9?$AAw?$AAi?$AAn?$AA?9?$AAc?$AAo?$AAr?$AAe?$AA?9?$AAs?$AAy?$AAn?$AAc?$AAh?$AA?9?$AAl?$AA1?$AA?9?$AA2?$AA?9?$AA0?$AA?$AA@ 100aeba8     libvcruntime:winapi_downlevel.obj
 0002:0000ebe4       ??_C@_1BC@GDMECMAK@?$AAk?$AAe?$AAr?$AAn?$AAe?$AAl?$AA3?$AA2?$AA?$AA@ 100aebe4     libvcruntime:winapi_downlevel.obj
 0002:0000ebf8       ??_C@_1BA@PFFKHIOG@?$AAa?$AAp?$AAi?$AA?9?$AAm?$AAs?$AA?9?$AA?$AA@ 100aebf8     libvcruntime:winapi_downlevel.obj
 0002:0000ec08       ??_C@_1BA@IAIFMGEF@?$AAe?$AAx?$AAt?$AA?9?$AAm?$AAs?$AA?9?$AA?$AA@ 100aec08     libvcruntime:winapi_downlevel.obj
 0002:0000ec44       ??_7bad_exception@std@@6B@ 100aec44     libvcruntime:frame.obj
 0002:0000ec4c       ??_C@_0O@DPKOEFFH@bad?5exception?$AA@ 100aec4c     libvcruntime:frame.obj
 0002:0000edf4       ??_C@_08EHJDFFNH@__based?$CI?$AA@ 100aedf4     libvcruntime:undname.obj
 0002:0000ee00       ??_C@_07KOLFKCDI@__cdecl?$AA@ 100aee00     libvcruntime:undname.obj
 0002:0000ee08       ??_C@_08GHMPAG@__pascal?$AA@ 100aee08     libvcruntime:undname.obj
 0002:0000ee14       ??_C@_09IFJBGAPI@__stdcall?$AA@ 100aee14     libvcruntime:undname.obj
 0002:0000ee20       ??_C@_0L@NPHFGOKO@__thiscall?$AA@ 100aee20     libvcruntime:undname.obj
 0002:0000ee2c       ??_C@_0L@JMKHOMEK@__fastcall?$AA@ 100aee2c     libvcruntime:undname.obj
 0002:0000ee38       ??_C@_0N@BCKKPABJ@__vectorcall?$AA@ 100aee38     libvcruntime:undname.obj
 0002:0000ee48       ??_C@_09HIJEGCPM@__clrcall?$AA@ 100aee48     libvcruntime:undname.obj
 0002:0000ee54       ??_C@_06GHPCKEAG@__eabi?$AA@ 100aee54     libvcruntime:undname.obj
 0002:0000ee5c       ??_C@_07JOMMBBKO@__ptr64?$AA@ 100aee5c     libvcruntime:undname.obj
 0002:0000ee64       ??_C@_0L@PILCLIHE@__restrict?$AA@ 100aee64     libvcruntime:undname.obj
 0002:0000ee70       ??_C@_0M@GFIIJFMG@__unaligned?$AA@ 100aee70     libvcruntime:undname.obj
 0002:0000ee7c       ??_C@_09DHDLOLLB@restrict?$CI?$AA@ 100aee7c     libvcruntime:undname.obj
 0002:0000ee88       ??_C@_04NIHEBCM@?5new?$AA@ 100aee88     libvcruntime:undname.obj
 0002:0000ee90       ??_C@_07FPCDHGMM@?5delete?$AA@ 100aee90     libvcruntime:undname.obj
 0002:0000ee98       ??_C@_01NEMOKFLO@?$DN?$AA@ 100aee98     libvcruntime:undname.obj
 0002:0000ee9c       ??_C@_02GPIOPFAK@?$DO?$DO?$AA@ 100aee9c     libvcruntime:undname.obj
 0002:0000eea0       ??_C@_02FODMEDOG@?$DM?$DM?$AA@ 100aeea0     libvcruntime:undname.obj
 0002:0000eea4       ??_C@_01DCLJPIOD@?$CB?$AA@ 100aeea4     libvcruntime:undname.obj
 0002:0000eea8       ??_C@_02EGOFBIJA@?$DN?$DN?$AA@ 100aeea8     libvcruntime:undname.obj
 0002:0000eeac       ??_C@_02FDNJECIE@?$CB?$DN?$AA@ 100aeeac     libvcruntime:undname.obj
 0002:0000eeb0       ??_C@_02GPECMEKF@?$FL?$FN?$AA@ 100aeeb0     libvcruntime:undname.obj
 0002:0000eeb4       ??_C@_08LHJFAFGD@operator?$AA@ 100aeeb4     libvcruntime:undname.obj
 0002:0000eec0       ??_C@_02HBOOOICD@?9?$DO?$AA@ 100aeec0     libvcruntime:undname.obj
 0002:0000eec4       ??_C@_02ECNGHCIF@?$CL?$CL?$AA@ 100aeec4     libvcruntime:undname.obj
 0002:0000eec8       ??_C@_02BAABKJLB@?9?9?$AA@ 100aeec8     libvcruntime:undname.obj
 0002:0000eecc       ??_C@_01HNPIGOCE@?$CG?$AA@ 100aeecc     libvcruntime:undname.obj
 0002:0000eed0       ??_C@_03MNHNFDLC@?9?$DO?$CK?$AA@ 100aeed0     libvcruntime:undname.obj
 0002:0000eed4       ??_C@_01KMDKNFGN@?1?$AA@   100aeed4     libvcruntime:undname.obj
 0002:0000eed8       ??_C@_01FGNFDNOH@?$CF?$AA@ 100aeed8     libvcruntime:undname.obj
 0002:0000eedc       ??_C@_01MNNFJEPP@?$DM?$AA@ 100aeedc     libvcruntime:undname.obj
 0002:0000eee0       ??_C@_02EHCHHCKH@?$DM?$DN?$AA@ 100aeee0     libvcruntime:undname.obj
 0002:0000eee4       ??_C@_02EEKDKGMJ@?$DO?$DN?$AA@ 100aeee4     libvcruntime:undname.obj
 0002:0000eee8       ??_C@_01IHBHIGKO@?0?$AA@   100aeee8     libvcruntime:undname.obj
 0002:0000eeec       ??_C@_02HCKGKOFO@?$CI?$CJ?$AA@ 100aeeec     libvcruntime:undname.obj
 0002:0000eef0       ??_C@_01PJKLJHI@?$HO?$AA@  100aeef0     libvcruntime:undname.obj
 0002:0000eef4       ??_C@_01JKBOJNNK@?$FO?$AA@ 100aeef4     libvcruntime:undname.obj
 0002:0000eef8       ??_C@_02PPKAJPJL@?$CG?$CG?$AA@ 100aeef8     libvcruntime:undname.obj
 0002:0000eefc       ??_C@_02NONPIBCD@?$HM?$HM?$AA@ 100aeefc     libvcruntime:undname.obj
 0002:0000ef00       ??_C@_02FPIMKNGF@?$CK?$DN?$AA@ 100aef00     libvcruntime:undname.obj
 0002:0000ef04       ??_C@_02FOEOMHFC@?$CL?$DN?$AA@ 100aef04     libvcruntime:undname.obj
 0002:0000ef08       ??_C@_02FKMDLLOA@?9?$DN?$AA@ 100aef08     libvcruntime:undname.obj
 0002:0000ef0c       ??_C@_02FJEHGPIO@?1?$DN?$AA@ 100aef0c     libvcruntime:undname.obj
 0002:0000ef10       ??_C@_02FENAOKFI@?$CF?$DN?$AA@ 100aef10     libvcruntime:undname.obj
 0002:0000ef14       ??_C@_03IKFCCPFF@?$DO?$DO?$DN?$AA@ 100aef14     libvcruntime:undname.obj
 0002:0000ef18       ??_C@_03CDNPDDLA@?$DM?$DM?$DN?$AA@ 100aef18     libvcruntime:undname.obj
 0002:0000ef1c       ??_C@_02FGJGFEAB@?$CG?$DN?$AA@ 100aef1c     libvcruntime:undname.obj
 0002:0000ef20       ??_C@_02DHLNPPGH@?$HM?$DN?$AA@ 100aef20     libvcruntime:undname.obj
 0002:0000ef24       ??_C@_02MHEGNOJ@?$FO?$DN?$AA@ 100aef24     libvcruntime:undname.obj
 0002:0000ef28       ??_C@_09IFPLHPGF@?$GAvftable?8?$AA@ 100aef28     libvcruntime:undname.obj
 0002:0000ef34       ??_C@_09BLBHBJP@?$GAvbtable?8?$AA@ 100aef34     libvcruntime:undname.obj
 0002:0000ef40       ??_C@_07FEEIOKP@?$GAvcall?8?$AA@ 100aef40     libvcruntime:undname.obj
 0002:0000ef48       ??_C@_08LLFFHHDJ@?$GAtypeof?8?$AA@ 100aef48     libvcruntime:undname.obj
 0002:0000ef54       ??_C@_0BF@KDPPACIK@?$GAlocal?5static?5guard?8?$AA@ 100aef54     libvcruntime:undname.obj
 0002:0000ef6c       ??_C@_08OBABFOLI@?$GAstring?8?$AA@ 100aef6c     libvcruntime:undname.obj
 0002:0000ef78       ??_C@_0BD@JDLKDPAB@?$GAvbase?5destructor?8?$AA@ 100aef78     libvcruntime:undname.obj
 0002:0000ef8c       ??_C@_0BN@DEGPLNFK@?$GAvector?5deleting?5destructor?8?$AA@ 100aef8c     libvcruntime:undname.obj
 0002:0000efac       ??_C@_0BO@OBMKPJIG@?$GAdefault?5constructor?5closure?8?$AA@ 100aefac     libvcruntime:undname.obj
 0002:0000efcc       ??_C@_0BN@IMDCHIKM@?$GAscalar?5deleting?5destructor?8?$AA@ 100aefcc     libvcruntime:undname.obj
 0002:0000efec       ??_C@_0BO@PFGOCPJJ@?$GAvector?5constructor?5iterator?8?$AA@ 100aefec     libvcruntime:undname.obj
 0002:0000f00c       ??_C@_0BN@LFPFMEDL@?$GAvector?5destructor?5iterator?8?$AA@ 100af00c     libvcruntime:undname.obj
 0002:0000f02c       ??_C@_0CE@IKBNEHA@?$GAvector?5vbase?5constructor?5iterat@ 100af02c     libvcruntime:undname.obj
 0002:0000f050       ??_C@_0BL@NILFHHPC@?$GAvirtual?5displacement?5map?8?$AA@ 100af050     libvcruntime:undname.obj
 0002:0000f06c       ??_C@_0CB@JONCMFFK@?$GAeh?5vector?5constructor?5iterator?8@ 100af06c     libvcruntime:undname.obj
 0002:0000f090       ??_C@_0CA@GCEOPDGL@?$GAeh?5vector?5destructor?5iterator?8?$AA@ 100af090     libvcruntime:undname.obj
 0002:0000f0b0       ??_C@_0CH@OOJPLCPH@?$GAeh?5vector?5vbase?5constructor?5ite@ 100af0b0     libvcruntime:undname.obj
 0002:0000f0d8       ??_C@_0BL@LLKPOHJI@?$GAcopy?5constructor?5closure?8?$AA@ 100af0d8     libvcruntime:undname.obj
 0002:0000f0f4       ??_C@_0BA@KBCDOMBN@?$GAudt?5returning?8?$AA@ 100af0f4     libvcruntime:undname.obj
 0002:0000f104       ??_C@_03KLGMFNMG@?$GAEH?$AA@ 100af104     libvcruntime:undname.obj
 0002:0000f108       ??_C@_05KHLCHHI@?$GARTTI?$AA@ 100af108     libvcruntime:undname.obj
 0002:0000f110       ??_C@_0BA@KKLDJDLB@?$GAlocal?5vftable?8?$AA@ 100af110     libvcruntime:undname.obj
 0002:0000f120       ??_C@_0CE@IIHCMGGL@?$GAlocal?5vftable?5constructor?5closu@ 100af120     libvcruntime:undname.obj
 0002:0000f144       ??_C@_06FHBGPFGH@?5new?$FL?$FN?$AA@ 100af144     libvcruntime:undname.obj
 0002:0000f14c       ??_C@_09LBNFPBCA@?5delete?$FL?$FN?$AA@ 100af14c     libvcruntime:undname.obj
 0002:0000f158       ??_C@_0P@HJKNJFNN@?$GAomni?5callsig?8?$AA@ 100af158     libvcruntime:undname.obj
 0002:0000f168       ??_C@_0BL@CNOONJFP@?$GAplacement?5delete?5closure?8?$AA@ 100af168     libvcruntime:undname.obj
 0002:0000f184       ??_C@_0BN@CKNJLHMB@?$GAplacement?5delete?$FL?$FN?5closure?8?$AA@ 100af184     libvcruntime:undname.obj
 0002:0000f1a4       ??_C@_0CG@CFDHKGGD@?$GAmanaged?5vector?5constructor?5iter@ 100af1a4     libvcruntime:undname.obj
 0002:0000f1cc       ??_C@_0CF@IMGKMJNO@?$GAmanaged?5vector?5destructor?5itera@ 100af1cc     libvcruntime:undname.obj
 0002:0000f1f4       ??_C@_0CG@HLDDJMAG@?$GAeh?5vector?5copy?5constructor?5iter@ 100af1f4     libvcruntime:undname.obj
 0002:0000f21c       ??_C@_0CM@FCBBDIGB@?$GAeh?5vector?5vbase?5copy?5constructo@ 100af21c     libvcruntime:undname.obj
 0002:0000f248       ??_C@_0BL@CLIPGLGB@?$GAdynamic?5initializer?5for?5?8?$AA@ 100af248     libvcruntime:undname.obj
 0002:0000f264       ??_C@_0CB@PDBIFEP@?$GAdynamic?5atexit?5destructor?5for?5?8@ 100af264     libvcruntime:undname.obj
 0002:0000f288       ??_C@_0CD@CGAJBKEJ@?$GAvector?5copy?5constructor?5iterato@ 100af288     libvcruntime:undname.obj
 0002:0000f2ac       ??_C@_0CJ@GJELGAMM@?$GAvector?5vbase?5copy?5constructor?5i@ 100af2ac     libvcruntime:undname.obj
 0002:0000f2d8       ??_C@_0CL@FGIJHLCE@?$GAmanaged?5vector?5copy?5constructor@ 100af2d8     libvcruntime:undname.obj
 0002:0000f304       ??_C@_0BM@PMGGMLDN@?$GAlocal?5static?5thread?5guard?8?$AA@ 100af304     libvcruntime:undname.obj
 0002:0000f320       ??_C@_0N@BDNMDMOL@operator?5?$CC?$CC?5?$AA@ 100af320     libvcruntime:undname.obj
 0002:0000f330       ??_C@_0BC@GGEBGALA@operator?5co_await?$AA@ 100af330     libvcruntime:undname.obj
 0002:0000f344       ??_C@_0BC@DAFEJGAK@?5Type?5Descriptor?8?$AA@ 100af344     libvcruntime:undname.obj
 0002:0000f358       ??_C@_0BM@LDKODKLH@?5Base?5Class?5Descriptor?5at?5?$CI?$AA@ 100af358     libvcruntime:undname.obj
 0002:0000f374       ??_C@_0BD@LGICGFMM@?5Base?5Class?5Array?8?$AA@ 100af374     libvcruntime:undname.obj
 0002:0000f388       ??_C@_0BN@MECKDCOJ@?5Class?5Hierarchy?5Descriptor?8?$AA@ 100af388     libvcruntime:undname.obj
 0002:0000f3a8       ??_C@_0BK@CFCOFLF@?5Complete?5Object?5Locator?8?$AA@ 100af3a8     libvcruntime:undname.obj
 0002:0000f3c8       ?large_power_data@?1??multiply_by_power_of_ten@__crt_strtox@@YA_NAAUbig_integer@2@I@Z@4QBIB 100af3c8     libucrt:input.obj
 0002:0000fcd0       ?large_power_indices@?1??multiply_by_power_of_ten@__crt_strtox@@YA_NAAUbig_integer@2@I@Z@4QBUunpack_index@?1??12@YA_N0I@Z@B 100afcd0     libucrt:input.obj
 0002:0000fd68       ?small_powers_of_ten@?1??multiply_by_power_of_ten@__crt_strtox@@YA_NAAUbig_integer@2@I@Z@4QBIB 100afd68     libucrt:input.obj
 0002:0000fd90       ??_C@_1GE@DPGDJKLM@?$AAm?$AAi?$AAn?$AAk?$AAe?$AAr?$AAn?$AAe?$AAl?$AA?2?$AAc?$AAr?$AAt?$AAs?$AA?2?$AAu?$AAc?$AAr?$AAt?$AA?2?$AAi?$AAn?$AAc?$AA?2?$AAc?$AAo?$AAr?$AAe?$AAc?$AAr?$AAt?$AA_@ 100afd90     libucrt:input.obj
 0002:0000fdf8       ??_C@_1FM@FELNCOBF@?$AA_?$AA_?$AAc?$AAr?$AAt?$AA_?$AAs?$AAt?$AAr?$AAt?$AAo?$AAx?$AA?3?$AA?3?$AAf?$AAl?$AAo?$AAa?$AAt?$AAi?$AAn?$AAg?$AA_?$AAp?$AAo?$AAi?$AAn?$AAt?$AA_?$AAv?$AAa?$AAl@ 100afdf8     libucrt:input.obj
 0002:0000fe54       ??_C@_1BG@GEMHBGAF@?$AA_?$AAi?$AAs?$AA_?$AAd?$AAo?$AAu?$AAb?$AAl?$AAe?$AA?$AA@ 100afe54     libucrt:input.obj
 0002:0000fe70       ??_C@_1FK@JOJELFFO@?$AA_?$AA_?$AAc?$AAr?$AAt?$AA_?$AAs?$AAt?$AAr?$AAt?$AAo?$AAx?$AA?3?$AA?3?$AAf?$AAl?$AAo?$AAa?$AAt?$AAi?$AAn?$AAg?$AA_?$AAp?$AAo?$AAi?$AAn?$AAt?$AA_?$AAv?$AAa?$AAl@ 100afe70     libucrt:input.obj
 0002:0000fecc       ??_C@_1BI@BANMPGJI@?$AA?$CB?$AA_?$AAi?$AAs?$AA_?$AAd?$AAo?$AAu?$AAb?$AAl?$AAe?$AA?$AA@ 100afecc     libucrt:input.obj
 0002:0000fee8       ?constraints@?1??is_length_valid@__crt_stdio_input@@YA_NW4conversion_mode@2@W4length_modifier@2@@Z@4QAY0M@$$CBEA 100afee8     libucrt:input.obj
 0002:0000ff60       ?inf_uppercase@?1???$parse_floating_point_possible_infinity@DV?$input_adapter_character_source@V?$string_input_adapter@D@__crt_stdio_input@@@__crt_strtox@@_K@__crt_strtox@@YA?AW4floating_point_parse_result@1@AADAAV?$input_adapter_character_source@V?$string_input_adapter@D@__crt_stdio_input@@@1@_K@Z@4QBDB 100aff60     libucrt:input.obj
 0002:0000ff64       ?inf_lowercase@?1???$parse_floating_point_possible_infinity@DV?$input_adapter_character_source@V?$string_input_adapter@D@__crt_stdio_input@@@__crt_strtox@@_K@__crt_strtox@@YA?AW4floating_point_parse_result@1@AADAAV?$input_adapter_character_source@V?$string_input_adapter@D@__crt_stdio_input@@@1@_K@Z@4QBDB 100aff64     libucrt:input.obj
 0002:0000ff68       ?inity_uppercase@?1???$parse_floating_point_possible_infinity@DV?$input_adapter_character_source@V?$string_input_adapter@D@__crt_stdio_input@@@__crt_strtox@@_K@__crt_strtox@@YA?AW4floating_point_parse_result@1@AADAAV?$input_adapter_character_source@V?$string_input_adapter@D@__crt_stdio_input@@@1@_K@Z@4QBDB 100aff68     libucrt:input.obj
 0002:0000ff70       ?inity_lowercase@?1???$parse_floating_point_possible_infinity@DV?$input_adapter_character_source@V?$string_input_adapter@D@__crt_stdio_input@@@__crt_strtox@@_K@__crt_strtox@@YA?AW4floating_point_parse_result@1@AADAAV?$input_adapter_character_source@V?$string_input_adapter@D@__crt_stdio_input@@@1@_K@Z@4QBDB 100aff70     libucrt:input.obj
 0002:0000ff78       ?uppercase@?1???$parse_floating_point_possible_nan@DV?$input_adapter_character_source@V?$string_input_adapter@D@__crt_stdio_input@@@__crt_strtox@@_K@__crt_strtox@@YA?AW4floating_point_parse_result@1@AADAAV?$input_adapter_character_source@V?$string_input_adapter@D@__crt_stdio_input@@@1@_K@Z@4QBDB 100aff78     libucrt:input.obj
 0002:0000ff7c       ?lowercase@?1???$parse_floating_point_possible_nan@DV?$input_adapter_character_source@V?$string_input_adapter@D@__crt_stdio_input@@@__crt_strtox@@_K@__crt_strtox@@YA?AW4floating_point_parse_result@1@AADAAV?$input_adapter_character_source@V?$string_input_adapter@D@__crt_stdio_input@@@1@_K@Z@4QBDB 100aff7c     libucrt:input.obj
 0002:0000ff80       ?uppercase@?1???$parse_floating_point_possible_nan_is_snan@DV?$input_adapter_character_source@V?$string_input_adapter@D@__crt_stdio_input@@@__crt_strtox@@@__crt_strtox@@YA_NAADAAV?$input_adapter_character_source@V?$string_input_adapter@D@__crt_stdio_input@@@1@@Z@4QBDB 100aff80     libucrt:input.obj
 0002:0000ff88       ?lowercase@?1???$parse_floating_point_possible_nan_is_snan@DV?$input_adapter_character_source@V?$string_input_adapter@D@__crt_stdio_input@@@__crt_strtox@@@__crt_strtox@@YA_NAADAAV?$input_adapter_character_source@V?$string_input_adapter@D@__crt_stdio_input@@@1@@Z@4QBDB 100aff88     libucrt:input.obj
 0002:0000ff90       ?uppercase@?1???$parse_floating_point_possible_nan_is_ind@DV?$input_adapter_character_source@V?$string_input_adapter@D@__crt_stdio_input@@@__crt_strtox@@@__crt_strtox@@YA_NAADAAV?$input_adapter_character_source@V?$string_input_adapter@D@__crt_stdio_input@@@1@@Z@4QBDB 100aff90     libucrt:input.obj
 0002:0000ff94       ?lowercase@?1???$parse_floating_point_possible_nan_is_ind@DV?$input_adapter_character_source@V?$string_input_adapter@D@__crt_stdio_input@@@__crt_strtox@@@__crt_strtox@@YA_NAADAAV?$input_adapter_character_source@V?$string_input_adapter@D@__crt_stdio_input@@@1@@Z@4QBDB 100aff94     libucrt:input.obj
 0002:00010060       _standard_lookup_table     100b0060     libucrt:output.obj
 0002:000100c0       _format_validation_lookup_table 100b00c0     libucrt:output.obj
 0002:0001011c       ??_C@_1O@CEDCILHN@?$AA?$CI?$AAn?$AAu?$AAl?$AAl?$AA?$CJ?$AA?$AA@ 100b011c     libucrt:output.obj
 0002:0001012c       ??_C@_06OJHGLDPL@?$CInull?$CJ?$AA@ 100b012c     libucrt:output.obj
 0002:00010134       ?inf_uppercase@?1???$parse_floating_point_possible_infinity@DV?$c_string_character_source@D@__crt_strtox@@PBD@__crt_strtox@@YA?AW4floating_point_parse_result@1@AADAAV?$c_string_character_source@D@1@PBD@Z@4QBDB 100b0134     libucrt:atof.obj
 0002:00010138       ?inf_lowercase@?1???$parse_floating_point_possible_infinity@DV?$c_string_character_source@D@__crt_strtox@@PBD@__crt_strtox@@YA?AW4floating_point_parse_result@1@AADAAV?$c_string_character_source@D@1@PBD@Z@4QBDB 100b0138     libucrt:atof.obj
 0002:0001013c       ?inity_uppercase@?1???$parse_floating_point_possible_infinity@DV?$c_string_character_source@D@__crt_strtox@@PBD@__crt_strtox@@YA?AW4floating_point_parse_result@1@AADAAV?$c_string_character_source@D@1@PBD@Z@4QBDB 100b013c     libucrt:atof.obj
 0002:00010144       ?inity_lowercase@?1???$parse_floating_point_possible_infinity@DV?$c_string_character_source@D@__crt_strtox@@PBD@__crt_strtox@@YA?AW4floating_point_parse_result@1@AADAAV?$c_string_character_source@D@1@PBD@Z@4QBDB 100b0144     libucrt:atof.obj
 0002:0001014c       ?uppercase@?1???$parse_floating_point_possible_nan@DV?$c_string_character_source@D@__crt_strtox@@PBD@__crt_strtox@@YA?AW4floating_point_parse_result@1@AADAAV?$c_string_character_source@D@1@PBD@Z@4QBDB 100b014c     libucrt:atof.obj
 0002:00010150       ?lowercase@?1???$parse_floating_point_possible_nan@DV?$c_string_character_source@D@__crt_strtox@@PBD@__crt_strtox@@YA?AW4floating_point_parse_result@1@AADAAV?$c_string_character_source@D@1@PBD@Z@4QBDB 100b0150     libucrt:atof.obj
 0002:00010154       ?uppercase@?1???$parse_floating_point_possible_nan_is_snan@DV?$c_string_character_source@D@__crt_strtox@@@__crt_strtox@@YA_NAADAAV?$c_string_character_source@D@1@@Z@4QBDB 100b0154     libucrt:atof.obj
 0002:0001015c       ?lowercase@?1???$parse_floating_point_possible_nan_is_snan@DV?$c_string_character_source@D@__crt_strtox@@@__crt_strtox@@YA_NAADAAV?$c_string_character_source@D@1@@Z@4QBDB 100b015c     libucrt:atof.obj
 0002:00010164       ?uppercase@?1???$parse_floating_point_possible_nan_is_ind@DV?$c_string_character_source@D@__crt_strtox@@@__crt_strtox@@YA_NAADAAV?$c_string_character_source@D@1@@Z@4QBDB 100b0164     libucrt:atof.obj
 0002:00010168       ?lowercase@?1???$parse_floating_point_possible_nan_is_ind@DV?$c_string_character_source@D@__crt_strtox@@@__crt_strtox@@YA_NAADAAV?$c_string_character_source@D@1@@Z@4QBDB 100b0168     libucrt:atof.obj
 0002:000105d0       __OP_FMODjmptab            100b05d0     libucrt:87fmod_impl.obj
 0002:00010620       __real@3e54ae0bf85ddf44    100b0620     libucrt:log2d.obj
 0002:00010628       __real@3e5526e50e32a6ab    100b0628     libucrt:log2d.obj
 0002:00010630       __real@3e7427de7fbcc47c    100b0630     libucrt:log2d.obj
 0002:00010638       __real@3e7f7d1cf79abc9e    100b0638     libucrt:log2d.obj
 0002:00010640       __real@3fc2f8d8bf29def7    100b0640     libucrt:log2d.obj
 0002:00010648       __real@3fc3991accfeb3f4    100b0648     libucrt:log2d.obj
 0002:00010650       __real@3fc7466fd968cb62    100b0650     libucrt:log2d.obj
 0002:00010658       __real@3fcc71c4da12c9c6    100b0658     libucrt:log2d.obj
 0002:00010660       __real@3fd24924948ae94a    100b0660     libucrt:log2d.obj
 0002:00010668       __real@3fd3441300000000    100b0668     libucrt:log2d.obj
 0002:00010670       __real@3fd9999999975ff7    100b0670     libucrt:log2d.obj
 0002:00010678       __real@3fdbcb7b00000000    100b0678     libucrt:log2d.obj
 0002:00010680       __real@3fdbcb7b1526e50e    100b0680     libucrt:log2d.obj
 0002:00010688       __real@3fe55555555555bc    100b0688     libucrt:log2d.obj
 0002:00010690       __real@3fe62e42c0000000    100b0690     libucrt:log2d.obj
 0002:00010698       __real@3fe6a09e667f3bcd    100b0698     libucrt:log2d.obj
 0002:000106a0       __real@3ff7154760000000    100b06a0     libucrt:log2d.obj
 0002:000106a8       __real@3ff71547652b82fe    100b06a8     libucrt:log2d.obj
 0002:00010a08       ___acrt_exception_action_table 100b0a08     libucrt:exception_filter.obj
 0002:00010a98       ___acrt_signal_action_table_count 100b0a98     libucrt:exception_filter.obj
 0002:00010a9c       ___acrt_signal_action_first_fpe_index 100b0a9c     libucrt:exception_filter.obj
 0002:00010aa0       ___acrt_signal_action_fpe_count 100b0aa0     libucrt:exception_filter.obj
 0002:00010aa4       ??_C@_1BI@BGOHAHKC@?$AAm?$AAs?$AAc?$AAo?$AAr?$AAe?$AAe?$AA?4?$AAd?$AAl?$AAl?$AA?$AA@ 100b0aa4     libucrt:exit.obj
 0002:00010abc       ??_C@_0P@MIGLKIOC@CorExitProcess?$AA@ 100b0abc     libucrt:exit.obj
 0002:00010c38       ??_C@_03KHJOGHMM@exp?$AA@  100b0c38     libucrt:fpexcept.obj
 0002:00010c3c       ??_C@_03JGHBODFD@pow?$AA@  100b0c3c     libucrt:fpexcept.obj
 0002:00010c40       ??_C@_03MGHMBJCF@log?$AA@  100b0c40     libucrt:fpexcept.obj
 0002:00010c44       ??_C@_05HGHHAHAP@log10?$AA@ 100b0c44     libucrt:fpexcept.obj
 0002:00010c4c       ??_C@_04COOMCNPB@sinh?$AA@ 100b0c4c     libucrt:fpexcept.obj
 0002:00010c54       ??_C@_04HPJJNFIM@cosh?$AA@ 100b0c54     libucrt:fpexcept.obj
 0002:00010c5c       ??_C@_04FJHINJAO@tanh?$AA@ 100b0c5c     libucrt:fpexcept.obj
 0002:00010c64       ??_C@_04FIHNOPOL@asin?$AA@ 100b0c64     libucrt:fpexcept.obj
 0002:00010c6c       ??_C@_04PDIFKINK@acos?$AA@ 100b0c6c     libucrt:fpexcept.obj
 0002:00010c74       ??_C@_04MLLJIGOK@atan?$AA@ 100b0c74     libucrt:fpexcept.obj
 0002:00010c7c       ??_C@_05KNGEOGJB@atan2?$AA@ 100b0c7c     libucrt:fpexcept.obj
 0002:00010c84       ??_C@_04EIAKFFMI@sqrt?$AA@ 100b0c84     libucrt:fpexcept.obj
 0002:00010c8c       ??_C@_03BLEJJJBH@sin?$AA@  100b0c8c     libucrt:fpexcept.obj
 0002:00010c90       ??_C@_03LALBNOCG@cos?$AA@  100b0c90     libucrt:fpexcept.obj
 0002:00010c94       ??_C@_03IIINPABG@tan?$AA@  100b0c94     libucrt:fpexcept.obj
 0002:00010c98       ??_C@_04GFPJNGEK@ceil?$AA@ 100b0c98     libucrt:fpexcept.obj
 0002:00010ca0       ??_C@_05PBJFFIGL@floor?$AA@ 100b0ca0     libucrt:fpexcept.obj
 0002:00010ca8       ??_C@_04ODHECPBC@fabs?$AA@ 100b0ca8     libucrt:fpexcept.obj
 0002:00010cb0       ??_C@_04EHEDPDJG@modf?$AA@ 100b0cb0     libucrt:fpexcept.obj
 0002:00010cb8       ??_C@_05CEJMAHNP@ldexp?$AA@ 100b0cb8     libucrt:fpexcept.obj
 0002:00010cc0       ??_C@_05KBKMEMPO@_cabs?$AA@ 100b0cc0     libucrt:fpexcept.obj
 0002:00010cc8       ??_C@_06MEIMCGCF@_hypot?$AA@ 100b0cc8     libucrt:fpexcept.obj
 0002:00010cd0       ??_C@_04KEPJIHGP@fmod?$AA@ 100b0cd0     libucrt:fpexcept.obj
 0002:00010cd8       ??_C@_05GKKHEGJL@frexp?$AA@ 100b0cd8     libucrt:fpexcept.obj
 0002:00010ce0       ??_C@_03MJLDFKDL@_y0?$AA@  100b0ce0     libucrt:fpexcept.obj
 0002:00010ce4       ??_C@_03NAKIGLHK@_y1?$AA@  100b0ce4     libucrt:fpexcept.obj
 0002:00010ce8       ??_C@_03ONILCKOB@_yn?$AA@  100b0ce8     libucrt:fpexcept.obj
 0002:00010cec       ??_C@_05JGDBENOH@_logb?$AA@ 100b0cec     libucrt:fpexcept.obj
 0002:00010cf4       ??_C@_0L@KDOEJCKC@_nextafter?$AA@ 100b0cf4     libucrt:fpexcept.obj
 0002:00010d00       __wctype                   100b0d00     libucrt:ctype.obj
 0002:00010f08       ___newctype                100b0f08     libucrt:ctype.obj
 0002:00011208       ___newclmap                100b1208     libucrt:ctype.obj
 0002:00011388       ___newcumap                100b1388     libucrt:ctype.obj
 0002:00011514       __half                     100b1514     libucrt:pow_impl.obj
 0002:000115a0       ___lc_category             100b15a0     libucrt:wsetlocale.obj
 0002:000115e8       ??_C@_1O@GIFLHMA@?$AAL?$AAC?$AA_?$AAA?$AAL?$AAL?$AA?$AA@ 100b15e8     libucrt:wsetlocale.obj
 0002:000115f8       ??_C@_1BG@PPOMIBNJ@?$AAL?$AAC?$AA_?$AAC?$AAO?$AAL?$AAL?$AAA?$AAT?$AAE?$AA?$AA@ 100b15f8     libucrt:wsetlocale.obj
 0002:00011610       ??_C@_1BC@FFJGAPJM@?$AAL?$AAC?$AA_?$AAC?$AAT?$AAY?$AAP?$AAE?$AA?$AA@ 100b1610     libucrt:wsetlocale.obj
 0002:00011624       ??_C@_1BI@PCKFNJFB@?$AAL?$AAC?$AA_?$AAM?$AAO?$AAN?$AAE?$AAT?$AAA?$AAR?$AAY?$AA?$AA@ 100b1624     libucrt:wsetlocale.obj
 0002:0001163c       ??_C@_1BG@ENIEDKID@?$AAL?$AAC?$AA_?$AAN?$AAU?$AAM?$AAE?$AAR?$AAI?$AAC?$AA?$AA@ 100b163c     libucrt:wsetlocale.obj
 0002:00011654       ??_C@_1BA@HAAOMIIG@?$AAL?$AAC?$AA_?$AAT?$AAI?$AAM?$AAE?$AA?$AA@ 100b1654     libucrt:wsetlocale.obj
 0002:00011664       ??_C@_15NBPDDFIP@?$AA?$DN?$AA?$DL?$AA?$AA@ 100b1664     libucrt:wsetlocale.obj
 0002:0001166c       ??_C@_13PJJBFPED@?$AA?$DL?$AA?$AA@ 100b166c     libucrt:wsetlocale.obj
 0002:00011670       ??_C@_13NMPKAAJP@?$AA?$DN?$AA?$AA@ 100b1670     libucrt:wsetlocale.obj
 0002:00011674       ??_C@_13FHBKNHDA@?$AAC?$AA?$AA@ 100b1674     libucrt:wsetlocale.obj
 0002:00011678       ??_C@_17MBJJLFDM@?$AA_?$AA?4?$AA?0?$AA?$AA@ 100b1678     libucrt:wsetlocale.obj
 0002:00011680       ??_C@_13ENNFDPBH@?$AA_?$AA?$AA@ 100b1680     libucrt:wsetlocale.obj
 0002:00011684       ??_C@_13JOFGPIOO@?$AA?4?$AA?$AA@ 100b1684     libucrt:wsetlocale.obj
 0002:00011688       ??_C@_03KOEHGMDN@Sun?$AA@  100b1688     libucrt:nlsdata.obj
 0002:0001168c       ??_C@_03PDAGKDH@Mon?$AA@   100b168c     libucrt:nlsdata.obj
 0002:00011690       ??_C@_03NAGEINEP@Tue?$AA@  100b1690     libucrt:nlsdata.obj
 0002:00011694       ??_C@_03MHOMLAJA@Wed?$AA@  100b1694     libucrt:nlsdata.obj
 0002:00011698       ??_C@_03IOFIKPDN@Thu?$AA@  100b1698     libucrt:nlsdata.obj
 0002:0001169c       ??_C@_03IDIOELNC@Fri?$AA@  100b169c     libucrt:nlsdata.obj
 0002:000116a0       ??_C@_03FEFJNEK@Sat?$AA@   100b16a0     libucrt:nlsdata.obj
 0002:000116a4       ??_C@_06OOPIFAJ@Sunday?$AA@ 100b16a4     libucrt:nlsdata.obj
 0002:000116ac       ??_C@_06JLEDEDGH@Monday?$AA@ 100b16ac     libucrt:nlsdata.obj
 0002:000116b4       ??_C@_07BAAGCFCM@Tuesday?$AA@ 100b16b4     libucrt:nlsdata.obj
 0002:000116bc       ??_C@_09DLIGFAKA@Wednesday?$AA@ 100b16bc     libucrt:nlsdata.obj
 0002:000116c8       ??_C@_08HACCIKIA@Thursday?$AA@ 100b16c8     libucrt:nlsdata.obj
 0002:000116d4       ??_C@_06JECMNKMI@Friday?$AA@ 100b16d4     libucrt:nlsdata.obj
 0002:000116dc       ??_C@_08INBOOONO@Saturday?$AA@ 100b16dc     libucrt:nlsdata.obj
 0002:000116e8       ??_C@_03JIHJHPIE@Jan?$AA@  100b16e8     libucrt:nlsdata.obj
 0002:000116ec       ??_C@_03HJBDCHOM@Feb?$AA@  100b16ec     libucrt:nlsdata.obj
 0002:000116f0       ??_C@_03ODNJBKGA@Mar?$AA@  100b16f0     libucrt:nlsdata.obj
 0002:000116f4       ??_C@_03LEOLGMJP@Apr?$AA@  100b16f4     libucrt:nlsdata.obj
 0002:000116f8       ??_C@_03CNMDKL@May?$AA@    100b16f8     libucrt:nlsdata.obj
 0002:000116fc       ??_C@_03IDFGHECI@Jun?$AA@  100b16fc     libucrt:nlsdata.obj
 0002:00011700       ??_C@_03LBGABGKK@Jul?$AA@  100b1700     libucrt:nlsdata.obj
 0002:00011704       ??_C@_03IFJFEIGA@Aug?$AA@  100b1704     libucrt:nlsdata.obj
 0002:00011708       ??_C@_03GGCAPAJC@Sep?$AA@  100b1708     libucrt:nlsdata.obj
 0002:0001170c       ??_C@_03BMAOKBAD@Oct?$AA@  100b170c     libucrt:nlsdata.obj
 0002:00011710       ??_C@_03JPJOFNIA@Nov?$AA@  100b1710     libucrt:nlsdata.obj
 0002:00011714       ??_C@_03MKABNOCG@Dec?$AA@  100b1714     libucrt:nlsdata.obj
 0002:00011718       ??_C@_07CGJPFGJA@January?$AA@ 100b1718     libucrt:nlsdata.obj
 0002:00011720       ??_C@_08GNJGEPFN@February?$AA@ 100b1720     libucrt:nlsdata.obj
 0002:0001172c       ??_C@_05HPCKOFNC@March?$AA@ 100b172c     libucrt:nlsdata.obj
 0002:00011734       ??_C@_05DMJDNLEJ@April?$AA@ 100b1734     libucrt:nlsdata.obj
 0002:0001173c       ??_C@_04CNLMGBGM@June?$AA@ 100b173c     libucrt:nlsdata.obj
 0002:00011744       ??_C@_04MIEPOIFP@July?$AA@ 100b1744     libucrt:nlsdata.obj
 0002:0001174c       ??_C@_06LBBHFDDG@August?$AA@ 100b174c     libucrt:nlsdata.obj
 0002:00011754       ??_C@_09BHHEALKD@September?$AA@ 100b1754     libucrt:nlsdata.obj
 0002:00011760       ??_C@_07JJNFCEND@October?$AA@ 100b1760     libucrt:nlsdata.obj
 0002:00011768       ??_C@_08HCHEGEOA@November?$AA@ 100b1768     libucrt:nlsdata.obj
 0002:00011774       ??_C@_08EDHMEBNP@December?$AA@ 100b1774     libucrt:nlsdata.obj
 0002:00011780       ??_C@_02DEDBPAFC@AM?$AA@   100b1780     libucrt:nlsdata.obj
 0002:00011784       ??_C@_02CJNFDJBF@PM?$AA@   100b1784     libucrt:nlsdata.obj
 0002:00011788       ??_C@_08BPBNCDIB@MM?1dd?1yy?$AA@ 100b1788     libucrt:nlsdata.obj
 0002:00011794       ??_C@_0BE@CKGJFCPC@dddd?0?5MMMM?5dd?0?5yyyy?$AA@ 100b1794     libucrt:nlsdata.obj
 0002:000117a8       ??_C@_08JCCMCCIL@HH?3mm?3ss?$AA@ 100b17a8     libucrt:nlsdata.obj
 0002:000117b4       ??_C@_17MBGCMIPB@?$AAS?$AAu?$AAn?$AA?$AA@ 100b17b4     libucrt:nlsdata.obj
 0002:000117bc       ??_C@_17KBOMKBF@?$AAM?$AAo?$AAn?$AA?$AA@ 100b17bc     libucrt:nlsdata.obj
 0002:000117c4       ??_C@_17BMKGEGOJ@?$AAT?$AAu?$AAe?$AA?$AA@ 100b17c4     libucrt:nlsdata.obj
 0002:000117cc       ??_C@_17CJEDCEPE@?$AAW?$AAe?$AAd?$AA?$AA@ 100b17cc     libucrt:nlsdata.obj
 0002:000117d4       ??_C@_17PDPHAADD@?$AAT?$AAh?$AAu?$AA?$AA@ 100b17d4     libucrt:nlsdata.obj
 0002:000117dc       ??_C@_17HFOLPPLP@?$AAF?$AAr?$AAi?$AA?$AA@ 100b17dc     libucrt:nlsdata.obj
 0002:000117e4       ??_C@_17GGIBDPIH@?$AAS?$AAa?$AAt?$AA?$AA@ 100b17e4     libucrt:nlsdata.obj
 0002:000117ec       ??_C@_1O@IHNHDHPB@?$AAS?$AAu?$AAn?$AAd?$AAa?$AAy?$AA?$AA@ 100b17ec     libucrt:nlsdata.obj
 0002:000117fc       ??_C@_1O@MMNBFLIA@?$AAM?$AAo?$AAn?$AAd?$AAa?$AAy?$AA?$AA@ 100b17fc     libucrt:nlsdata.obj
 0002:0001180c       ??_C@_1BA@ENFBFFEK@?$AAT?$AAu?$AAe?$AAs?$AAd?$AAa?$AAy?$AA?$AA@ 100b180c     libucrt:nlsdata.obj
 0002:0001181c       ??_C@_1BE@EBOGMDOH@?$AAW?$AAe?$AAd?$AAn?$AAe?$AAs?$AAd?$AAa?$AAy?$AA?$AA@ 100b181c     libucrt:nlsdata.obj
 0002:00011830       ??_C@_1BC@HHMNLIHE@?$AAT?$AAh?$AAu?$AAr?$AAs?$AAd?$AAa?$AAy?$AA?$AA@ 100b1830     libucrt:nlsdata.obj
 0002:00011844       ??_C@_1O@PDICJHAG@?$AAF?$AAr?$AAi?$AAd?$AAa?$AAy?$AA?$AA@ 100b1844     libucrt:nlsdata.obj
 0002:00011854       ??_C@_1BC@ENMNNPAJ@?$AAS?$AAa?$AAt?$AAu?$AAr?$AAd?$AAa?$AAy?$AA?$AA@ 100b1854     libucrt:nlsdata.obj
 0002:00011868       ??_C@_17DKNBKCHM@?$AAJ?$AAa?$AAn?$AA?$AA@ 100b1868     libucrt:nlsdata.obj
 0002:00011870       ??_C@_17LMDJEKJN@?$AAF?$AAe?$AAb?$AA?$AA@ 100b1870     libucrt:nlsdata.obj
 0002:00011878       ??_C@_17CKNLEDEC@?$AAM?$AAa?$AAr?$AA?$AA@ 100b1878     libucrt:nlsdata.obj
 0002:00011880       ??_C@_17LFPOIHDD@?$AAA?$AAp?$AAr?$AA?$AA@ 100b1880     libucrt:nlsdata.obj
 0002:00011888       ??_C@_17PNNKMEED@?$AAM?$AAa?$AAy?$AA?$AA@ 100b1888     libucrt:nlsdata.obj
 0002:00011890       ??_C@_17KCJGOCPB@?$AAJ?$AAu?$AAn?$AA?$AA@ 100b1890     libucrt:nlsdata.obj
 0002:00011898       ??_C@_17IJPCKHK@?$AAJ?$AAu?$AAl?$AA?$AA@ 100b1898     libucrt:nlsdata.obj
 0002:000118a0       ??_C@_17ICPELBCN@?$AAA?$AAu?$AAg?$AA?$AA@ 100b18a0     libucrt:nlsdata.obj
 0002:000118a8       ??_C@_17HCHCOKMG@?$AAS?$AAe?$AAp?$AA?$AA@ 100b18a8     libucrt:nlsdata.obj
 0002:000118b0       ??_C@_17FNLKOI@?$AAO?$AAc?$AAt?$AA?$AA@ 100b18b0     libucrt:nlsdata.obj
 0002:000118b8       ??_C@_17BBDMLCIG@?$AAN?$AAo?$AAv?$AA?$AA@ 100b18b8     libucrt:nlsdata.obj
 0002:000118c0       ??_C@_17EGKACKIF@?$AAD?$AAe?$AAc?$AA?$AA@ 100b18c0     libucrt:nlsdata.obj
 0002:000118c8       ??_C@_1BA@EFMEIEBA@?$AAJ?$AAa?$AAn?$AAu?$AAa?$AAr?$AAy?$AA?$AA@ 100b18c8     libucrt:nlsdata.obj
 0002:000118d8       ??_C@_1BC@JGDDFFAM@?$AAF?$AAe?$AAb?$AAr?$AAu?$AAa?$AAr?$AAy?$AA?$AA@ 100b18d8     libucrt:nlsdata.obj
 0002:000118ec       ??_C@_1M@IKEENEDF@?$AAM?$AAa?$AAr?$AAc?$AAh?$AA?$AA@ 100b18ec     libucrt:nlsdata.obj
 0002:000118f8       ??_C@_1M@GJNLMHFD@?$AAA?$AAp?$AAr?$AAi?$AAl?$AA?$AA@ 100b18f8     libucrt:nlsdata.obj
 0002:00011904       ??_C@_19EPFLPGAP@?$AAJ?$AAu?$AAn?$AAe?$AA?$AA@ 100b1904     libucrt:nlsdata.obj
 0002:00011910       ??_C@_19BIFMLPCD@?$AAJ?$AAu?$AAl?$AAy?$AA?$AA@ 100b1910     libucrt:nlsdata.obj
 0002:0001191c       ??_C@_1O@PAHLKOAC@?$AAA?$AAu?$AAg?$AAu?$AAs?$AAt?$AA?$AA@ 100b191c     libucrt:nlsdata.obj
 0002:0001192c       ??_C@_1BE@DKAAMBJL@?$AAS?$AAe?$AAp?$AAt?$AAe?$AAm?$AAb?$AAe?$AAr?$AA?$AA@ 100b192c     libucrt:nlsdata.obj
 0002:00011940       ??_C@_1BA@EPANDLNG@?$AAO?$AAc?$AAt?$AAo?$AAb?$AAe?$AAr?$AA?$AA@ 100b1940     libucrt:nlsdata.obj
 0002:00011950       ??_C@_1BC@BGLIFPF@?$AAN?$AAo?$AAv?$AAe?$AAm?$AAb?$AAe?$AAr?$AA?$AA@ 100b1950     libucrt:nlsdata.obj
 0002:00011964       ??_C@_1BC@FEMKIFH@?$AAD?$AAe?$AAc?$AAe?$AAm?$AAb?$AAe?$AAr?$AA?$AA@ 100b1964     libucrt:nlsdata.obj
 0002:00011978       ??_C@_15ODEHAHHF@?$AAA?$AAM?$AA?$AA@ 100b1978     libucrt:nlsdata.obj
 0002:00011980       ??_C@_15CLMNNGEL@?$AAP?$AAM?$AA?$AA@ 100b1980     libucrt:nlsdata.obj
 0002:00011988       ??_C@_1BC@IEBCMHCM@?$AAM?$AAM?$AA?1?$AAd?$AAd?$AA?1?$AAy?$AAy?$AA?$AA@ 100b1988     libucrt:nlsdata.obj
 0002:0001199c       ??_C@_1CI@KNAKOEBC@?$AAd?$AAd?$AAd?$AAd?$AA?0?$AA?5?$AAM?$AAM?$AAM?$AAM?$AA?5?$AAd?$AAd?$AA?0?$AA?5?$AAy?$AAy?$AAy?$AAy?$AA?$AA@ 100b199c     libucrt:nlsdata.obj
 0002:000119c4       ??_C@_1BC@GDGBMEMK@?$AAH?$AAH?$AA?3?$AAm?$AAm?$AA?3?$AAs?$AAs?$AA?$AA@ 100b19c4     libucrt:nlsdata.obj
 0002:000119d8       ___lc_time_c               100b19d8     libucrt:nlsdata.obj
 0002:00011b40       ___acrt_pow_rcp_t1         100b1b40     libucrt:pow_tables.obj
 0002:00011f50       ___acrt_pow_log2_t1        100b1f50     libucrt:pow_tables.obj
 0002:00012760       ___acrt_pow_rcp_t2         100b2760     libucrt:pow_tables.obj
 0002:00012b70       ___acrt_pow_log2_t2        100b2b70     libucrt:pow_tables.obj
 0002:00013380       ___acrt_pow_rcp_t3         100b3380     libucrt:pow_tables.obj
 0002:00013b90       ___acrt_pow_log2_t3        100b3b90     libucrt:pow_tables.obj
 0002:00014ba0       ___acrt_pow_clv            100b4ba0     libucrt:pow_tables.obj
 0002:00014bc0       ___acrt_pow_exp2_tbl       100b4bc0     libucrt:pow_tables.obj
 0002:000153c0       ??_C@_03OEIAHPBN@INF?$AA@  100b53c0     libucrt:cvt.obj
 0002:000153c4       ??_C@_03OJHLLCGB@inf?$AA@  100b53c4     libucrt:cvt.obj
 0002:000153c8       ??_C@_03LKNCIKJB@NAN?$AA@  100b53c8     libucrt:cvt.obj
 0002:000153cc       ??_C@_03LHCJEHON@nan?$AA@  100b53cc     libucrt:cvt.obj
 0002:000153d0       ??_C@_09OFJJIMPC@NAN?$CISNAN?$CJ?$AA@ 100b53d0     libucrt:cvt.obj
 0002:000153dc       ??_C@_09IPFBKMDL@nan?$CIsnan?$CJ?$AA@ 100b53dc     libucrt:cvt.obj
 0002:000153e8       ??_C@_08IKHNHAJ@NAN?$CIIND?$CJ?$AA@ 100b53e8     libucrt:cvt.obj
 0002:000153f4       ??_C@_08OFCDMILK@nan?$CIind?$CJ?$AA@ 100b53f4     libucrt:cvt.obj
 0002:00015400       ??_C@_05KLBDPFGC@e?$CL000?$AA@ 100b5400     libucrt:cvt.obj
 0002:00015420       ___acrt_cos_sin_ctable     100b5420     libucrt:cos_sin_ctable.obj
 0002:00015c20       ___acrt_exp_tbl_addr       100b5c20     libucrt:exp_tables.obj
 0002:00016028       ?ccs@?1???$__acrt_stdio_parse_mode@D@@YA?AU__acrt_stdio_stream_mode@@QBD@Z@4QBDB 100b6028     libucrt:openfile.obj
 0002:0001602c       ?utf8_encoding@?1???$__acrt_stdio_parse_mode@D@@YA?AU__acrt_stdio_stream_mode@@QBD@Z@4QBDB 100b602c     libucrt:openfile.obj
 0002:00016034       ?utf16_encoding@?1???$__acrt_stdio_parse_mode@D@@YA?AU__acrt_stdio_stream_mode@@QBD@Z@4QBDB 100b6034     libucrt:openfile.obj
 0002:0001603c       ?unicode_encoding@?1???$__acrt_stdio_parse_mode@D@@YA?AU__acrt_stdio_stream_mode@@QBD@Z@4QBDB 100b603c     libucrt:openfile.obj
 0002:00016044       ?ccs@?1???$__acrt_stdio_parse_mode@_W@@YA?AU__acrt_stdio_stream_mode@@QB_W@Z@4QB_WB 100b6044     libucrt:openfile.obj
 0002:0001604c       ?utf8_encoding@?1???$__acrt_stdio_parse_mode@_W@@YA?AU__acrt_stdio_stream_mode@@QB_W@Z@4QB_WB 100b604c     libucrt:openfile.obj
 0002:00016058       ?utf16_encoding@?1???$__acrt_stdio_parse_mode@_W@@YA?AU__acrt_stdio_stream_mode@@QB_W@Z@4QB_WB 100b6058     libucrt:openfile.obj
 0002:00016068       ?unicode_encoding@?1???$__acrt_stdio_parse_mode@_W@@YA?AU__acrt_stdio_stream_mode@@QB_W@Z@4QB_WB 100b6068     libucrt:openfile.obj
 0002:00016078       ___dnames                  100b6078     libucrt:timeset.obj
 0002:00016090       ___mnames                  100b6090     libucrt:timeset.obj
 0002:000160b8       __days                     100b60b8     libucrt:days.obj
 0002:000160ec       __lpdays                   100b60ec     libucrt:days.obj
 0002:00016120       ??_C@_02CLFPBFFP@TZ?$AA@   100b6120     libucrt:tzset.obj
 0002:00016178       ??_C@_1EA@JGEFHKEI@?$AAa?$AAp?$AAi?$AA?9?$AAm?$AAs?$AA?9?$AAw?$AAi?$AAn?$AA?9?$AAc?$AAo?$AAr?$AAe?$AA?9?$AAd?$AAa?$AAt?$AAe?$AAt?$AAi?$AAm?$AAe?$AA?9?$AAl?$AA1?$AA?9?$AA1?$AA?9?$AA1?$AA?$AA@ 100b6178     libucrt:winapi_thunks.obj
 0002:000161b8       ??_C@_1DI@IJCEHOCB@?$AAa?$AAp?$AAi?$AA?9?$AAm?$AAs?$AA?9?$AAw?$AAi?$AAn?$AA?9?$AAc?$AAo?$AAr?$AAe?$AA?9?$AAf?$AAi?$AAl?$AAe?$AA?9?$AAl?$AA1?$AA?9?$AA2?$AA?9?$AA2?$AA?$AA@ 100b61b8     libucrt:winapi_thunks.obj
 0002:000161f0       ??_C@_1EI@MPIAOHOC@?$AAa?$AAp?$AAi?$AA?9?$AAm?$AAs?$AA?9?$AAw?$AAi?$AAn?$AA?9?$AAc?$AAo?$AAr?$AAe?$AA?9?$AAl?$AAo?$AAc?$AAa?$AAl?$AAi?$AAz?$AAa?$AAt?$AAi?$AAo?$AAn?$AA?9?$AAl?$AA1?$AA?9@ 100b61f0     libucrt:winapi_thunks.obj
 0002:00016238       ??_C@_1FK@FPHCKFIE@?$AAa?$AAp?$AAi?$AA?9?$AAm?$AAs?$AA?9?$AAw?$AAi?$AAn?$AA?9?$AAc?$AAo?$AAr?$AAe?$AA?9?$AAl?$AAo?$AAc?$AAa?$AAl?$AAi?$AAz?$AAa?$AAt?$AAi?$AAo?$AAn?$AA?9?$AAo?$AAb?$AAs@ 100b6238     libucrt:winapi_thunks.obj
 0002:00016298       ??_C@_1EM@DILCGIIO@?$AAa?$AAp?$AAi?$AA?9?$AAm?$AAs?$AA?9?$AAw?$AAi?$AAn?$AA?9?$AAc?$AAo?$AAr?$AAe?$AA?9?$AAp?$AAr?$AAo?$AAc?$AAe?$AAs?$AAs?$AAt?$AAh?$AAr?$AAe?$AAa?$AAd?$AAs?$AA?9?$AAl@ 100b6298     libucrt:winapi_thunks.obj
 0002:000162e4       ??_C@_1DM@LNCGDDPN@?$AAa?$AAp?$AAi?$AA?9?$AAm?$AAs?$AA?9?$AAw?$AAi?$AAn?$AA?9?$AAc?$AAo?$AAr?$AAe?$AA?9?$AAs?$AAt?$AAr?$AAi?$AAn?$AAg?$AA?9?$AAl?$AA1?$AA?9?$AA1?$AA?9?$AA0?$AA?$AA@ 100b62e4     libucrt:winapi_thunks.obj
 0002:00016320       ??_C@_1DO@FPAPJEMD@?$AAa?$AAp?$AAi?$AA?9?$AAm?$AAs?$AA?9?$AAw?$AAi?$AAn?$AA?9?$AAc?$AAo?$AAr?$AAe?$AA?9?$AAs?$AAy?$AAs?$AAi?$AAn?$AAf?$AAo?$AA?9?$AAl?$AA1?$AA?9?$AA2?$AA?9?$AA1?$AA?$AA@ 100b6320     libucrt:winapi_thunks.obj
 0002:00016360       ??_C@_1DK@NDHNAHIO@?$AAa?$AAp?$AAi?$AA?9?$AAm?$AAs?$AA?9?$AAw?$AAi?$AAn?$AA?9?$AAc?$AAo?$AAr?$AAe?$AA?9?$AAw?$AAi?$AAn?$AAr?$AAt?$AA?9?$AAl?$AA1?$AA?9?$AA1?$AA?9?$AA0?$AA?$AA@ 100b6360     libucrt:winapi_thunks.obj
 0002:0001639c       ??_C@_1DM@KGHDGBCM@?$AAa?$AAp?$AAi?$AA?9?$AAm?$AAs?$AA?9?$AAw?$AAi?$AAn?$AA?9?$AAc?$AAo?$AAr?$AAe?$AA?9?$AAx?$AAs?$AAt?$AAa?$AAt?$AAe?$AA?9?$AAl?$AA2?$AA?9?$AA1?$AA?9?$AA0?$AA?$AA@ 100b639c     libucrt:winapi_thunks.obj
 0002:000163d8       ??_C@_1EO@IJIOEFOH@?$AAa?$AAp?$AAi?$AA?9?$AAm?$AAs?$AA?9?$AAw?$AAi?$AAn?$AA?9?$AAr?$AAt?$AAc?$AAo?$AAr?$AAe?$AA?9?$AAn?$AAt?$AAu?$AAs?$AAe?$AAr?$AA?9?$AAw?$AAi?$AAn?$AAd?$AAo?$AAw?$AA?9@ 100b63d8     libucrt:winapi_thunks.obj
 0002:00016428       ??_C@_1FG@HHGEKANL@?$AAa?$AAp?$AAi?$AA?9?$AAm?$AAs?$AA?9?$AAw?$AAi?$AAn?$AA?9?$AAs?$AAe?$AAc?$AAu?$AAr?$AAi?$AAt?$AAy?$AA?9?$AAs?$AAy?$AAs?$AAt?$AAe?$AAm?$AAf?$AAu?$AAn?$AAc?$AAt?$AAi@ 100b6428     libucrt:winapi_thunks.obj
 0002:00016480       ??_C@_1EG@DBIOJECG@?$AAe?$AAx?$AAt?$AA?9?$AAm?$AAs?$AA?9?$AAw?$AAi?$AAn?$AA?9?$AAn?$AAt?$AAu?$AAs?$AAe?$AAr?$AA?9?$AAd?$AAi?$AAa?$AAl?$AAo?$AAg?$AAb?$AAo?$AAx?$AA?9?$AAl?$AA1?$AA?9?$AA1@ 100b6480     libucrt:winapi_thunks.obj
 0002:000164c8       ??_C@_1EO@FIHMJCLF@?$AAe?$AAx?$AAt?$AA?9?$AAm?$AAs?$AA?9?$AAw?$AAi?$AAn?$AA?9?$AAn?$AAt?$AAu?$AAs?$AAe?$AAr?$AA?9?$AAw?$AAi?$AAn?$AAd?$AAo?$AAw?$AAs?$AAt?$AAa?$AAt?$AAi?$AAo?$AAn?$AA?9@ 100b64c8     libucrt:winapi_thunks.obj
 0002:00016518       ??_C@_1BC@DNHGCMLG@?$AAa?$AAd?$AAv?$AAa?$AAp?$AAi?$AA3?$AA2?$AA?$AA@ 100b6518     libucrt:winapi_thunks.obj
 0002:0001652c       ??_C@_1M@OAIMIKLP@?$AAn?$AAt?$AAd?$AAl?$AAl?$AA?$AA@ 100b652c     libucrt:winapi_thunks.obj
 0002:00016538       ??_C@_1EG@DPGNFKGC@?$AAa?$AAp?$AAi?$AA?9?$AAm?$AAs?$AA?9?$AAw?$AAi?$AAn?$AA?9?$AAa?$AAp?$AAp?$AAm?$AAo?$AAd?$AAe?$AAl?$AA?9?$AAr?$AAu?$AAn?$AAt?$AAi?$AAm?$AAe?$AA?9?$AAl?$AA1?$AA?9?$AA1@ 100b6538     libucrt:winapi_thunks.obj
 0002:00016580       ??_C@_1O@BCCLBEOE@?$AAu?$AAs?$AAe?$AAr?$AA3?$AA2?$AA?$AA@ 100b6580     libucrt:winapi_thunks.obj
 0002:00016594       ??_C@_0BA@FHFNEAED@AreFileApisANSI?$AA@ 100b6594     libucrt:winapi_thunks.obj
 0002:000165b4       ??_C@_0BE@LJANKFHF@EnumSystemLocalesEx?$AA@ 100b65b4     libucrt:winapi_thunks.obj
 0002:000165f0       ??_C@_0BA@EPCJIIPD@GetDateFormatEx?$AA@ 100b65f0     libucrt:winapi_thunks.obj
 0002:00016614       ??_C@_0BA@CIJJKCJJ@GetTimeFormatEx?$AA@ 100b6614     libucrt:winapi_thunks.obj
 0002:0001662c       ??_C@_0BJ@PBCCBIPI@GetUserDefaultLocaleName?$AA@ 100b662c     libucrt:winapi_thunks.obj
 0002:00016658       ??_C@_0BC@CELBKLLA@IsValidLocaleName?$AA@ 100b6658     libucrt:winapi_thunks.obj
 0002:0001667c       ??_C@_0BB@CDHDDLLP@LCIDToLocaleName?$AA@ 100b667c     libucrt:winapi_thunks.obj
 0002:00016698       ??_C@_0BB@HBDEELFH@LocaleNameToLCID?$AA@ 100b6698     libucrt:winapi_thunks.obj
 0002:000166b0       ??_C@_0CF@OJOFEIGO@AppPolicyGetProcessTerminationMe@ 100b66b0     libucrt:winapi_thunks.obj
 0002:000166e0       ??_C@_0BC@JEAENNKH@SystemFunction036?$AA@ 100b66e0     libucrt:winapi_thunks.obj
 0002:00016700       __OP_ATAN2jmptab           100b6700     libucrt:87triga.obj
 0002:00016780       __indefinite               100b6780     libucrt:87disp.obj
 0002:0001678a       __piby2                    100b678a     libucrt:87disp.obj
 0002:00016794       __piby4                    100b6794     libucrt:87disp.obj
 0002:000167c0       __Inf_C                    100b67c0     libucrt:_values.obj
 0002:000167c8       __Nan_C                    100b67c8     libucrt:_values.obj
 0002:000167e0       ___acrt_acos_asin_tbl_addr 100b67e0     libucrt:acos_asin_tbl_addr.obj
 0002:000176e0       ___acrt_acos_asin_t_table  100b76e0     libucrt:acos_asin_t_table.obj
 0002:00017ef8       __atan_table               100b7ef8     libucrt:atan_table.obj
 0002:00019708       __d_inf                    100b9708     libucrt:util.obj
 0002:00019710       __d_max                    100b9710     libucrt:util.obj
 0002:00019718       __d_mzero                  100b9718     libucrt:util.obj
 0002:00019820       __infinity                 100b9820     libucrt:87tran.obj
 0002:0001982a       __minfinity                100b982a     libucrt:87tran.obj
 0002:00019834       __logemax                  100b9834     libucrt:87tran.obj
 0002:0001985a       __OP_EXPjmptab             100b985a     libucrt:87tran.obj
 0002:00019888       __DEFAULT_CW_in_mem        100b9888     libucrt:common.obj
 0002:0001988a       __pi_by_2_to_61            100b988a     libucrt:common.obj
 0002:000198c4       ??_C@_1BC@LLOKLNP@?$AAa?$AAm?$AAe?$AAr?$AAi?$AAc?$AAa?$AAn?$AA?$AA@ 100b98c4     libucrt:get_qualified_locale.obj
 0002:000198d8       ??_C@_1CC@HEIGCDGG@?$AAa?$AAm?$AAe?$AAr?$AAi?$AAc?$AAa?$AAn?$AA?5?$AAe?$AAn?$AAg?$AAl?$AAi?$AAs?$AAh?$AA?$AA@ 100b98d8     libucrt:get_qualified_locale.obj
 0002:000198fc       ??_C@_1CC@IHCNOMIN@?$AAa?$AAm?$AAe?$AAr?$AAi?$AAc?$AAa?$AAn?$AA?9?$AAe?$AAn?$AAg?$AAl?$AAi?$AAs?$AAh?$AA?$AA@ 100b98fc     libucrt:get_qualified_locale.obj
 0002:00019920       ??_C@_1BG@GKAGPCGG@?$AAa?$AAu?$AAs?$AAt?$AAr?$AAa?$AAl?$AAi?$AAa?$AAn?$AA?$AA@ 100b9920     libucrt:get_qualified_locale.obj
 0002:00019938       ??_C@_1BA@GMENCENF@?$AAb?$AAe?$AAl?$AAg?$AAi?$AAa?$AAn?$AA?$AA@ 100b9938     libucrt:get_qualified_locale.obj
 0002:00019948       ??_C@_1BC@PJMIIAAN@?$AAc?$AAa?$AAn?$AAa?$AAd?$AAi?$AAa?$AAn?$AA?$AA@ 100b9948     libucrt:get_qualified_locale.obj
 0002:0001995c       ??_C@_17NOIMNFBF@?$AAc?$AAh?$AAh?$AA?$AA@ 100b995c     libucrt:get_qualified_locale.obj
 0002:00019964       ??_C@_17GGDALCHA@?$AAc?$AAh?$AAi?$AA?$AA@ 100b9964     libucrt:get_qualified_locale.obj
 0002:0001996c       ??_C@_1BA@NPNJKIBL@?$AAc?$AAh?$AAi?$AAn?$AAe?$AAs?$AAe?$AA?$AA@ 100b996c     libucrt:get_qualified_locale.obj
 0002:0001997c       ??_C@_1CC@DINBAMMJ@?$AAc?$AAh?$AAi?$AAn?$AAe?$AAs?$AAe?$AA?9?$AAh?$AAo?$AAn?$AAg?$AAk?$AAo?$AAn?$AAg?$AA?$AA@ 100b997c     libucrt:get_qualified_locale.obj
 0002:000199a0       ??_C@_1CG@IOBJPACO@?$AAc?$AAh?$AAi?$AAn?$AAe?$AAs?$AAe?$AA?9?$AAs?$AAi?$AAm?$AAp?$AAl?$AAi?$AAf?$AAi?$AAe?$AAd?$AA?$AA@ 100b99a0     libucrt:get_qualified_locale.obj
 0002:000199c8       ??_C@_1CE@GAJNDCKG@?$AAc?$AAh?$AAi?$AAn?$AAe?$AAs?$AAe?$AA?9?$AAs?$AAi?$AAn?$AAg?$AAa?$AAp?$AAo?$AAr?$AAe?$AA?$AA@ 100b99c8     libucrt:get_qualified_locale.obj
 0002:000199ec       ??_C@_1CI@PAJPIOOD@?$AAc?$AAh?$AAi?$AAn?$AAe?$AAs?$AAe?$AA?9?$AAt?$AAr?$AAa?$AAd?$AAi?$AAt?$AAi?$AAo?$AAn?$AAa?$AAl?$AA?$AA@ 100b99ec     libucrt:get_qualified_locale.obj
 0002:00019a14       ??_C@_1BM@NILJBMMD@?$AAd?$AAu?$AAt?$AAc?$AAh?$AA?9?$AAb?$AAe?$AAl?$AAg?$AAi?$AAa?$AAn?$AA?$AA@ 100b9a14     libucrt:get_qualified_locale.obj
 0002:00019a30       ??_C@_1CC@OOJPJNEJ@?$AAe?$AAn?$AAg?$AAl?$AAi?$AAs?$AAh?$AA?9?$AAa?$AAm?$AAe?$AAr?$AAi?$AAc?$AAa?$AAn?$AA?$AA@ 100b9a30     libucrt:get_qualified_locale.obj
 0002:00019a54       ??_C@_1BI@IOLFEEM@?$AAe?$AAn?$AAg?$AAl?$AAi?$AAs?$AAh?$AA?9?$AAa?$AAu?$AAs?$AA?$AA@ 100b9a54     libucrt:get_qualified_locale.obj
 0002:00019a6c       ??_C@_1BO@HFFNLENJ@?$AAe?$AAn?$AAg?$AAl?$AAi?$AAs?$AAh?$AA?9?$AAb?$AAe?$AAl?$AAi?$AAz?$AAe?$AA?$AA@ 100b9a6c     libucrt:get_qualified_locale.obj
 0002:00019a8c       ??_C@_1BI@HAPKJMPO@?$AAe?$AAn?$AAg?$AAl?$AAi?$AAs?$AAh?$AA?9?$AAc?$AAa?$AAn?$AA?$AA@ 100b9a8c     libucrt:get_qualified_locale.obj
 0002:00019aa4       ??_C@_1CE@HLNDMIOJ@?$AAe?$AAn?$AAg?$AAl?$AAi?$AAs?$AAh?$AA?9?$AAc?$AAa?$AAr?$AAi?$AAb?$AAb?$AAe?$AAa?$AAn?$AA?$AA@ 100b9aa4     libucrt:get_qualified_locale.obj
 0002:00019ac8       ??_C@_1BI@LDHJHHAC@?$AAe?$AAn?$AAg?$AAl?$AAi?$AAs?$AAh?$AA?9?$AAi?$AAr?$AAe?$AA?$AA@ 100b9ac8     libucrt:get_qualified_locale.obj
 0002:00019ae0       ??_C@_1CA@NJMMCFOC@?$AAe?$AAn?$AAg?$AAl?$AAi?$AAs?$AAh?$AA?9?$AAj?$AAa?$AAm?$AAa?$AAi?$AAc?$AAa?$AA?$AA@ 100b9ae0     libucrt:get_qualified_locale.obj
 0002:00019b00       ??_C@_1BG@BHJEBBGG@?$AAe?$AAn?$AAg?$AAl?$AAi?$AAs?$AAh?$AA?9?$AAn?$AAz?$AA?$AA@ 100b9b00     libucrt:get_qualified_locale.obj
 0002:00019b18       ??_C@_1CK@FGOEJJCO@?$AAe?$AAn?$AAg?$AAl?$AAi?$AAs?$AAh?$AA?9?$AAs?$AAo?$AAu?$AAt?$AAh?$AA?5?$AAa?$AAf?$AAr?$AAi?$AAc?$AAa?$AA?$AA@ 100b9b18     libucrt:get_qualified_locale.obj
 0002:00019b44       ??_C@_1DE@PDBJPCJ@?$AAe?$AAn?$AAg?$AAl?$AAi?$AAs?$AAh?$AA?9?$AAt?$AAr?$AAi?$AAn?$AAi?$AAd?$AAa?$AAd?$AA?5?$AAy?$AA?5?$AAt?$AAo?$AAb?$AAa?$AAg?$AAo?$AA?$AA@ 100b9b44     libucrt:get_qualified_locale.obj
 0002:00019b78       ??_C@_1BG@JGCANDME@?$AAe?$AAn?$AAg?$AAl?$AAi?$AAs?$AAh?$AA?9?$AAu?$AAk?$AA?$AA@ 100b9b78     libucrt:get_qualified_locale.obj
 0002:00019b90       ??_C@_1BG@DINKMLE@?$AAe?$AAn?$AAg?$AAl?$AAi?$AAs?$AAh?$AA?9?$AAu?$AAs?$AA?$AA@ 100b9b90     libucrt:get_qualified_locale.obj
 0002:00019ba8       ??_C@_1BI@NMFDBHJE@?$AAe?$AAn?$AAg?$AAl?$AAi?$AAs?$AAh?$AA?9?$AAu?$AAs?$AAa?$AA?$AA@ 100b9ba8     libucrt:get_qualified_locale.obj
 0002:00019bc0       ??_C@_1BO@OIHKJKII@?$AAf?$AAr?$AAe?$AAn?$AAc?$AAh?$AA?9?$AAb?$AAe?$AAl?$AAg?$AAi?$AAa?$AAn?$AA?$AA@ 100b9bc0     libucrt:get_qualified_locale.obj
 0002:00019be0       ??_C@_1CA@NKAELJKI@?$AAf?$AAr?$AAe?$AAn?$AAc?$AAh?$AA?9?$AAc?$AAa?$AAn?$AAa?$AAd?$AAi?$AAa?$AAn?$AA?$AA@ 100b9be0     libucrt:get_qualified_locale.obj
 0002:00019c00       ??_C@_1CE@MGKCNLGN@?$AAf?$AAr?$AAe?$AAn?$AAc?$AAh?$AA?9?$AAl?$AAu?$AAx?$AAe?$AAm?$AAb?$AAo?$AAu?$AAr?$AAg?$AA?$AA@ 100b9c00     libucrt:get_qualified_locale.obj
 0002:00019c24       ??_C@_1BK@CEGEAILM@?$AAf?$AAr?$AAe?$AAn?$AAc?$AAh?$AA?9?$AAs?$AAw?$AAi?$AAs?$AAs?$AA?$AA@ 100b9c24     libucrt:get_qualified_locale.obj
 0002:00019c40       ??_C@_1CA@PAFKEOCC@?$AAg?$AAe?$AAr?$AAm?$AAa?$AAn?$AA?9?$AAa?$AAu?$AAs?$AAt?$AAr?$AAi?$AAa?$AAn?$AA?$AA@ 100b9c40     libucrt:get_qualified_locale.obj
 0002:00019c60       ??_C@_1CI@HCFHGOFD@?$AAg?$AAe?$AAr?$AAm?$AAa?$AAn?$AA?9?$AAl?$AAi?$AAc?$AAh?$AAt?$AAe?$AAn?$AAs?$AAt?$AAe?$AAi?$AAn?$AA?$AA@ 100b9c60     libucrt:get_qualified_locale.obj
 0002:00019c88       ??_C@_1CE@FEDDNPDG@?$AAg?$AAe?$AAr?$AAm?$AAa?$AAn?$AA?9?$AAl?$AAu?$AAx?$AAe?$AAm?$AAb?$AAo?$AAu?$AAr?$AAg?$AA?$AA@ 100b9c88     libucrt:get_qualified_locale.obj
 0002:00019cac       ??_C@_1BK@LIMINNMN@?$AAg?$AAe?$AAr?$AAm?$AAa?$AAn?$AA?9?$AAs?$AAw?$AAi?$AAs?$AAs?$AA?$AA@ 100b9cac     libucrt:get_qualified_locale.obj
 0002:00019cc8       ??_C@_1BM@LGMDBEPD@?$AAi?$AAr?$AAi?$AAs?$AAh?$AA?9?$AAe?$AAn?$AAg?$AAl?$AAi?$AAs?$AAh?$AA?$AA@ 100b9cc8     libucrt:get_qualified_locale.obj
 0002:00019ce4       ??_C@_1BM@NNCFBAEE@?$AAi?$AAt?$AAa?$AAl?$AAi?$AAa?$AAn?$AA?9?$AAs?$AAw?$AAi?$AAs?$AAs?$AA?$AA@ 100b9ce4     libucrt:get_qualified_locale.obj
 0002:00019d00       ??_C@_1BE@FEDJNPIB@?$AAn?$AAo?$AAr?$AAw?$AAe?$AAg?$AAi?$AAa?$AAn?$AA?$AA@ 100b9d00     libucrt:get_qualified_locale.obj
 0002:00019d14       ??_C@_1CC@CILKDEIE@?$AAn?$AAo?$AAr?$AAw?$AAe?$AAg?$AAi?$AAa?$AAn?$AA?9?$AAb?$AAo?$AAk?$AAm?$AAa?$AAl?$AA?$AA@ 100b9d14     libucrt:get_qualified_locale.obj
 0002:00019d38       ??_C@_1CE@DHMMHEPL@?$AAn?$AAo?$AAr?$AAw?$AAe?$AAg?$AAi?$AAa?$AAn?$AA?9?$AAn?$AAy?$AAn?$AAo?$AAr?$AAs?$AAk?$AA?$AA@ 100b9d38     libucrt:get_qualified_locale.obj
 0002:00019d5c       ??_C@_1CK@OPNMHECD@?$AAp?$AAo?$AAr?$AAt?$AAu?$AAg?$AAu?$AAe?$AAs?$AAe?$AA?9?$AAb?$AAr?$AAa?$AAz?$AAi?$AAl?$AAi?$AAa?$AAn?$AA?$AA@ 100b9d5c     libucrt:get_qualified_locale.obj
 0002:00019d88       ??_C@_1CE@KEEHCDB@?$AAs?$AAp?$AAa?$AAn?$AAi?$AAs?$AAh?$AA?9?$AAa?$AAr?$AAg?$AAe?$AAn?$AAt?$AAi?$AAn?$AAa?$AA?$AA@ 100b9d88     libucrt:get_qualified_locale.obj
 0002:00019dac       ??_C@_1CA@GIAOLHJD@?$AAs?$AAp?$AAa?$AAn?$AAi?$AAs?$AAh?$AA?9?$AAb?$AAo?$AAl?$AAi?$AAv?$AAi?$AAa?$AA?$AA@ 100b9dac     libucrt:get_qualified_locale.obj
 0002:00019dcc       ??_C@_1BM@OJNDFNPD@?$AAs?$AAp?$AAa?$AAn?$AAi?$AAs?$AAh?$AA?9?$AAc?$AAh?$AAi?$AAl?$AAe?$AA?$AA@ 100b9dcc     libucrt:get_qualified_locale.obj
 0002:00019de8       ??_C@_1CC@OCOLPALL@?$AAs?$AAp?$AAa?$AAn?$AAi?$AAs?$AAh?$AA?9?$AAc?$AAo?$AAl?$AAo?$AAm?$AAb?$AAi?$AAa?$AA?$AA@ 100b9de8     libucrt:get_qualified_locale.obj
 0002:00019e0c       ??_C@_1CG@BPOFMKBB@?$AAs?$AAp?$AAa?$AAn?$AAi?$AAs?$AAh?$AA?9?$AAc?$AAo?$AAs?$AAt?$AAa?$AA?5?$AAr?$AAi?$AAc?$AAa?$AA?$AA@ 100b9e0c     libucrt:get_qualified_locale.obj
 0002:00019e34       ??_C@_1DG@IGOBAPBB@?$AAs?$AAp?$AAa?$AAn?$AAi?$AAs?$AAh?$AA?9?$AAd?$AAo?$AAm?$AAi?$AAn?$AAi?$AAc?$AAa?$AAn?$AA?5?$AAr?$AAe?$AAp?$AAu?$AAb?$AAl?$AAi?$AAc?$AA?$AA@ 100b9e34     libucrt:get_qualified_locale.obj
 0002:00019e6c       ??_C@_1CA@JHAPGEGI@?$AAs?$AAp?$AAa?$AAn?$AAi?$AAs?$AAh?$AA?9?$AAe?$AAc?$AAu?$AAa?$AAd?$AAo?$AAr?$AA?$AA@ 100b9e6c     libucrt:get_qualified_locale.obj
 0002:00019e8c       ??_C@_1CI@LAPALJPP@?$AAs?$AAp?$AAa?$AAn?$AAi?$AAs?$AAh?$AA?9?$AAe?$AAl?$AA?5?$AAs?$AAa?$AAl?$AAv?$AAa?$AAd?$AAo?$AAr?$AA?$AA@ 100b9e8c     libucrt:get_qualified_locale.obj
 0002:00019eb4       ??_C@_1CE@PDGBOFOM@?$AAs?$AAp?$AAa?$AAn?$AAi?$AAs?$AAh?$AA?9?$AAg?$AAu?$AAa?$AAt?$AAe?$AAm?$AAa?$AAl?$AAa?$AA?$AA@ 100b9eb4     libucrt:get_qualified_locale.obj
 0002:00019ed8       ??_C@_1CC@NBEBAODI@?$AAs?$AAp?$AAa?$AAn?$AAi?$AAs?$AAh?$AA?9?$AAh?$AAo?$AAn?$AAd?$AAu?$AAr?$AAa?$AAs?$AA?$AA@ 100b9ed8     libucrt:get_qualified_locale.obj
 0002:00019efc       ??_C@_1CA@LLKGHBMF@?$AAs?$AAp?$AAa?$AAn?$AAi?$AAs?$AAh?$AA?9?$AAm?$AAe?$AAx?$AAi?$AAc?$AAa?$AAn?$AA?$AA@ 100b9efc     libucrt:get_qualified_locale.obj
 0002:00019f1c       ??_C@_1BO@LKNDOIGD@?$AAs?$AAp?$AAa?$AAn?$AAi?$AAs?$AAh?$AA?9?$AAm?$AAo?$AAd?$AAe?$AAr?$AAn?$AA?$AA@ 100b9f1c     libucrt:get_qualified_locale.obj
 0002:00019f3c       ??_C@_1CE@NMDMOEEB@?$AAs?$AAp?$AAa?$AAn?$AAi?$AAs?$AAh?$AA?9?$AAn?$AAi?$AAc?$AAa?$AAr?$AAa?$AAg?$AAu?$AAa?$AA?$AA@ 100b9f3c     libucrt:get_qualified_locale.obj
 0002:00019f60       ??_C@_1BO@LLCBEJGB@?$AAs?$AAp?$AAa?$AAn?$AAi?$AAs?$AAh?$AA?9?$AAp?$AAa?$AAn?$AAa?$AAm?$AAa?$AA?$AA@ 100b9f60     libucrt:get_qualified_locale.obj
 0002:00019f80       ??_C@_1CC@FKPGGIHO@?$AAs?$AAp?$AAa?$AAn?$AAi?$AAs?$AAh?$AA?9?$AAp?$AAa?$AAr?$AAa?$AAg?$AAu?$AAa?$AAy?$AA?$AA@ 100b9f80     libucrt:get_qualified_locale.obj
 0002:00019fa4       ??_C@_1BK@CDEIHOOP@?$AAs?$AAp?$AAa?$AAn?$AAi?$AAs?$AAh?$AA?9?$AAp?$AAe?$AAr?$AAu?$AA?$AA@ 100b9fa4     libucrt:get_qualified_locale.obj
 0002:00019fc0       ??_C@_1CI@GAHAKKGP@?$AAs?$AAp?$AAa?$AAn?$AAi?$AAs?$AAh?$AA?9?$AAp?$AAu?$AAe?$AAr?$AAt?$AAo?$AA?5?$AAr?$AAi?$AAc?$AAo?$AA?$AA@ 100b9fc0     libucrt:get_qualified_locale.obj
 0002:00019fe8       ??_C@_1CA@NKJBCAGP@?$AAs?$AAp?$AAa?$AAn?$AAi?$AAs?$AAh?$AA?9?$AAu?$AAr?$AAu?$AAg?$AAu?$AAa?$AAy?$AA?$AA@ 100b9fe8     libucrt:get_qualified_locale.obj
 0002:0001a008       ??_C@_1CE@ODILCONM@?$AAs?$AAp?$AAa?$AAn?$AAi?$AAs?$AAh?$AA?9?$AAv?$AAe?$AAn?$AAe?$AAz?$AAu?$AAe?$AAl?$AAa?$AA?$AA@ 100ba008     libucrt:get_qualified_locale.obj
 0002:0001a02c       ??_C@_1CA@OBNMCGFO@?$AAs?$AAw?$AAe?$AAd?$AAi?$AAs?$AAh?$AA?9?$AAf?$AAi?$AAn?$AAl?$AAa?$AAn?$AAd?$AA?$AA@ 100ba02c     libucrt:get_qualified_locale.obj
 0002:0001a04c       ??_C@_1M@PIPDDPPI@?$AAs?$AAw?$AAi?$AAs?$AAs?$AA?$AA@ 100ba04c     libucrt:get_qualified_locale.obj
 0002:0001a058       ??_C@_15GMFIMNFM@?$AAu?$AAs?$AA?$AA@ 100ba058     libucrt:get_qualified_locale.obj
 0002:0001a060       ??_C@_17HAEBFAGL@?$AAu?$AAs?$AAa?$AA?$AA@ 100ba060     libucrt:get_qualified_locale.obj
 0002:0001a068       ??_C@_1BA@DPFJEPHB@?$AAa?$AAm?$AAe?$AAr?$AAi?$AAc?$AAa?$AA?$AA@ 100ba068     libucrt:get_qualified_locale.obj
 0002:0001a078       ??_C@_1BA@ELOGGFK@?$AAb?$AAr?$AAi?$AAt?$AAa?$AAi?$AAn?$AA?$AA@ 100ba078     libucrt:get_qualified_locale.obj
 0002:0001a088       ??_C@_1M@GHBGIGDA@?$AAc?$AAh?$AAi?$AAn?$AAa?$AA?$AA@ 100ba088     libucrt:get_qualified_locale.obj
 0002:0001a094       ??_C@_1M@NCHEJOPO@?$AAc?$AAz?$AAe?$AAc?$AAh?$AA?$AA@ 100ba094     libucrt:get_qualified_locale.obj
 0002:0001a0a0       ??_C@_1BA@BKPAPBLA@?$AAe?$AAn?$AAg?$AAl?$AAa?$AAn?$AAd?$AA?$AA@ 100ba0a0     libucrt:get_qualified_locale.obj
 0002:0001a0b0       ??_C@_1BM@HKBCKIPC@?$AAg?$AAr?$AAe?$AAa?$AAt?$AA?5?$AAb?$AAr?$AAi?$AAt?$AAa?$AAi?$AAn?$AA?$AA@ 100ba0b0     libucrt:get_qualified_locale.obj
 0002:0001a0cc       ??_C@_1BA@PPCHPGJB@?$AAh?$AAo?$AAl?$AAl?$AAa?$AAn?$AAd?$AA?$AA@ 100ba0cc     libucrt:get_qualified_locale.obj
 0002:0001a0dc       ??_C@_1BE@JBMPEGDG@?$AAh?$AAo?$AAn?$AAg?$AA?9?$AAk?$AAo?$AAn?$AAg?$AA?$AA@ 100ba0dc     libucrt:get_qualified_locale.obj
 0002:0001a0f0       ??_C@_1BI@KOELBBPJ@?$AAn?$AAe?$AAw?$AA?9?$AAz?$AAe?$AAa?$AAl?$AAa?$AAn?$AAd?$AA?$AA@ 100ba0f0     libucrt:get_qualified_locale.obj
 0002:0001a108       ??_C@_15HIEBHAIO@?$AAn?$AAz?$AA?$AA@ 100ba108     libucrt:get_qualified_locale.obj
 0002:0001a110       ??_C@_1BC@CHBCPFPI@?$AAp?$AAr?$AA?5?$AAc?$AAh?$AAi?$AAn?$AAa?$AA?$AA@ 100ba110     libucrt:get_qualified_locale.obj
 0002:0001a124       ??_C@_1BC@JAOIIFKD@?$AAp?$AAr?$AA?9?$AAc?$AAh?$AAi?$AAn?$AAa?$AA?$AA@ 100ba124     libucrt:get_qualified_locale.obj
 0002:0001a138       ??_C@_1BI@BEHPPHKC@?$AAp?$AAu?$AAe?$AAr?$AAt?$AAo?$AA?9?$AAr?$AAi?$AAc?$AAo?$AA?$AA@ 100ba138     libucrt:get_qualified_locale.obj
 0002:0001a150       ??_C@_1O@PAEOFKDI@?$AAs?$AAl?$AAo?$AAv?$AAa?$AAk?$AA?$AA@ 100ba150     libucrt:get_qualified_locale.obj
 0002:0001a160       ??_C@_1BK@FIHMCKAM@?$AAs?$AAo?$AAu?$AAt?$AAh?$AA?5?$AAa?$AAf?$AAr?$AAi?$AAc?$AAa?$AA?$AA@ 100ba160     libucrt:get_qualified_locale.obj
 0002:0001a17c       ??_C@_1BI@NAEOODKB@?$AAs?$AAo?$AAu?$AAt?$AAh?$AA?5?$AAk?$AAo?$AAr?$AAe?$AAa?$AA?$AA@ 100ba17c     libucrt:get_qualified_locale.obj
 0002:0001a194       ??_C@_1BK@FBDGGIFF@?$AAs?$AAo?$AAu?$AAt?$AAh?$AA?9?$AAa?$AAf?$AAr?$AAi?$AAc?$AAa?$AA?$AA@ 100ba194     libucrt:get_qualified_locale.obj
 0002:0001a1b0       ??_C@_1BI@GHLEJDPK@?$AAs?$AAo?$AAu?$AAt?$AAh?$AA?9?$AAk?$AAo?$AAr?$AAe?$AAa?$AA?$AA@ 100ba1b0     libucrt:get_qualified_locale.obj
 0002:0001a1c8       ??_C@_1CE@PLHLOMJF@?$AAt?$AAr?$AAi?$AAn?$AAi?$AAd?$AAa?$AAd?$AA?5?$AA?$CG?$AA?5?$AAt?$AAo?$AAb?$AAa?$AAg?$AAo?$AA?$AA@ 100ba1c8     libucrt:get_qualified_locale.obj
 0002:0001a1ec       ??_C@_1BO@MODIMHHI@?$AAu?$AAn?$AAi?$AAt?$AAe?$AAd?$AA?9?$AAk?$AAi?$AAn?$AAg?$AAd?$AAo?$AAm?$AA?$AA@ 100ba1ec     libucrt:get_qualified_locale.obj
 0002:0001a20c       ??_C@_1BM@FFHJONBJ@?$AAu?$AAn?$AAi?$AAt?$AAe?$AAd?$AA?9?$AAs?$AAt?$AAa?$AAt?$AAe?$AAs?$AA?$AA@ 100ba20c     libucrt:get_qualified_locale.obj
 0002:0001a228       ___acrt_rg_language        100ba228     libucrt:get_qualified_locale.obj
 0002:0001a534       ___acrt_rg_language_count  100ba534     libucrt:get_qualified_locale.obj
 0002:0001a538       ___acrt_rg_country         100ba538     libucrt:get_qualified_locale.obj
 0002:0001a64c       ___acrt_rg_country_count   100ba64c     libucrt:get_qualified_locale.obj
 0002:0001a650       ??_C@_17DNCLJFIF@?$AAA?$AAC?$AAP?$AA?$AA@ 100ba650     libucrt:get_qualified_locale.obj
 0002:0001a658       ??_C@_17CIKBIHLH@?$AAO?$AAC?$AAP?$AA?$AA@ 100ba658     libucrt:get_qualified_locale.obj
 0002:0001a660       ___rglangidNotDefault      100ba660     libucrt:getqloc_downlevel.obj
 0002:0001a674       ??_C@_05DNEBIAHO@1?$CDINF?$AA@ 100ba674     libucrt:cfout.obj
 0002:0001a67c       ??_C@_06IMKFLFPG@1?$CDQNAN?$AA@ 100ba67c     libucrt:cfout.obj
 0002:0001a684       ??_C@_06PGGFOGJG@1?$CDSNAN?$AA@ 100ba684     libucrt:cfout.obj
 0002:0001a68c       ??_C@_05PHHOCPM@1?$CDIND?$AA@ 100ba68c     libucrt:cfout.obj
 0002:0001ba88       ??_C@_1BA@BALFACEM@?$AAC?$AAO?$AAN?$AAO?$AAU?$AAT?$AA$?$AA?$AA@ 100bba88     libucrt:initcon.obj
 0002:0001bba0       ___acrt_log10_table_t      100bbba0     libucrt:log10_tables.obj
 0002:0001bfb0       ___acrt_log10_table_cb     100bbfb0     libucrt:log10_tables.obj
 0002:0001c418       __load_config_used         100bc418     LIBCMT:loadcfg.obj
 0002:0001c4b8       __tls_used                 100bc4b8     LIBCMT:tlssup.obj
 0002:0001c4d0       ??_R4_Ref_count_base@std@@6B@ 100bc4d0     Parser.obj
 0002:0001c4e4       ??_R3_Ref_count_base@std@@8 100bc4e4     Parser.obj
 0002:0001c4f4       ??_R2_Ref_count_base@std@@8 100bc4f4     Parser.obj
 0002:0001c4fc       ??_R1A@?0A@EA@_Ref_count_base@std@@8 100bc4fc     Parser.obj
 0002:0001c518       ??_R4KeyValue@valve_parser@@6B@ 100bc518     Parser.obj
 0002:0001c52c       ??_R3KeyValue@valve_parser@@8 100bc52c     Parser.obj
 0002:0001c53c       ??_R2KeyValue@valve_parser@@8 100bc53c     Parser.obj
 0002:0001c548       ??_R1A@?0A@EA@KeyValue@valve_parser@@8 100bc548     Parser.obj
 0002:0001c564       ??_R1A@?0A@EA@Node@valve_parser@@8 100bc564     Parser.obj
 0002:0001c580       ??_R3Node@valve_parser@@8  100bc580     Parser.obj
 0002:0001c590       ??_R2Node@valve_parser@@8  100bc590     Parser.obj
 0002:0001c598       ??_R4Object@valve_parser@@6B@ 100bc598     Parser.obj
 0002:0001c5ac       ??_R3Object@valve_parser@@8 100bc5ac     Parser.obj
 0002:0001c5bc       ??_R2Object@valve_parser@@8 100bc5bc     Parser.obj
 0002:0001c5c8       ??_R1A@?0A@EA@Object@valve_parser@@8 100bc5c8     Parser.obj
 0002:0001c5e4       ??_R4Node@valve_parser@@6B@ 100bc5e4     Parser.obj
 0002:0001c5f8       ??_R4?$_Ref_count_obj@VObject@valve_parser@@@std@@6B@ 100bc5f8     Parser.obj
 0002:0001c60c       ??_R3?$_Ref_count_obj@VObject@valve_parser@@@std@@8 100bc60c     Parser.obj
 0002:0001c61c       ??_R2?$_Ref_count_obj@VObject@valve_parser@@@std@@8 100bc61c     Parser.obj
 0002:0001c628       ??_R1A@?0A@EA@?$_Ref_count_obj@VObject@valve_parser@@@std@@8 100bc628     Parser.obj
 0002:0001c644       ??_R4?$_Ref_count_obj@VKeyValue@valve_parser@@@std@@6B@ 100bc644     Parser.obj
 0002:0001c658       ??_R3?$_Ref_count_obj@VKeyValue@valve_parser@@@std@@8 100bc658     Parser.obj
 0002:0001c668       ??_R2?$_Ref_count_obj@VKeyValue@valve_parser@@@std@@8 100bc668     Parser.obj
 0002:0001c674       ??_R1A@?0A@EA@?$_Ref_count_obj@VKeyValue@valve_parser@@@std@@8 100bc674     Parser.obj
 0002:0001c690       ??_R3ITraceFilter@@8       100bc690     Autowall.obj
 0002:0001c6a0       ??_R2ITraceFilter@@8       100bc6a0     Autowall.obj
 0002:0001c6a8       ??_R1A@?0A@EA@ITraceFilter@@8 100bc6a8     Autowall.obj
 0002:0001c6c4       ??_R4CTraceFilter@@6B@     100bc6c4     Autowall.obj
 0002:0001c6d8       ??_R3CTraceFilter@@8       100bc6d8     Autowall.obj
 0002:0001c6e8       ??_R2CTraceFilter@@8       100bc6e8     Autowall.obj
 0002:0001c6f4       ??_R1A@?0A@EA@CTraceFilter@@8 100bc6f4     Autowall.obj
 0002:0001c710       ??_R4CTraceFilterWorldAndPropsOnly@@6B@ 100bc710     GrenadePrediction.obj
 0002:0001c724       ??_R3CTraceFilterWorldAndPropsOnly@@8 100bc724     GrenadePrediction.obj
 0002:0001c734       ??_R2CTraceFilterWorldAndPropsOnly@@8 100bc734     GrenadePrediction.obj
 0002:0001c740       ??_R1A@?0A@EA@CTraceFilterWorldAndPropsOnly@@8 100bc740     GrenadePrediction.obj
 0002:0001c75c       ??_R4exception@std@@6B@    100bc75c     Hooks.obj
 0002:0001c770       ??_R3exception@std@@8      100bc770     Hooks.obj
 0002:0001c780       ??_R2exception@std@@8      100bc780     Hooks.obj
 0002:0001c788       ??_R1A@?0A@EA@exception@std@@8 100bc788     Hooks.obj
 0002:0001c7a4       ??_R4runtime_error@std@@6B@ 100bc7a4     Hooks.obj
 0002:0001c7b8       ??_R3runtime_error@std@@8  100bc7b8     Hooks.obj
 0002:0001c7c8       ??_R2runtime_error@std@@8  100bc7c8     Hooks.obj
 0002:0001c7d4       ??_R1A@?0A@EA@runtime_error@std@@8 100bc7d4     Hooks.obj
 0002:0001c7f0       ??_R4IGameEventListener2@@6B@ 100bc7f0     Hooks.obj
 0002:0001c804       ??_R3IGameEventListener2@@8 100bc804     Hooks.obj
 0002:0001c814       ??_R2IGameEventListener2@@8 100bc814     Hooks.obj
 0002:0001c81c       ??_R1A@?0A@EA@IGameEventListener2@@8 100bc81c     Hooks.obj
 0002:0001c838       ??_R4item_purchase_listener@item_purchase@@6B@ 100bc838     Hooks.obj
 0002:0001c84c       ??_R3item_purchase_listener@item_purchase@@8 100bc84c     Hooks.obj
 0002:0001c85c       ??_R2item_purchase_listener@item_purchase@@8 100bc85c     Hooks.obj
 0002:0001c868       ??_R1A@?0A@EA@item_purchase_listener@item_purchase@@8 100bc868     Hooks.obj
 0002:0001c884       ??_R4?$_Ref_count_obj@VNode@valve_parser@@@std@@6B@ 100bc884     Hooks.obj
 0002:0001c898       ??_R3?$_Ref_count_obj@VNode@valve_parser@@@std@@8 100bc898     Hooks.obj
 0002:0001c8a8       ??_R2?$_Ref_count_obj@VNode@valve_parser@@@std@@8 100bc8a8     Hooks.obj
 0002:0001c8b4       ??_R1A@?0A@EA@?$_Ref_count_obj@VNode@valve_parser@@@std@@8 100bc8b4     Hooks.obj
 0002:0001c8d0       ??_R4ios_base@std@@6B@     100bc8d0     Utilities.obj
 0002:0001c8e4       ??_R3ios_base@std@@8       100bc8e4     Utilities.obj
 0002:0001c8f4       ??_R2ios_base@std@@8       100bc8f4     Utilities.obj
 0002:0001c900       ??_R1A@?0A@EA@ios_base@std@@8 100bc900     Utilities.obj
 0002:0001c91c       ??_R17?0A@EA@?$_Iosb@H@std@@8 100bc91c     Utilities.obj
 0002:0001c938       ??_R3?$_Iosb@H@std@@8      100bc938     Utilities.obj
 0002:0001c948       ??_R2?$_Iosb@H@std@@8      100bc948     Utilities.obj
 0002:0001c950       ??_R1A@?0A@EA@?$_Iosb@H@std@@8 100bc950     Utilities.obj
 0002:0001c96c       ??_R4?$basic_ios@DU?$char_traits@D@std@@@std@@6B@ 100bc96c     Utilities.obj
 0002:0001c980       ??_R3?$basic_ios@DU?$char_traits@D@std@@@std@@8 100bc980     Utilities.obj
 0002:0001c990       ??_R2?$basic_ios@DU?$char_traits@D@std@@@std@@8 100bc990     Utilities.obj
 0002:0001c9a0       ??_R1A@?0A@EA@?$basic_ios@DU?$char_traits@D@std@@@std@@8 100bc9a0     Utilities.obj
 0002:0001c9bc       ??_R4?$basic_streambuf@DU?$char_traits@D@std@@@std@@6B@ 100bc9bc     Utilities.obj
 0002:0001c9d0       ??_R3?$basic_streambuf@DU?$char_traits@D@std@@@std@@8 100bc9d0     Utilities.obj
 0002:0001c9e0       ??_R2?$basic_streambuf@DU?$char_traits@D@std@@@std@@8 100bc9e0     Utilities.obj
 0002:0001c9e8       ??_R1A@?0A@EA@?$basic_streambuf@DU?$char_traits@D@std@@@std@@8 100bc9e8     Utilities.obj
 0002:0001ca04       ??_R4?$basic_ostream@DU?$char_traits@D@std@@@std@@6B@ 100bca04     Utilities.obj
 0002:0001ca18       ??_R3?$basic_ostream@DU?$char_traits@D@std@@@std@@8 100bca18     Utilities.obj
 0002:0001ca28       ??_R2?$basic_ostream@DU?$char_traits@D@std@@@std@@8 100bca28     Utilities.obj
 0002:0001ca3c       ??_R1A@?0A@EA@?$basic_ostream@DU?$char_traits@D@std@@@std@@8 100bca3c     Utilities.obj
 0002:0001ca58       ??_R1A@A@3FA@?$basic_ios@DU?$char_traits@D@std@@@std@@8 100bca58     Utilities.obj
 0002:0001ca74       ??_R1A@A@3EA@ios_base@std@@8 100bca74     Utilities.obj
 0002:0001ca90       ??_R17A@3EA@?$_Iosb@H@std@@8 100bca90     Utilities.obj
 0002:0001caac       ??_R4?$basic_filebuf@DU?$char_traits@D@std@@@std@@6B@ 100bcaac     Utilities.obj
 0002:0001cac0       ??_R3?$basic_filebuf@DU?$char_traits@D@std@@@std@@8 100bcac0     Utilities.obj
 0002:0001cad0       ??_R2?$basic_filebuf@DU?$char_traits@D@std@@@std@@8 100bcad0     Utilities.obj
 0002:0001cadc       ??_R1A@?0A@EA@?$basic_filebuf@DU?$char_traits@D@std@@@std@@8 100bcadc     Utilities.obj
 0002:0001caf8       ??_R4?$basic_ofstream@DU?$char_traits@D@std@@@std@@6B@ 100bcaf8     Utilities.obj
 0002:0001cb0c       ??_R3?$basic_ofstream@DU?$char_traits@D@std@@@std@@8 100bcb0c     Utilities.obj
 0002:0001cb1c       ??_R2?$basic_ofstream@DU?$char_traits@D@std@@@std@@8 100bcb1c     Utilities.obj
 0002:0001cb34       ??_R1A@?0A@EA@?$basic_ofstream@DU?$char_traits@D@std@@@std@@8 100bcb34     Utilities.obj
 0002:0001cb50       ??_R4_Facet_base@std@@6B@  100bcb50     Utilities.obj
 0002:0001cb64       ??_R3_Facet_base@std@@8    100bcb64     Utilities.obj
 0002:0001cb74       ??_R2_Facet_base@std@@8    100bcb74     Utilities.obj
 0002:0001cb7c       ??_R1A@?0A@EA@_Facet_base@std@@8 100bcb7c     Utilities.obj
 0002:0001cb98       ??_R1A@?0A@EA@facet@locale@std@@8 100bcb98     Utilities.obj
 0002:0001cbb4       ??_R3facet@locale@std@@8   100bcbb4     Utilities.obj
 0002:0001cbc4       ??_R2facet@locale@std@@8   100bcbc4     Utilities.obj
 0002:0001cbd4       ??_R13?0A@EA@_Crt_new_delete@std@@8 100bcbd4     Utilities.obj
 0002:0001cbf0       ??_R3_Crt_new_delete@std@@8 100bcbf0     Utilities.obj
 0002:0001cc00       ??_R2_Crt_new_delete@std@@8 100bcc00     Utilities.obj
 0002:0001cc08       ??_R1A@?0A@EA@_Crt_new_delete@std@@8 100bcc08     Utilities.obj
 0002:0001cc24       ??_R3codecvt_base@std@@8   100bcc24     Utilities.obj
 0002:0001cc34       ??_R2codecvt_base@std@@8   100bcc34     Utilities.obj
 0002:0001cc48       ??_R1A@?0A@EA@codecvt_base@std@@8 100bcc48     Utilities.obj
 0002:0001cc64       ??_R3ctype_base@std@@8     100bcc64     Utilities.obj
 0002:0001cc74       ??_R2ctype_base@std@@8     100bcc74     Utilities.obj
 0002:0001cc88       ??_R1A@?0A@EA@ctype_base@std@@8 100bcc88     Utilities.obj
 0002:0001cca4       ??_R4?$ctype@D@std@@6B@    100bcca4     Utilities.obj
 0002:0001ccb8       ??_R3?$ctype@D@std@@8      100bccb8     Utilities.obj
 0002:0001ccc8       ??_R2?$ctype@D@std@@8      100bccc8     Utilities.obj
 0002:0001cce0       ??_R1A@?0A@EA@?$ctype@D@std@@8 100bcce0     Utilities.obj
 0002:0001ccfc       ??_R4error_category@std@@6B@ 100bccfc     Utilities.obj
 0002:0001cd10       ??_R3error_category@std@@8 100bcd10     Utilities.obj
 0002:0001cd20       ??_R2error_category@std@@8 100bcd20     Utilities.obj
 0002:0001cd28       ??_R1A@?0A@EA@error_category@std@@8 100bcd28     Utilities.obj
 0002:0001cd44       ??_R4_System_error@std@@6B@ 100bcd44     Utilities.obj
 0002:0001cd58       ??_R3_System_error@std@@8  100bcd58     Utilities.obj
 0002:0001cd68       ??_R2_System_error@std@@8  100bcd68     Utilities.obj
 0002:0001cd78       ??_R1A@?0A@EA@_System_error@std@@8 100bcd78     Utilities.obj
 0002:0001cd94       ??_R4system_error@std@@6B@ 100bcd94     Utilities.obj
 0002:0001cda8       ??_R3system_error@std@@8   100bcda8     Utilities.obj
 0002:0001cdb8       ??_R2system_error@std@@8   100bcdb8     Utilities.obj
 0002:0001cdcc       ??_R1A@?0A@EA@system_error@std@@8 100bcdcc     Utilities.obj
 0002:0001cde8       ??_R3_Generic_error_category@std@@8 100bcde8     Utilities.obj
 0002:0001cdf8       ??_R2_Generic_error_category@std@@8 100bcdf8     Utilities.obj
 0002:0001ce04       ??_R1A@?0A@EA@_Generic_error_category@std@@8 100bce04     Utilities.obj
 0002:0001ce20       ??_R4_Iostream_error_category@std@@6B@ 100bce20     Utilities.obj
 0002:0001ce34       ??_R3_Iostream_error_category@std@@8 100bce34     Utilities.obj
 0002:0001ce44       ??_R2_Iostream_error_category@std@@8 100bce44     Utilities.obj
 0002:0001ce54       ??_R1A@?0A@EA@_Iostream_error_category@std@@8 100bce54     Utilities.obj
 0002:0001ce70       ??_R4failure@ios_base@std@@6B@ 100bce70     Utilities.obj
 0002:0001ce84       ??_R3failure@ios_base@std@@8 100bce84     Utilities.obj
 0002:0001ce94       ??_R2failure@ios_base@std@@8 100bce94     Utilities.obj
 0002:0001ceac       ??_R1A@?0A@EA@failure@ios_base@std@@8 100bceac     Utilities.obj
 0002:0001cec8       ??_R4?$codecvt@DDU_Mbstatet@@@std@@6B@ 100bcec8     Utilities.obj
 0002:0001cedc       ??_R3?$codecvt@DDU_Mbstatet@@@std@@8 100bcedc     Utilities.obj
 0002:0001ceec       ??_R2?$codecvt@DDU_Mbstatet@@@std@@8 100bceec     Utilities.obj
 0002:0001cf04       ??_R1A@?0A@EA@?$codecvt@DDU_Mbstatet@@@std@@8 100bcf04     Utilities.obj
 0002:0001cf20       ??_R4type_info@@6B@        100bcf20     LIBCMT:std_type_info_static.obj
 0002:0001cf34       ??_R3type_info@@8          100bcf34     LIBCMT:std_type_info_static.obj
 0002:0001cf44       ??_R2type_info@@8          100bcf44     LIBCMT:std_type_info_static.obj
 0002:0001cf4c       ??_R1A@?0A@EA@type_info@@8 100bcf4c     LIBCMT:std_type_info_static.obj
 0002:0001cf68       ??_R4bad_alloc@std@@6B@    100bcf68     LIBCMT:throw_bad_alloc.obj
 0002:0001cf7c       ??_R3bad_alloc@std@@8      100bcf7c     LIBCMT:throw_bad_alloc.obj
 0002:0001cf8c       ??_R2bad_alloc@std@@8      100bcf8c     LIBCMT:throw_bad_alloc.obj
 0002:0001cf98       ??_R1A@?0A@EA@bad_alloc@std@@8 100bcf98     LIBCMT:throw_bad_alloc.obj
 0002:0001cfb4       ??_R4bad_array_new_length@std@@6B@ 100bcfb4     LIBCMT:throw_bad_alloc.obj
 0002:0001cfc8       ??_R3bad_array_new_length@std@@8 100bcfc8     LIBCMT:throw_bad_alloc.obj
 0002:0001cfd8       ??_R2bad_array_new_length@std@@8 100bcfd8     LIBCMT:throw_bad_alloc.obj
 0002:0001cfe8       ??_R1A@?0A@EA@bad_array_new_length@std@@8 100bcfe8     LIBCMT:throw_bad_alloc.obj
 0002:0001d004       ??_R4logic_error@std@@6B@  100bd004     libcpmt:xthrow.obj
 0002:0001d018       ??_R3logic_error@std@@8    100bd018     libcpmt:xthrow.obj
 0002:0001d028       ??_R2logic_error@std@@8    100bd028     libcpmt:xthrow.obj
 0002:0001d034       ??_R1A@?0A@EA@logic_error@std@@8 100bd034     libcpmt:xthrow.obj
 0002:0001d050       ??_R4invalid_argument@std@@6B@ 100bd050     libcpmt:xthrow.obj
 0002:0001d064       ??_R3invalid_argument@std@@8 100bd064     libcpmt:xthrow.obj
 0002:0001d074       ??_R2invalid_argument@std@@8 100bd074     libcpmt:xthrow.obj
 0002:0001d084       ??_R1A@?0A@EA@invalid_argument@std@@8 100bd084     libcpmt:xthrow.obj
 0002:0001d0a0       ??_R4length_error@std@@6B@ 100bd0a0     libcpmt:xthrow.obj
 0002:0001d0b4       ??_R3length_error@std@@8   100bd0b4     libcpmt:xthrow.obj
 0002:0001d0c4       ??_R2length_error@std@@8   100bd0c4     libcpmt:xthrow.obj
 0002:0001d0d4       ??_R1A@?0A@EA@length_error@std@@8 100bd0d4     libcpmt:xthrow.obj
 0002:0001d0f0       ??_R4out_of_range@std@@6B@ 100bd0f0     libcpmt:xthrow.obj
 0002:0001d104       ??_R3out_of_range@std@@8   100bd104     libcpmt:xthrow.obj
 0002:0001d114       ??_R2out_of_range@std@@8   100bd114     libcpmt:xthrow.obj
 0002:0001d124       ??_R1A@?0A@EA@out_of_range@std@@8 100bd124     libcpmt:xthrow.obj
 0002:0001d140       ??_R4_Locimp@locale@std@@6B@ 100bd140     libcpmt:locale0.obj
 0002:0001d154       ??_R3_Locimp@locale@std@@8 100bd154     libcpmt:locale0.obj
 0002:0001d164       ??_R2_Locimp@locale@std@@8 100bd164     libcpmt:locale0.obj
 0002:0001d178       ??_R1A@?0A@EA@_Locimp@locale@std@@8 100bd178     libcpmt:locale0.obj
 0002:0001d194       ??_R4bad_exception@std@@6B@ 100bd194     libvcruntime:frame.obj
 0002:0001d1a8       ??_R3bad_exception@std@@8  100bd1a8     libvcruntime:frame.obj
 0002:0001d1b8       ??_R2bad_exception@std@@8  100bd1b8     libvcruntime:frame.obj
 0002:0001d1c4       ??_R1A@?0A@EA@bad_exception@std@@8 100bd1c4     libvcruntime:frame.obj
 0002:0001d1e0       ___safe_se_handler_table   100bd1e0     <linker-defined>
 0002:0001d7a0       ___rtc_iaa                 100bd7a0     LIBCMT:_initsect_.obj
 0002:0001d7a4       ___rtc_izz                 100bd7a4     LIBCMT:_initsect_.obj
 0002:0001d7a8       ___rtc_taa                 100bd7a8     LIBCMT:_initsect_.obj
 0002:0001d7ac       ___rtc_tzz                 100bd7ac     LIBCMT:_initsect_.obj
 0002:0001d7b0       __tls_start                100bd7b0     LIBCMT:tlssup.obj
 0002:0001d7b4       __Init_thread_epoch        100bd7b4     LIBCMT:thread_safe_statics.obj
 0002:0001d7b8       __tls_end                  100bd7b8     LIBCMT:tlssup.obj
 0002:0001f414       __TI2?AVruntime_error@std@@ 100bf414     Hooks.obj
 0002:0001f424       __CTA2?AVruntime_error@std@@ 100bf424     Hooks.obj
 0002:0001f430       __CT??_R0?AVruntime_error@std@@@8??0runtime_error@std@@QAE@ABV01@@Z12 100bf430     Hooks.obj
 0002:0001f44c       __CT??_R0?AVexception@std@@@8??0exception@std@@QAE@ABV01@@Z12 100bf44c     Hooks.obj
 0002:0001fec4       __TI5?AVfailure@ios_base@std@@ 100bfec4     Utilities.obj
 0002:0001fed4       __CTA5?AVfailure@ios_base@std@@ 100bfed4     Utilities.obj
 0002:0001feec       __CT??_R0?AVfailure@ios_base@std@@@8??0failure@ios_base@std@@QAE@ABV012@@Z20 100bfeec     Utilities.obj
 0002:0001ff08       __CT??_R0?AVsystem_error@std@@@8??0system_error@std@@QAE@ABV01@@Z20 100bff08     Utilities.obj
 0002:0001ff24       __CT??_R0?AV_System_error@std@@@8??0_System_error@std@@QAE@ABV01@@Z20 100bff24     Utilities.obj
 0002:0002001c       __TI2?AVbad_alloc@std@@    100c001c     LIBCMT:throw_bad_alloc.obj
 0002:0002002c       __CTA2?AVbad_alloc@std@@   100c002c     LIBCMT:throw_bad_alloc.obj
 0002:00020038       __CT??_R0?AVbad_alloc@std@@@8??0bad_alloc@std@@QAE@ABV01@@Z12 100c0038     LIBCMT:throw_bad_alloc.obj
 0002:00020054       __TI3?AVbad_array_new_length@std@@ 100c0054     LIBCMT:throw_bad_alloc.obj
 0002:00020064       __CTA3?AVbad_array_new_length@std@@ 100c0064     LIBCMT:throw_bad_alloc.obj
 0002:00020074       __CT??_R0?AVbad_array_new_length@std@@@8??0bad_array_new_length@std@@QAE@ABV01@@Z12 100c0074     LIBCMT:throw_bad_alloc.obj
 0002:00020090       __TI3?AVinvalid_argument@std@@ 100c0090     libcpmt:xthrow.obj
 0002:000200a0       __CTA3?AVinvalid_argument@std@@ 100c00a0     libcpmt:xthrow.obj
 0002:000200b0       __CT??_R0?AVinvalid_argument@std@@@8??0invalid_argument@std@@QAE@ABV01@@Z12 100c00b0     libcpmt:xthrow.obj
 0002:000200cc       __CT??_R0?AVlogic_error@std@@@8??0logic_error@std@@QAE@ABV01@@Z12 100c00cc     libcpmt:xthrow.obj
 0002:000200e8       __TI3?AVlength_error@std@@ 100c00e8     libcpmt:xthrow.obj
 0002:000200f8       __CTA3?AVlength_error@std@@ 100c00f8     libcpmt:xthrow.obj
 0002:00020108       __CT??_R0?AVlength_error@std@@@8??0length_error@std@@QAE@ABV01@@Z12 100c0108     libcpmt:xthrow.obj
 0002:00020124       __TI3?AVout_of_range@std@@ 100c0124     libcpmt:xthrow.obj
 0002:00020134       __CTA3?AVout_of_range@std@@ 100c0134     libcpmt:xthrow.obj
 0002:00020144       __CT??_R0?AVout_of_range@std@@@8??0out_of_range@std@@QAE@ABV01@@Z12 100c0144     libcpmt:xthrow.obj
 0002:000202bc       __TI2?AVbad_exception@std@@ 100c02bc     libvcruntime:frame.obj
 0002:000202cc       __CTA2?AVbad_exception@std@@ 100c02cc     libvcruntime:frame.obj
 0002:000202d8       __CT??_R0?AVbad_exception@std@@@8??0bad_exception@std@@QAE@ABV01@@Z12 100c02d8     libvcruntime:frame.obj
 0002:00020994       __IMPORT_DESCRIPTOR_KERNEL32 100c0994     kernel32:KERNEL32.dll
 0002:000209a8       __IMPORT_DESCRIPTOR_USER32 100c09a8     user32:USER32.dll
 0002:000209bc       __IMPORT_DESCRIPTOR_SHELL32 100c09bc     shell32:SHELL32.dll
 0002:000209d0       __IMPORT_DESCRIPTOR_WINMM  100c09d0     winmm:WINMM.dll
 0002:000209e4       __IMPORT_DESCRIPTOR_IMM32  100c09e4     imm32:IMM32.dll
 0002:000209f8       __NULL_IMPORT_DESCRIPTOR   100c09f8     kernel32:KERNEL32.dll
 0003:00000044       ?ChamMode@G@@3HA           100c2044     Global.obj
 0003:00000048       ?SendPacket@G@@3_NA        100c2048     Global.obj
 0003:0000004c       ?BestTarget@G@@3HA         100c204c     Global.obj
 0003:00000060       ?hitscan@@3PAPBDA          100c2060     Hooks.obj
 0003:00000074       ?crosshairStyle@@3PAPBDA   100c2074     Hooks.obj
 0003:00000084       ?iAirstuck@@3PAPBDA        100c2084     Hooks.obj
 0003:00000090       ?iHitboxLegit@@3PAPBDA     100c2090     Hooks.obj
 0003:000000a4       ?antiaimyawtrue@@3PAPBDA   100c20a4     Hooks.obj
 0003:000000c8       ?antiaimyawtruemove@@3PAPBDA 100c20c8     Hooks.obj
 0003:000000e8       ?skyboxchanger@@3PAPBDA    100c20e8     Hooks.obj
 0003:00000100       ?antiaimyawfake@@3PAPBDA   100c2100     Hooks.obj
 0003:00000128       ?antiaimyawfakemove@@3PAPBDA 100c2128     Hooks.obj
 0003:00000150       ?antiaimpitch@@3PAPBDA     100c2150     Hooks.obj
 0003:00000168       ?handd@@3PAPBDA            100c2168     Hooks.obj
 0003:00000188       ?Namespammers@@3PAPBDA     100c2188     Hooks.obj
 0003:000001a4       ?Chatspammers@@3PAPBDA     100c21a4     Hooks.obj
 0003:000001b8       ?chamsMode@@3PAPBDA        100c21b8     Hooks.obj
 0003:000001c4       ?aimBones@@3PAPBDA         100c21c4     Hooks.obj
 0003:000001d0       ?configFiles@@3PAPBDA      100c21d0     Hooks.obj
 0003:000001fc       ?spammers@@3PAPBDA         100c21fc     Hooks.obj
 0003:0000020c       ?ClanTags@@3PAPBDA         100c220c     Hooks.obj
 0003:00000214       ?themes@@3PAPBDA           100c2214     Hooks.obj
 0003:00000220       ?colors@@3PAPBDA           100c2220     Hooks.obj
 0003:00000234       ?gloves@@3PAPBDA           100c2234     Hooks.obj
 0003:00000250       ?keyNames@@3PAPBDA         100c2250     Hooks.obj
 0003:000003c0       ?knives@@3PAPBDA           100c23c0     Hooks.obj
 0003:000003e8       ?knifeskins@@3PAPBDA       100c23e8     Hooks.obj
 0003:00000470       ?m4a1s@@3PAPBDA            100c2470     Hooks.obj
 0003:000004a0       ?ak47@@3PAPBDA             100c24a0     Hooks.obj
 0003:000004e4       ?m4a4@@3PAPBDA             100c24e4     Hooks.obj
 0003:00000508       ?aug@@3PAPBDA              100c2508     Hooks.obj
 0003:00000518       ?famas@@3PAPBDA            100c2518     Hooks.obj
 0003:00000528       ?awp@@3PAPBDA              100c2528     Hooks.obj
 0003:0000055c       ?scar20@@3PAPBDA           100c255c     Hooks.obj
 0003:00000578       ?ssg08@@3PAPBDA            100c2578     Hooks.obj
 0003:000005b8       ?p90@@3PAPBDA              100c25b8     Hooks.obj
 0003:000005ec       ?ump45@@3PAPBDA            100c25ec     Hooks.obj
 0003:000005fc       ?glock@@3PAPBDA            100c25fc     Hooks.obj
 0003:00000614       ?usp@@3PAPBDA              100c2614     Hooks.obj
 0003:00000638       ?deagle@@3PAPBDA           100c2638     Hooks.obj
 0003:00000644       ?tec9@@3PAPBDA             100c2644     Hooks.obj
 0003:00000668       ?p2000@@3PAPBDA            100c2668     Hooks.obj
 0003:00000684       ?p250@@3PAPBDA             100c2684     Hooks.obj
 0003:0000069c       ?once@@3_NA                100c269c     Hooks.obj
 0003:000006a0       ?skybox_items@@3PAPBDA     100c26a0     Hooks.obj
 0003:00000700       ?play@@3PADA               100c2700     Hooks.obj
 0003:0000c808       ?headshot@@3PADA           100ce808     Hooks.obj
 0003:00020690       ?rawData@@3PADA            100e2690     Hooks.obj
 0003:00023478       ?roblox@@3PADA             100e5478     Hooks.obj
 0003:0003dbf4       ?HitmarkSound@@3PAPBDA     100ffbf4     Hooks.obj
 0003:0003dc0c       ?AngleStyles@@3PAPBDA      100ffc0c     Hooks.obj
 0003:0003dc18       ?china@@3PADA              100ffc18     Hooks.obj
 0003:0007335c       ?resolvemode@Globals@@3HA  1013535c     Hooks.obj
 0003:00073360       ?skeethitmarker_wav@@3PADA 10135360     Hooks.obj
 0003:0008d1c0       ?hitler_wav@@3PADA         1014f1c0     Hooks.obj
 0003:000d9c54       ?purchase@@3Vitem_purchase@@A 1019bc54     Hooks.obj
 0003:000d9c90       ?GImGui@@3PAUImGuiContext@@A 1019bc90     imgui.obj
 0003:000d9cd4       ?animatedclantag@@3V?$basic_string@DU?$char_traits@D@std@@V?$allocator@D@2@@std@@A 1019bcd4     Misc.obj
 0003:000d9d20       ?logFile@@3V?$basic_ofstream@DU?$char_traits@D@std@@@std@@A 1019bd20     Utilities.obj
 0003:000d9dd0       ___security_cookie         1019bdd0     LIBCMT:gs_cookie.obj
 0003:000d9dd4       ___security_cookie_complement 1019bdd4     LIBCMT:gs_cookie.obj
 0003:000d9dd8       __fltused                  1019bdd8     LIBCMT:fltused.obj
 0003:000d9ddc       ___scrt_native_dllmain_reason 1019bddc     LIBCMT:utility.obj
 0003:000d9de0       __Init_global_epoch        1019bde0     LIBCMT:thread_safe_statics.obj
 0003:000d9df0       ___isa_enabled             1019bdf0     LIBCMT:_cpu_disp_.obj
 0003:000d9e00       ?_Sync@ios_base@std@@0_NA  1019be00     libcpmt:ios.obj
 0003:000d9e10       ?_PJP_CPP_Copyright@@3PADA 1019be10     libcpmt:iosptrs.obj
 0003:000d9e80       __NLG_Destination          1019be80     libvcruntime:_exsup_.obj
 0003:000d9ea0       __iob                      1019bea0     libucrt:_file.obj
 0003:000d9f50       __pctype                   1019bf50     libucrt:ctype.obj
 0003:000d9f54       __pwctype                  1019bf54     libucrt:ctype.obj
 0003:000d9f58       ___abort_behavior          1019bf58     libucrt:abort.obj
 0003:000d9f60       ___acrt_lconv_static_decimal 1019bf60     libucrt:localeconv.obj
 0003:000d9f64       ___acrt_lconv_static_W_decimal 1019bf64     libucrt:localeconv.obj
 0003:000d9f68       ___acrt_lconv_c            1019bf68     libucrt:localeconv.obj
 0003:000d9fb8       ___acrt_lconv              1019bfb8     libucrt:localeconv.obj
 0003:000d9fc8       ___mb_cur_max              1019bfc8     libucrt:nlsdata.obj
 0003:000d9fd0       ___acrt_initial_locale_data 1019bfd0     libucrt:nlsdata.obj
 0003:000da088       ___acrt_initial_locale_pointers 1019c088     libucrt:nlsdata.obj
 0003:000da090       ___acrt_wide_c_locale_string 1019c090     libucrt:nlsdata.obj
 0003:000da098       ___badioinfo               1019c098     libucrt:ioinit.obj
 0003:000da0d0       __lookuptrailbytes         1019c0d0     libucrt:read.obj
 0003:000da570       ___acrt_initial_multibyte_data 1019c570     libucrt:mbctype.obj
 0003:000da790       ___globallocalestatus      1019c790     libucrt:glstatus.obj
 0003:000da7b0       ??_R0?AV_Ref_count_base@std@@@8 1019c7b0     Parser.obj
 0003:000da7d4       ??_R0?AVKeyValue@valve_parser@@@8 1019c7d4     Parser.obj
 0003:000da7f8       ??_R0?AVNode@valve_parser@@@8 1019c7f8     Parser.obj
 0003:000da818       ??_R0?AVObject@valve_parser@@@8 1019c818     Parser.obj
 0003:000da83c       ??_R0?AV?$_Ref_count_obj@VObject@valve_parser@@@std@@@8 1019c83c     Parser.obj
 0003:000da878       ??_R0?AV?$_Ref_count_obj@VKeyValue@valve_parser@@@std@@@8 1019c878     Parser.obj
 0003:000da8b4       ??_R0?AVITraceFilter@@@8   1019c8b4     Autowall.obj
 0003:000da8d0       ??_R0?AVCTraceFilter@@@8   1019c8d0     Autowall.obj
 0003:000da8ec       ??_R0?AVCTraceFilterWorldAndPropsOnly@@@8 1019c8ec     GrenadePrediction.obj
 0003:000da918       ??_R0?AVruntime_error@std@@@8 1019c918     Hooks.obj
 0003:000da938       ??_R0?AVexception@std@@@8  1019c938     Hooks.obj
 0003:000da954       ??_R0?AVIGameEventListener2@@@8 1019c954     Hooks.obj
 0003:000da978       ??_R0?AVitem_purchase_listener@item_purchase@@@8 1019c978     Hooks.obj
 0003:000da9ac       ??_R0?AV?$_Ref_count_obj@VNode@valve_parser@@@std@@@8 1019c9ac     Hooks.obj
 0003:000da9e4       ??_R0?AVios_base@std@@@8   1019c9e4     Utilities.obj
 0003:000daa00       ??_R0?AV?$_Iosb@H@std@@@8  1019ca00     Utilities.obj
 0003:000daa1c       ??_R0?AV?$basic_ios@DU?$char_traits@D@std@@@std@@@8 1019ca1c     Utilities.obj
 0003:000daa54       ??_R0?AV?$basic_streambuf@DU?$char_traits@D@std@@@std@@@8 1019ca54     Utilities.obj
 0003:000daa90       ??_R0?AV?$basic_ostream@DU?$char_traits@D@std@@@std@@@8 1019ca90     Utilities.obj
 0003:000daacc       ??_R0?AV?$basic_filebuf@DU?$char_traits@D@std@@@std@@@8 1019cacc     Utilities.obj
 0003:000dab08       ??_R0?AV?$basic_ofstream@DU?$char_traits@D@std@@@std@@@8 1019cb08     Utilities.obj
 0003:000dab44       ??_R0?AVfailure@ios_base@std@@@8 1019cb44     Utilities.obj
 0003:000dab68       ??_R0?AVsystem_error@std@@@8 1019cb68     Utilities.obj
 0003:000dab88       ??_R0?AV_System_error@std@@@8 1019cb88     Utilities.obj
 0003:000daba8       ??_R0?AV_Facet_base@std@@@8 1019cba8     Utilities.obj
 0003:000dabc8       ??_R0?AVfacet@locale@std@@@8 1019cbc8     Utilities.obj
 0003:000dabe8       ??_R0?AU_Crt_new_delete@std@@@8 1019cbe8     Utilities.obj
 0003:000dac0c       ??_R0?AVcodecvt_base@std@@@8 1019cc0c     Utilities.obj
 0003:000dac2c       ??_R0?AUctype_base@std@@@8 1019cc2c     Utilities.obj
 0003:000dac4c       ??_R0?AV?$ctype@D@std@@@8  1019cc4c     Utilities.obj
 0003:000dac68       ??_R0?AVerror_category@std@@@8 1019cc68     Utilities.obj
 0003:000dac8c       ??_R0?AV_Generic_error_category@std@@@8 1019cc8c     Utilities.obj
 0003:000dacb8       ??_R0?AV_Iostream_error_category@std@@@8 1019ccb8     Utilities.obj
 0003:000dace4       ??_R0?AV?$codecvt@DDU_Mbstatet@@@std@@@8 1019cce4     Utilities.obj
 0003:000dad10       ??_R0?AVtype_info@@@8      1019cd10     LIBCMT:std_type_info_static.obj
 0003:000dad28       ??_R0?AVbad_alloc@std@@@8  1019cd28     LIBCMT:throw_bad_alloc.obj
 0003:000dad44       ??_R0?AVbad_array_new_length@std@@@8 1019cd44     LIBCMT:throw_bad_alloc.obj
 0003:000dad6c       ??_R0?AVinvalid_argument@std@@@8 1019cd6c     libcpmt:xthrow.obj
 0003:000dad90       ??_R0?AVlogic_error@std@@@8 1019cd90     libcpmt:xthrow.obj
 0003:000dadb0       ??_R0?AVlength_error@std@@@8 1019cdb0     libcpmt:xthrow.obj
 0003:000dadd0       ??_R0?AVout_of_range@std@@@8 1019cdd0     libcpmt:xthrow.obj
 0003:000dadf0       ??_R0?AV_Locimp@locale@std@@@8 1019cdf0     libcpmt:locale0.obj
 0003:000dae14       ??_R0?AVbad_exception@std@@@8 1019ce14     libvcruntime:frame.obj
 0003:000dae38       ?_OptionsStorage@?1??__local_stdio_scanf_options@@9@4_KA 1019ce38     imguicolorpicker.obj
 0003:000dae40       ?fnSequenceProxyFn@@3P6AXPBVCRecvProxyData@@PAX1@ZA 1019ce40     recvproxy.obj
 0003:000dae44       ?oRecvnModelIndex@@3P6AXPBVCRecvProxyData@@PAX1@ZA 1019ce44     recvproxy.obj
 0003:000dae48       ?fnNoSmoke@@3P6AXPBVCRecvProxyData@@PAX1@ZA 1019ce48     recvproxy.obj
 0003:000dae78       ?_OptionsStorage@?1??__local_stdio_printf_options@@9@4_KA 1019ce78     Chams.obj
 0003:000daebc       ?Config@@3PAVCConfig@@A    1019cebc     Configuration.obj
 0003:000daec0       ?g_Options@@3UVariables@@A 1019cec0     Configuration.obj
 0003:000e1f3c       ?unload@@3_NA              101a3f3c     DLLMain.obj
 0003:000e1f58       ?m_flOldCurtime@@3MA       101a3f58     EnginePrediction.obj
 0003:000e1f5c       ?m_flOldFrametime@@3MA     101a3f5c     EnginePrediction.obj
 0003:000e1f60       ?m_pPredictionRandomSeed@@3PAHA 101a3f60     EnginePrediction.obj
 0003:000e1f70       ?m_MoveData@@3VCMoveData@@A 101a3f70     EnginePrediction.obj
 0003:000e2030       ?width@@3HA                101a4030     ESP.obj
 0003:000e2034       ?height@@3HA               101a4034     ESP.obj
 0003:000e2038       ?done@@3_NA                101a4038     ESP.obj
 0003:000e203c       ?damage@@3MA               101a403c     ESP.obj
 0003:000e2040       ?bombdamagestringdead@@3PADA 101a4040     ESP.obj
 0003:000e2058       ?bombdamagestringalive@@3PADA 101a4058     ESP.obj
 0003:000e20c4       ?inst@?1??instance@?$singleton@Vgrenade_prediction@@@@SAAAVgrenade_prediction@@XZ@4V3@A 101a40c4     ESP.obj
 0003:000e20d8       ?$TSS0@?1??instance@?$singleton@Vgrenade_prediction@@@@SAAAVgrenade_prediction@@XZ@4HA 101a40d8     ESP.obj
 0003:000e20e0       ?Aimbotting@G@@3_NA        101a40e0     Global.obj
 0003:000e20e1       ?InAntiAim@G@@3_NA         101a40e1     Global.obj
 0003:000e20e2       ?Return@G@@3_NA            101a40e2     Global.obj
 0003:000e20e3       ?d3dinit@G@@3_NA           101a40e3     Global.obj
 0003:000e20e4       ?Dll@G@@3PAUHINSTANCE__@@A 101a40e4     Global.obj
 0003:000e20e8       ?Window@G@@3PAUHWND__@@A   101a40e8     Global.obj
 0003:000e20ec       ?FOV@G@@3MA                101a40ec     Global.obj
 0003:000e20f0       ?PressedKeys@G@@3PA_NA     101a40f0     Global.obj
 0003:000e21f0       ?AnimatedClantag@G@@3PADA  101a41f0     Global.obj
 0003:000e2200       ?buf3@G@@3PADA             101a4200     Global.obj
 0003:000e2280       ?extra_flags@G@@3DA        101a4280     Global.obj
 0003:000e2281       ?menuon@G@@3_NA            101a4281     Global.obj
 0003:000e2284       ?hitmarkeralpha@G@@3MA     101a4284     Global.obj
 0003:000e2294       ?Msg@G@@3P6AXPBDZZA        101a4294     Global.obj
 0003:000e22b8       ?m_present@@3PAEA          101a42b8     Hooks.obj
 0003:000e22bc       ?m_reset@@3PAEA            101a42bc     Hooks.obj
 0003:000e22c0       ?d3d9_device@@3PAUIDirect3DDevice9@@A 101a42c0     Hooks.obj
 0003:000e22c4       ?oEndScene@@3P6GJPAUIDirect3DDevice9@@@ZA 101a42c4     Hooks.obj
 0003:000e22c8       ?oReset@@3P6GJPAUIDirect3DDevice9@@PAU_D3DPRESENT_PARAMETERS_@@@ZA 101a42c8     Hooks.obj
 0003:000e22cc       ?oOnScreenSizeChanged@@3P6EXPAVISurface@@HH@ZA 101a42cc     Hooks.obj
 0003:000e22d0       ?oFireEventClientSide@@3P6E_NPAXPAVIGameEvent@@@ZA 101a42d0     Hooks.obj
 0003:000e22d4       ?Kills2@@3HA               101a42d4     Hooks.obj
 0003:000e22d8       ?Kills@@3HA                101a42d8     Hooks.obj
 0003:000e22dc       ?RoundInfo@@3_NA           101a42dc     Hooks.obj
 0003:000e22dd       ?m_bIsRecording@@3_NA      101a42dd     Hooks.obj
 0003:000e22de       ?m_bIsReplaying@@3_NA      101a42de     Hooks.obj
 0003:000e22df       ?once1@@3_NA               101a42df     Hooks.obj
 0003:000e22e0       ?Delay@@3IA                101a42e0     Hooks.obj
 0003:000e22e4       ?worldmodel_handle@@3PAXA  101a42e4     Hooks.obj
 0003:000e22e8       ?worldmodel@@3PAVCBaseCombatWeapon@@A 101a42e8     Hooks.obj
 0003:000e22ec       ?oPresent@@3P6GJPAXPBUtagRECT@@PAU1@PAUHWND__@@PAU_RGNDATA@@@ZA 101a42ec     Hooks.obj
 0003:000e22f0       ?m_iRecordFrame@@3HA       101a42f0     Hooks.obj
 0003:000e22f4       ?m_iReplayFrame@@3HA       101a42f4     Hooks.obj
 0003:000e22f8       ?m_iOldTickCount@@3HA      101a42f8     Hooks.obj
 0003:000e22fc       ?oFindMDL@@3P6EGPAXPBD@ZA  101a42fc     Hooks.obj
 0003:000e2300       ?lineLBY@@3MA              101a4300     Hooks.obj
 0003:000e2304       ?lineRealAngle@@3MA        101a4304     Hooks.obj
 0003:000e2308       ?lineFakeAngle@@3MA        101a4308     Hooks.obj
 0003:000e230c       ?flColor@@3PAMA            101a430c     Hooks.obj
 0003:000e2318       ?flVColor@@3PAMA           101a4318     Hooks.obj
 0003:000e2324       ?fDefault@@3PAUImFont@@A   101a4324     Hooks.obj
 0003:000e2328       ?fkek@@3PAUImFont@@A       101a4328     Hooks.obj
 0003:000e232c       ?fTabs@@3PAUImFont@@A      101a432c     Hooks.obj
 0003:000e2330       ?Myfont@@3PAUImFont@@A     101a4330     Hooks.obj
 0003:000e2334       ?insidous_3@@3PAUImFont@@A 101a4334     Hooks.obj
 0003:000e2338       ?soulLotion_1@@3PAUImFont@@A 101a4338     Hooks.obj
 0003:000e233c       ?Icons1@@3PAUImFont@@A     101a433c     Hooks.obj
 0003:000e2340       ?Icons2@@3PAUImFont@@A     101a4340     Hooks.obj
 0003:000e2344       ?Icons3@@3PAUImFont@@A     101a4344     Hooks.obj
 0003:000e2348       ?width1@@3HA               101a4348     Hooks.obj
 0003:000e234c       ?height1@@3HA              101a434c     Hooks.obj
 0003:000e2350       ?CL_FullUpdate@@3P6AXXZA   101a4350     Hooks.obj
 0003:000e2354       ?defaultk@@3_NA            101a4354     Hooks.obj
 0003:000e2355       ?bayonet@@3_NA             101a4355     Hooks.obj
 0003:000e2356       ?flip@@3_NA                101a4356     Hooks.obj
 0003:000e2357       ?gut@@3_NA                 101a4357     Hooks.obj
 0003:000e2358       ?karambit@@3_NA            101a4358     Hooks.obj
 0003:000e2359       ?m9bayonet@@3_NA           101a4359     Hooks.obj
 0003:000e235a       ?huntsman@@3_NA            101a435a     Hooks.obj
 0003:000e235b       ?falchion@@3_NA            101a435b     Hooks.obj
 0003:000e235c       ?bowie@@3_NA               101a435c     Hooks.obj
 0003:000e235d       ?butterfly@@3_NA           101a435d     Hooks.obj
 0003:000e235e       ?daggers@@3_NA             101a435e     Hooks.obj
 0003:000e235f       ?shouldflip@Globals@@3_NA  101a435f     Hooks.obj
 0003:000e2360       ?Shots@Globals@@3HA        101a4360     Hooks.obj
 0003:000e2364       ?missedshots@Globals@@3HA  101a4364     Hooks.obj
 0003:000e2368       ?RealAngle@Globals@@3MA    101a4368     Hooks.obj
 0003:000e236c       ?FakeAngle@Globals@@3MA    101a436c     Hooks.obj
 0003:000e2370       ?ySwitch@Globals@@3_NA     101a4370     Hooks.obj
 0003:000e2371       ?error@Globals@@3_NA       101a4371     Hooks.obj
 0003:000e2374       ?NextTime@Globals@@3MA     101a4374     Hooks.obj
 0003:000e2378       ?fakeAngle@Globals@@3MA    101a4378     Hooks.obj
 0003:000e2380       ?OldSimulationTime@Globals@@3PAMA 101a4380     Hooks.obj
 0003:000e2488       ?m_RecordWaypoints@@3PAURecording_t@@A 101a4488     Hooks.obj
 0003:00514808       ?modelrender@hooks@@3Vvfunc_hook@@A 105d6808     Hooks.obj
 0003:00514818       ?prediction@hooks@@3Vvfunc_hook@@A 105d6818     Hooks.obj
 0003:00514828       ?eventmanager@hooks@@3Vvfunc_hook@@A 105d6828     Hooks.obj
 0003:00514838       ?d3d@hooks@@3Vvfunc_hook@@A 105d6838     Hooks.obj
 0003:00514848       ?clientmode@hooks@@3Vvfunc_hook@@A 105d6848     Hooks.obj
 0003:00514858       ?panel@hooks@@3Vvfunc_hook@@A 105d6858     Hooks.obj
 0003:00514868       ?EngineHook@hooks@@3Vvfunc_hook@@A 105d6868     Hooks.obj
 0003:00514880       ?engine@hooks@@3Vvfunc_hook@@A 105d6880     Hooks.obj
 0003:00514890       ?sv_cheats@hooks@@3Vvfunc_hook@@A 105d6890     Hooks.obj
 0003:005148a0       ?viewrender@hooks@@3Vvfunc_hook@@A 105d68a0     Hooks.obj
 0003:005148b0       ?surface@hooks@@3Vvfunc_hook@@A 105d68b0     Hooks.obj
 0003:005148c0       ?client@hooks@@3Vvfunc_hook@@A 105d68c0     Hooks.obj
 0003:005148d0       ?dwCAM_Think@@3PAEA        105d68d0     Hooks.obj
 0003:005148d4       ?AimPoint@Globals@@3VVector@@A 105d68d4     Hooks.obj
 0003:005148e8       ?qLastTickAngles@@3VVector@@A 105d68e8     Hooks.obj
 0003:005148f4       ?killIcons@@3V?$unordered_map@PADPADU?$hash@PAD@std@@U?$equal_to@PAD@2@V?$allocator@U?$pair@QADPAD@std@@@2@@std@@A 105d68f4     Hooks.obj
 0003:00514914       ?ServerRankRevealAll@?4??RankReveal@@YAXPAVCUserCmd@CInput@@@Z@4P6A_NPAH@ZA 105d6914     Hooks.obj
 0003:00514918       ?$TSS0@?4??RankReveal@@YAXPAVCUserCmd@CInput@@@Z@4HA 105d6918     Hooks.obj
 0003:0051491c       ?fArray@?7??RankReveal@@YAXPAVCUserCmd@CInput@@@Z@4PAHA 105d691c     Hooks.obj
 0003:005149d4       ?instance@?1??singleton@item_purchase@@SAPAV2@XZ@4PAV2@A 105d69d4     Hooks.obj
 0003:005149d8       ?$TSS0@?1??singleton@item_purchase@@SAPAV2@XZ@4HA 105d69d8     Hooks.obj
 0003:005149dc       ?log@?1??on_fire_event@item_purchase@@QAEXPAVIGameEvent@@_N@Z@4UAppLog@@A 105d69dc     Hooks.obj
 0003:005149f8       ?$TSS0@?1??on_fire_event@item_purchase@@QAEXPAVIGameEvent@@_N@Z@4HA 105d69f8     Hooks.obj
 0003:00514ab4       ?inst@?1??instance@?$singleton@Vvisuals@@@@SAAAVvisuals@@XZ@4V3@A 105d6ab4     Hooks.obj
 0003:00514ab8       ?$TSS0@?1??instance@?$singleton@Vvisuals@@@@SAAAVvisuals@@XZ@4HA 105d6ab8     Hooks.obj
 0003:00514ac0       ?inst@?1??instance@?$singleton@Vlegitbot@@@@SAAAVlegitbot@@XZ@4V3@A 105d6ac0     Hooks.obj
 0003:00514b28       ?$TSS0@?1??instance@?$singleton@Vlegitbot@@@@SAAAVlegitbot@@XZ@4HA 105d6b28     Hooks.obj
 0003:00514b2c       ?inst@?1??instance@?$singleton@Vragebot@@@@SAAAVragebot@@XZ@4V3@A 105d6b2c     Hooks.obj
 0003:00514b48       ?$TSS0@?1??instance@?$singleton@Vragebot@@@@SAAAVragebot@@XZ@4HA 105d6b48     Hooks.obj
 0003:00514b4c       ?inst@?1??instance@?$singleton@Vmisc@@@@SAAAVmisc@@XZ@4V3@A 105d6b4c     Hooks.obj
 0003:00514b50       ?$TSS0@?1??instance@?$singleton@Vmisc@@@@SAAAVmisc@@XZ@4HA 105d6b50     Hooks.obj
 0003:005185e4       ?g_CHLClient@@3PAVIBaseClientDLL@@A 105da5e4     Interfaces.obj
 0003:005185e8       ?g_Engine@@3PAVIVEngineClient@@A 105da5e8     Interfaces.obj
 0003:005185ec       ?g_Panel@@3PAVIPanel@@A    105da5ec     Interfaces.obj
 0003:005185f0       ?g_EntityList@@3PAVC_BaseEntityList@@A 105da5f0     Interfaces.obj
 0003:005185f4       ?g_Surface@@3PAVISurface@@A 105da5f4     Interfaces.obj
 0003:005185f8       ?g_DebugOverlay@@3PAVIVDebugOverlay@@A 105da5f8     Interfaces.obj
 0003:005185fc       ?g_ClientMode@@3PAVIClientMode@@A 105da5fc     Interfaces.obj
 0003:00518600       ?g_Globals@@3PAVCGlobalVarsBase@@A 105da600     Interfaces.obj
 0003:00518604       ?g_Prediction@@3PAVIPrediction@@A 105da604     Interfaces.obj
 0003:00518608       ?g_MaterialSystem@@3PAVCMaterialSystem@@A 105da608     Interfaces.obj
 0003:0051860c       ?g_RenderView@@3PAVCVRenderView@@A 105da60c     Interfaces.obj
 0003:00518610       ?g_ModelRender@@3PAVIVModelRender@@A 105da610     Interfaces.obj
 0003:00518614       ?g_ModelInfo@@3PAVCModelInfo@@A 105da614     Interfaces.obj
 0003:00518618       ?g_EngineTrace@@3PAVIEngineTrace@@A 105da618     Interfaces.obj
 0003:0051861c       ?g_PhysProps@@3PAVIPhysicsSurfaceProps@@A 105da61c     Interfaces.obj
 0003:00518620       ?g_CVar@@3PAVICVar@@A      105da620     Interfaces.obj
 0003:00518624       ?g_Dlight@@3PAVIVEffects@@A 105da624     Interfaces.obj
 0003:00518628       ?g_MoveHelper@@3PAVIMoveHelper@@A 105da628     Interfaces.obj
 0003:0051862c       ?g_GameMovement@@3PAVIGameMovement@@A 105da62c     Interfaces.obj
 0003:00518630       ?g_Input@@3PAVCInput@@A    105da630     Interfaces.obj
 0003:00518634       ?g_EventManager@@3PAVIGameEventManager2@@A 105da634     Interfaces.obj
 0003:00518638       ?g_PlayerResource@@3PAVC_CSPlayerResource@@A 105da638     Interfaces.obj
 0003:0051863c       ?g_GameRules@@3PAVC_CSGameRules@@A 105da63c     Interfaces.obj
 0003:00518640       ?g_ViewRender@@3PAVIViewRender@@A 105da640     Interfaces.obj
 0003:00518644       ?g_GameConsole@@3PAVIGameConsole@@A 105da644     Interfaces.obj
 0003:00518648       ?g_MdlCache@@3PAVIMDLCache@@A 105da648     Interfaces.obj
 0003:0051864c       ?g_ChatElement@@3PAVCHudChat@@A 105da64c     Interfaces.obj
 0003:00518650       ?g_GlowObjManager@@3PAVCGlowObjectManager@@A 105da650     Interfaces.obj
 0003:00518698       ?backtracking@@3PAVBackTrack@@A 105da698     LagComp.obj
 0003:005186a0       ?headPositions@@3PAY0M@UbacktrackData@@A 105da6a0     LagComp.obj
 0003:0051b6a8       ?shoot@@3_NA               105dd6a8     LegitBot.obj
 0003:0051b6c4       ?meme@?1??m_iShotsFired@C_BaseEntity@@QAEHXZ@4HA 105dd6c4     LegitBot.obj
 0003:0051b6c8       ?$TSS0@?1??m_iShotsFired@C_BaseEntity@@QAEHXZ@4HA 105dd6c8     LegitBot.obj
 0003:0051b6cc       ?fn@?1??RandomFloat@@YAMMM@Z@4P6AMMM@ZA 105dd6cc     LegitBot.obj
 0003:0051b6d0       ?$TSS0@?1??RandomFloat@@YAMMM@Z@4HA 105dd6d0     LegitBot.obj
 0003:0051b6d4       ?fn@?1??RandomSeed@@YAXH@Z@4P6AXH@ZA 105dd6d4     LegitBot.obj
 0003:0051b6d8       ?$TSS0@?1??RandomSeed@@YAXH@Z@4HA 105dd6d8     LegitBot.obj
 0003:0051b700       ?offsetz@@3UCOffsetz@@A    105dd700     memesets.obj
 0003:0051ba44       ?g_Netvars@@3PAVOffsetz@@A 105dda44     memesets.obj
 0003:0051ba50       ?iLastTime@@3HA            105dda50     Misc.obj
 0003:0051ba54       ?bDone@@3_NA               105dda54     Misc.obj
 0003:0051ba6c       ?ClanTagOffset@?1??setclantag@@YAXPBD@Z@4KA 105dda6c     Misc.obj
 0003:0051ba70       ?$TSS0@?1??setclantag@@YAXPBD@Z@4HA 105dda70     Misc.obj
 0003:0051ba74       ?dankesttSetClanTag@?4??setclantag@@YAXPBD@Z@4P6IX00@ZA 105dda74     Misc.obj
 0003:0051ba78       ?$TSS1@?4??setclantag@@YAXPBD@Z@4HA 105dda78     Misc.obj
 0003:0051bb10       ?NetVarManager@@3PAVCNetVarManager@@A 105ddb10     NetVarManager.obj
 0003:0051bb1c       ?me123@@3_NA               105ddb1c     RageBot.obj
 0003:0051bb6c       ?game_wndproc@@3P6GJPAUHWND__@@IIJ@ZA 105ddb6c     Renderer.obj
 0003:0051bb70       ?renderer@@3PAVRenderer@@A 105ddb70     Renderer.obj
 0003:0051bb74       ?g_Render@@3PAVRender@@A   105ddb74     Render.obj
 0003:0051bba0       ?shit@@3PADA               105ddba0     MiscFunctions.obj
 0003:0051bbb0       ?shit2@@3PADA              105ddbb0     MiscFunctions.obj
 0003:0051bbc0       ?entCopy@@3PAVC_BaseEntity@@A 105ddbc0     MiscFunctions.obj
 0003:0051bbd0       ?Trace@@3VCGameTrace@@A    105ddbd0     MiscFunctions.obj
 0003:0051bc58       ?FileLog@@3_NA             105ddc58     Utilities.obj
 0003:0051bc5c       ?id@?$codecvt@DDU_Mbstatet@@@std@@2V0locale@2@A 105ddc5c     Utilities.obj
 0003:0051bc60       ?_Stinit@?1??_Init@?$basic_filebuf@DU?$char_traits@D@std@@@std@@IAEXPAU_iobuf@@W4_Initfl@23@@Z@4U_Mbstatet@@A 105ddc60     Utilities.obj
 0003:0051bc68       ?_Psave@?$_Facetptr@V?$ctype@D@std@@@std@@2PBVfacet@locale@2@B 105ddc68     Utilities.obj
 0003:0051bc6c       ?_Flag@?1???$_Immortalize@V_Iostream_error_category@std@@@std@@YAAAV_Iostream_error_category@1@XZ@4PAXA 105ddc6c     Utilities.obj
 0003:0051bc70       ?_Storage@?1???$_Immortalize@V_Iostream_error_category@std@@@std@@YAAAV_Iostream_error_category@1@XZ@4T?$_Align_type@H$07@1@A 105ddc70     Utilities.obj
 0003:0051bc78       ?_Psave@?$_Facetptr@V?$codecvt@DDU_Mbstatet@@@std@@@std@@2PBVfacet@locale@2@B 105ddc78     Utilities.obj
 0003:0051bc7c       ___scrt_current_native_startup_state 105ddc7c     LIBCMT:utility.obj
 0003:0051bc80       ___scrt_native_startup_lock 105ddc80     LIBCMT:utility.obj
 0003:0051bcc8       __tls_index                105ddcc8     LIBCMT:tlssup.obj
 0003:0051bff0       ___isa_available           105ddff0     LIBCMT:_cpu_disp_.obj
 0003:0051bff4       ___favor                   105ddff4     LIBCMT:_cpu_disp_.obj
 0003:0051bff8       ___scrt_debugger_hook_flag 105ddff8     LIBCMT:utility_desktop.obj
 0003:0051c000       ?__type_info_root_node@@3U__type_info_node@@A 105de000     LIBCMT:tncleanup.obj
 0003:0051c008       ?_Index@ios_base@std@@0HA  105de008     libcpmt:ios.obj
 0003:0051c108       ?_Clocptr@_Locimp@locale@std@@0PAV123@A 105de108     libcpmt:locale0.obj
 0003:0051c114       ?_Id_cnt@id@locale@std@@0HA 105de114     libcpmt:locale0.obj
 0003:0051c118       ?id@?$ctype@G@std@@2V0locale@2@A 105de118     libcpmt:locale0.obj
 0003:0051c11c       ?id@?$codecvt@_WDU_Mbstatet@@@std@@2V0locale@2@A 105de11c     libcpmt:locale0.obj
 0003:0051c120       ?id@?$codecvt@GDU_Mbstatet@@@std@@2V0locale@2@A 105de120     libcpmt:locale0.obj
 0003:0051c124       ?id@?$ctype@_W@std@@2V0locale@2@A 105de124     libcpmt:locale0.obj
 0003:0051c128       ?id@?$ctype@D@std@@2V0locale@2@A 105de128     libcpmt:locale0.obj
 0003:0051c138       ?_Ptr_cin@std@@3PAV?$basic_istream@DU?$char_traits@D@std@@@1@A 105de138     libcpmt:iosptrs.obj
 0003:0051c13c       ?_Ptr_cout@std@@3PAV?$basic_ostream@DU?$char_traits@D@std@@@1@A 105de13c     libcpmt:iosptrs.obj
 0003:0051c140       ?_Ptr_cerr@std@@3PAV?$basic_ostream@DU?$char_traits@D@std@@@1@A 105de140     libcpmt:iosptrs.obj
 0003:0051c144       ?_Ptr_clog@std@@3PAV?$basic_ostream@DU?$char_traits@D@std@@@1@A 105de144     libcpmt:iosptrs.obj
 0003:0051c148       ?_Ptr_wcin@std@@3PAV?$basic_istream@_WU?$char_traits@_W@std@@@1@A 105de148     libcpmt:iosptrs.obj
 0003:0051c14c       ?_Ptr_wcout@std@@3PAV?$basic_ostream@_WU?$char_traits@_W@std@@@1@A 105de14c     libcpmt:iosptrs.obj
 0003:0051c150       ?_Ptr_wcerr@std@@3PAV?$basic_ostream@_WU?$char_traits@_W@std@@@1@A 105de150     libcpmt:iosptrs.obj
 0003:0051c154       ?_Ptr_wclog@std@@3PAV?$basic_ostream@_WU?$char_traits@_W@std@@@1@A 105de154     libcpmt:iosptrs.obj
 0003:0051c184       ?id@?$num_get@DV?$istreambuf_iterator@DU?$char_traits@D@std@@@std@@@std@@2V0locale@2@A 105de184     libcpmt:locale.obj
 0003:0051c188       ?id@?$num_put@DV?$ostreambuf_iterator@DU?$char_traits@D@std@@@std@@@std@@2V0locale@2@A 105de188     libcpmt:locale.obj
 0003:0051c18c       ?id@?$numpunct@D@std@@2V0locale@2@A 105de18c     libcpmt:locale.obj
 0003:0051c190       ___encodedKERNEL32Functions 105de190     libcpmt:winapisupp.obj
 0003:0051c230       ?id@?$time_put@_WV?$ostreambuf_iterator@_WU?$char_traits@_W@std@@@std@@@std@@2V0locale@2@A 105de230     libcpmt:wlocale.obj
 0003:0051c234       ?id@?$num_get@_WV?$istreambuf_iterator@_WU?$char_traits@_W@std@@@std@@@std@@2V0locale@2@A 105de234     libcpmt:wlocale.obj
 0003:0051c238       ?id@?$num_put@_WV?$ostreambuf_iterator@_WU?$char_traits@_W@std@@@std@@@std@@2V0locale@2@A 105de238     libcpmt:wlocale.obj
 0003:0051c23c       ?id@?$numpunct@_W@std@@2V0locale@2@A 105de23c     libcpmt:wlocale.obj
 0003:0051c240       ?id@?$collate@_W@std@@2V0locale@2@A 105de240     libcpmt:wlocale.obj
 0003:0051c244       ?id@?$messages@_W@std@@2V0locale@2@A 105de244     libcpmt:wlocale.obj
 0003:0051c248       ?id@?$money_get@_WV?$istreambuf_iterator@_WU?$char_traits@_W@std@@@std@@@std@@2V0locale@2@A 105de248     libcpmt:wlocale.obj
 0003:0051c24c       ?id@?$money_put@_WV?$ostreambuf_iterator@_WU?$char_traits@_W@std@@@std@@@std@@2V0locale@2@A 105de24c     libcpmt:wlocale.obj
 0003:0051c250       ?id@?$moneypunct@_W$0A@@std@@2V0locale@2@A 105de250     libcpmt:wlocale.obj
 0003:0051c254       ?id@?$moneypunct@_W$00@std@@2V0locale@2@A 105de254     libcpmt:wlocale.obj
 0003:0051c258       ?id@?$time_get@_WV?$istreambuf_iterator@_WU?$char_traits@_W@std@@@std@@@std@@2V0locale@2@A 105de258     libcpmt:wlocale.obj
 0003:0051c25c       ?id@?$num_get@GV?$istreambuf_iterator@GU?$char_traits@G@std@@@std@@@std@@2V0locale@2@A 105de25c     libcpmt:wlocale.obj
 0003:0051c260       ?id@?$num_put@GV?$ostreambuf_iterator@GU?$char_traits@G@std@@@std@@@std@@2V0locale@2@A 105de260     libcpmt:wlocale.obj
 0003:0051c264       ?id@?$numpunct@G@std@@2V0locale@2@A 105de264     libcpmt:wlocale.obj
 0003:0051c268       ?id@?$collate@G@std@@2V0locale@2@A 105de268     libcpmt:wlocale.obj
 0003:0051c26c       ?id@?$messages@G@std@@2V0locale@2@A 105de26c     libcpmt:wlocale.obj
 0003:0051c270       ?id@?$money_get@GV?$istreambuf_iterator@GU?$char_traits@G@std@@@std@@@std@@2V0locale@2@A 105de270     libcpmt:wlocale.obj
 0003:0051c274       ?id@?$money_put@GV?$ostreambuf_iterator@GU?$char_traits@G@std@@@std@@@std@@2V0locale@2@A 105de274     libcpmt:wlocale.obj
 0003:0051c278       ?id@?$moneypunct@G$0A@@std@@2V0locale@2@A 105de278     libcpmt:wlocale.obj
 0003:0051c27c       ?id@?$moneypunct@G$00@std@@2V0locale@2@A 105de27c     libcpmt:wlocale.obj
 0003:0051c280       ?id@?$time_get@GV?$istreambuf_iterator@GU?$char_traits@G@std@@@std@@@std@@2V0locale@2@A 105de280     libcpmt:wlocale.obj
 0003:0051c284       ?id@?$time_put@GV?$ostreambuf_iterator@GU?$char_traits@G@std@@@std@@@std@@2V0locale@2@A 105de284     libcpmt:wlocale.obj
 0003:0051c288       ?id@?$collate@D@std@@2V0locale@2@A 105de288     libcpmt:xlocale.obj
 0003:0051c28c       ?id@?$messages@D@std@@2V0locale@2@A 105de28c     libcpmt:xlocale.obj
 0003:0051c290       ?id@?$money_get@DV?$istreambuf_iterator@DU?$char_traits@D@std@@@std@@@std@@2V0locale@2@A 105de290     libcpmt:xlocale.obj
 0003:0051c294       ?id@?$money_put@DV?$ostreambuf_iterator@DU?$char_traits@D@std@@@std@@@std@@2V0locale@2@A 105de294     libcpmt:xlocale.obj
 0003:0051c298       ?id@?$moneypunct@D$0A@@std@@2V0locale@2@A 105de298     libcpmt:xlocale.obj
 0003:0051c29c       ?id@?$moneypunct@D$00@std@@2V0locale@2@A 105de29c     libcpmt:xlocale.obj
 0003:0051c2a0       ?id@?$time_get@DV?$istreambuf_iterator@DU?$char_traits@D@std@@@std@@@std@@2V0locale@2@A 105de2a0     libcpmt:xlocale.obj
 0003:0051c2a4       ?id@?$time_put@DV?$ostreambuf_iterator@DU?$char_traits@D@std@@@std@@@std@@2V0locale@2@A 105de2a4     libcpmt:xlocale.obj
 0003:0051c2a8       ?__WinRTOutOfMemoryExceptionCallback@@3P6GPAXXZA 105de2a8     libvcruntime:ehhelpers.obj
 0003:0051c2cc       ___pPurecall               105de2cc     libvcruntime:purevirt_data.obj
 0003:0051c314       ?pArgList@UnDecorator@@0PAVReplicator@@A 105de314     libvcruntime:undname.obj
 0003:0051c318       ?pZNameList@UnDecorator@@0PAVReplicator@@A 105de318     libvcruntime:undname.obj
 0003:0051c31c       ?pTemplateArgList@UnDecorator@@0PAVReplicator@@A 105de31c     libvcruntime:undname.obj
 0003:0051c320       ?gName@UnDecorator@@0PBDB  105de320     libvcruntime:undname.obj
 0003:0051c324       ?name@UnDecorator@@0PBDB   105de324     libvcruntime:undname.obj
 0003:0051c328       ?disableFlags@UnDecorator@@0KA 105de328     libvcruntime:undname.obj
 0003:0051c32c       ?fExplicitTemplateParams@UnDecorator@@0_NA 105de32c     libvcruntime:undname.obj
 0003:0051c32d       ?fGetTemplateArgumentList@UnDecorator@@0_NA 105de32d     libvcruntime:undname.obj
 0003:0051c330       ?m_pGetParameter@UnDecorator@@0P6APADJ@ZA 105de330     libvcruntime:undname.obj
 0003:0051c334       ?m_CHPENameOffset@UnDecorator@@0KA 105de334     libvcruntime:undname.obj
 0003:0051c338       ?m_recursionLevel@UnDecorator@@0KA 105de338     libvcruntime:undname.obj
 0003:0051c370       __nstream                  105de370     libucrt:_file.obj
 0003:0051c374       ___piob                    105de374     libucrt:_file.obj
 0003:0051c378       __cflush                   105de378     libucrt:_file.obj
 0003:0051c388       ?c_exit_complete@?1???R<lambda_6e4b09c48022b2350581041d5f6b0c4c>@@QBE@XZ@4_NA 105de388     libucrt:exit.obj
 0003:0051c498       __environ_table            105de498     libucrt:environment_initialization.obj
 0003:0051c49c       __wenviron_table           105de49c     libucrt:environment_initialization.obj
 0003:0051c4a0       ___dcrt_initial_wide_environment 105de4a0     libucrt:environment_initialization.obj
 0003:0051c4a4       ___dcrt_initial_narrow_environment 105de4a4     libucrt:environment_initialization.obj
 0003:0051c4a8       ___acrt_atexit_table       105de4a8     libucrt:onexit.obj
 0003:0051c4b4       ___acrt_at_quick_exit_table 105de4b4     libucrt:onexit.obj
 0003:0051c614       ___acrt_lconv_static_null  105de614     libucrt:localeconv.obj
 0003:0051c618       ___acrt_lconv_static_W_null 105de618     libucrt:localeconv.obj
 0003:0051c61c       ___acrt_locale_changed_data 105de61c     libucrt:wsetlocale.obj
 0003:0051c620       ___acrt_current_locale_data 105de620     libucrt:nlsdata.obj
 0003:0051c628       ___pioinfo                 105de628     libucrt:ioinit.obj
 0003:0051c828       __nhandle                  105de828     libucrt:ioinit.obj
 0003:0051c834       ___acrt_stdout_buffer      105de834     libucrt:_sftbuf.obj
 0003:0051c838       ___acrt_stderr_buffer      105de838     libucrt:_sftbuf.obj
 0003:0051c83c       ?_timezone@@3V?$dual_state_global@J@__crt_state_management@@A 105de83c     libucrt:timeset.obj
 0003:0051c840       ?_daylight@@3V?$dual_state_global@H@__crt_state_management@@A 105de840     libucrt:timeset.obj
 0003:0051c844       ?_dstbias@@3V?$dual_state_global@J@__crt_state_management@@A 105de844     libucrt:timeset.obj
 0003:0051c9e4       __mbctype                  105de9e4     libucrt:mbctype.obj
 0003:0051c9e8       __mbcasemap                105de9e8     libucrt:mbctype.obj
 0003:0051c9ec       ___acrt_current_multibyte_data 105de9ec     libucrt:mbctype.obj
 0003:0051c9f8       ___argc                    105de9f8     libucrt:argv_data.obj
 0003:0051c9fc       ___argv                    105de9fc     libucrt:argv_data.obj
 0003:0051ca00       ___wargv                   105dea00     libucrt:argv_data.obj
 0003:0051ca04       __acmdln                   105dea04     libucrt:argv_data.obj
 0003:0051ca08       __wcmdln                   105dea08     libucrt:argv_data.obj
 0003:0051ca0c       __pgmptr                   105dea0c     libucrt:argv_data.obj
 0003:0051ca10       ___acrt_heap               105dea10     libucrt:heap_handle.obj
 0003:0051ca2c       ___fastflag                105dea2c     libucrt:fp_flags.obj
 0003:0051ca30       __commode                  105dea30     libucrt:ncommode.obj
 0003:0051ca38       __umaskval                 105dea38     libucrt:umask.obj
 0003:0051ca3c       __fmode                    105dea3c     libucrt:txtmode.obj
 0003:0051ca40       ___dyn_tls_init_callback   105dea40     <common>
 0003:0051ca44       ___scrt_ucrt_dll_is_in_use 105dea44     <common>
 0003:0051ca48       ___use_sse2_mathfcns       105dea48     <common>
 0003:0051ca4c       __pmatherr                 105dea4c     <common>

 entry point at        0001:000727e1

 Static symbols

 0000:ffa11000       .debug$S                   10000000     kernel32:KERNEL32.dll
 0000:ffa11000       .debug$S                   10000000     kernel32:KERNEL32.dll
 0000:ffa11000       .debug$S                   10000000     kernel32:KERNEL32.dll
 0000:ffa11000       .debug$S                   10000000     kernel32:KERNEL32.dll
 0000:ffa11000       .debug$S                   10000000     kernel32:KERNEL32.dll
 0000:ffa11000       .debug$S                   10000000     kernel32:KERNEL32.dll
 0000:ffa11000       .debug$S                   10000000     kernel32:KERNEL32.dll
 0000:ffa11000       .debug$S                   10000000     kernel32:KERNEL32.dll
 0000:ffa11000       .debug$S                   10000000     kernel32:KERNEL32.dll
 0000:ffa11000       .debug$S                   10000000     kernel32:KERNEL32.dll
 0000:ffa11000       .debug$S                   10000000     kernel32:KERNEL32.dll
 0000:ffa11000       .debug$S                   10000000     user32:USER32.dll
 0000:ffa11000       .debug$S                   10000000     kernel32:KERNEL32.dll
 0000:ffa11000       .debug$S                   10000000     kernel32:KERNEL32.dll
 0000:ffa11000       .debug$S                   10000000     kernel32:KERNEL32.dll
 0000:ffa11000       .debug$S                   10000000     kernel32:KERNEL32.dll
 0000:ffa11000       .debug$S                   10000000     kernel32:KERNEL32.dll
 0000:ffa11000       .debug$S                   10000000     kernel32:KERNEL32.dll
 0000:ffa11000       .debug$S                   10000000     kernel32:KERNEL32.dll
 0000:ffa11000       .debug$S                   10000000     kernel32:KERNEL32.dll
 0000:ffa11000       .debug$S                   10000000     kernel32:KERNEL32.dll
 0000:ffa11000       .debug$S                   10000000     kernel32:KERNEL32.dll
 0000:ffa11000       .debug$S                   10000000     kernel32:KERNEL32.dll
 0000:ffa11000       .debug$S                   10000000     kernel32:KERNEL32.dll
 0000:ffa11000       .debug$S                   10000000     kernel32:KERNEL32.dll
 0000:ffa11000       .debug$S                   10000000     kernel32:KERNEL32.dll
 0000:ffa11000       .debug$S                   10000000     kernel32:KERNEL32.dll
 0000:ffa11000       .debug$S                   10000000     kernel32:KERNEL32.dll
 0000:ffa11000       .debug$S                   10000000     kernel32:KERNEL32.dll
 0000:ffa11000       .debug$S                   10000000     kernel32:KERNEL32.dll
 0000:ffa11000       .debug$S                   10000000     kernel32:KERNEL32.dll
 0000:ffa11000       .debug$S                   10000000     kernel32:KERNEL32.dll
 0000:ffa11000       .debug$S                   10000000     kernel32:KERNEL32.dll
 0000:ffa11000       .debug$S                   10000000     kernel32:KERNEL32.dll
 0000:ffa11000       .debug$S                   10000000     kernel32:KERNEL32.dll
 0000:ffa11000       .debug$S                   10000000     kernel32:KERNEL32.dll
 0000:ffa11000       .debug$S                   10000000     kernel32:KERNEL32.dll
 0000:ffa11000       .debug$S                   10000000     kernel32:KERNEL32.dll
 0000:ffa11000       .debug$S                   10000000     kernel32:KERNEL32.dll
 0000:ffa11000       .debug$S                   10000000     kernel32:KERNEL32.dll
 0000:ffa11000       .debug$S                   10000000     kernel32:KERNEL32.dll
 0000:ffa11000       .debug$S                   10000000     kernel32:KERNEL32.dll
 0000:ffa11000       .debug$S                   10000000     kernel32:KERNEL32.dll
 0000:ffa11000       .debug$S                   10000000     kernel32:KERNEL32.dll
 0000:ffa11000       .debug$S                   10000000     kernel32:KERNEL32.dll
 0000:ffa11000       .debug$S                   10000000     kernel32:KERNEL32.dll
 0000:ffa11000       .debug$S                   10000000     kernel32:KERNEL32.dll
 0000:ffa11000       .debug$S                   10000000     kernel32:KERNEL32.dll
 0000:ffa11000       .debug$S                   10000000     kernel32:KERNEL32.dll
 0000:ffa11000       .debug$S                   10000000     kernel32:KERNEL32.dll
 0000:ffa11000       .debug$S                   10000000     kernel32:KERNEL32.dll
 0000:ffa11000       .debug$S                   10000000     kernel32:KERNEL32.dll
 0000:ffa11000       .debug$S                   10000000     kernel32:KERNEL32.dll
 0000:ffa11000       .debug$S                   10000000     kernel32:KERNEL32.dll
 0000:ffa11000       .debug$S                   10000000     kernel32:KERNEL32.dll
 0000:ffa11000       .debug$S                   10000000     kernel32:KERNEL32.dll
 0000:ffa11000       .debug$S                   10000000     kernel32:KERNEL32.dll
 0000:ffa11000       .debug$S                   10000000     kernel32:KERNEL32.dll
 0000:ffa11000       .debug$S                   10000000     kernel32:KERNEL32.dll
 0000:ffa11000       .debug$S                   10000000     kernel32:KERNEL32.dll
 0000:ffa11000       .debug$S                   10000000     kernel32:KERNEL32.dll
 0000:ffa11000       .debug$S                   10000000     kernel32:KERNEL32.dll
 0000:ffa11000       .debug$S                   10000000     kernel32:KERNEL32.dll
 0000:ffa11000       .debug$S                   10000000     kernel32:KERNEL32.dll
 0000:ffa11000       .debug$S                   10000000     kernel32:KERNEL32.dll
 0000:ffa11000       .debug$S                   10000000     kernel32:KERNEL32.dll
 0000:ffa11000       .debug$S                   10000000     kernel32:KERNEL32.dll
 0000:ffa11000       .debug$S                   10000000     kernel32:KERNEL32.dll
 0000:ffa11000       .debug$S                   10000000     kernel32:KERNEL32.dll
 0000:ffa11000       .debug$S                   10000000     kernel32:KERNEL32.dll
 0000:ffa11000       .debug$S                   10000000     kernel32:KERNEL32.dll
 0000:ffa11000       .debug$S                   10000000     kernel32:KERNEL32.dll
 0000:ffa11000       .debug$S                   10000000     kernel32:KERNEL32.dll
 0000:ffa11000       .debug$S                   10000000     kernel32:KERNEL32.dll
 0000:ffa11000       .debug$S                   10000000     kernel32:KERNEL32.dll
 0000:ffa11000       .debug$S                   10000000     kernel32:KERNEL32.dll
 0000:ffa11000       .debug$S                   10000000     kernel32:KERNEL32.dll
 0000:ffa11000       .debug$S                   10000000     kernel32:KERNEL32.dll
 0000:ffa11000       .debug$S                   10000000     kernel32:KERNEL32.dll
 0000:ffa11000       .debug$S                   10000000     kernel32:KERNEL32.dll
 0000:ffa11000       .debug$S                   10000000     kernel32:KERNEL32.dll
 0000:ffa11000       .debug$S                   10000000     kernel32:KERNEL32.dll
 0000:ffa11000       .debug$S                   10000000     kernel32:KERNEL32.dll
 0000:ffa11000       .debug$S                   10000000     kernel32:KERNEL32.dll
 0000:ffa11000       .debug$S                   10000000     kernel32:KERNEL32.dll
 0000:ffa11000       .debug$S                   10000000     kernel32:KERNEL32.dll
 0000:ffa11000       .debug$S                   10000000     kernel32:KERNEL32.dll
 0000:ffa11000       .debug$S                   10000000     kernel32:KERNEL32.dll
 0000:ffa11000       .debug$S                   10000000     kernel32:KERNEL32.dll
 0000:ffa11000       .debug$S                   10000000     kernel32:KERNEL32.dll
 0000:ffa11000       .debug$S                   10000000     kernel32:KERNEL32.dll
 0000:ffa11000       .debug$S                   10000000     kernel32:KERNEL32.dll
 0000:ffa11000       .debug$S                   10000000     kernel32:KERNEL32.dll
 0000:ffa11000       .debug$S                   10000000     kernel32:KERNEL32.dll
 0000:ffa11000       .debug$S                   10000000     kernel32:KERNEL32.dll
 0000:ffa11000       .debug$S                   10000000     kernel32:KERNEL32.dll
 0000:ffa11000       .debug$S                   10000000     kernel32:KERNEL32.dll
 0000:ffa11000       .debug$S                   10000000     kernel32:KERNEL32.dll
 0000:ffa11000       .debug$S                   10000000     kernel32:KERNEL32.dll
 0000:ffa11000       .debug$S                   10000000     kernel32:KERNEL32.dll
 0000:ffa11000       .debug$S                   10000000     kernel32:KERNEL32.dll
 0000:ffa11000       .debug$S                   10000000     kernel32:KERNEL32.dll
 0000:ffa11000       .debug$S                   10000000     kernel32:KERNEL32.dll
 0000:ffa11000       .debug$S                   10000000     kernel32:KERNEL32.dll
 0000:ffa11000       .debug$S                   10000000     kernel32:KERNEL32.dll
 0000:ffa11000       .debug$S                   10000000     user32:USER32.dll
 0000:ffa11000       .debug$S                   10000000     user32:USER32.dll
 0000:ffa11000       .debug$S                   10000000     kernel32:KERNEL32.dll
 0000:ffa11000       .debug$S                   10000000     user32:USER32.dll
 0000:ffa11000       .debug$S                   10000000     kernel32:KERNEL32.dll
 0000:ffa11000       .debug$S                   10000000     kernel32:KERNEL32.dll
 0000:ffa11000       .debug$S                   10000000     kernel32:KERNEL32.dll
 0000:ffa11000       .debug$S                   10000000     winmm:WINMM.dll
 0000:ffa11000       .debug$S                   10000000     kernel32:KERNEL32.dll
 0000:ffa11000       .debug$S                   10000000     imm32:IMM32.dll
 0000:ffa11000       .debug$S                   10000000     imm32:IMM32.dll
 0000:ffa11000       .debug$S                   10000000     shell32:SHELL32.dll
 0000:ffa11000       .debug$S                   10000000     user32:USER32.dll
 0000:ffa11000       .debug$S                   10000000     user32:USER32.dll
 0000:ffa11000       .debug$S                   10000000     user32:USER32.dll
 0000:ffa11000       .debug$S                   10000000     user32:USER32.dll
 0000:ffa11000       .debug$S                   10000000     user32:USER32.dll
 0000:ffa11000       .debug$S                   10000000     user32:USER32.dll
 0000:ffa11000       .debug$S                   10000000     user32:USER32.dll
 0000:ffa11000       .debug$S                   10000000     user32:USER32.dll
 0000:ffa11000       .debug$S                   10000000     kernel32:KERNEL32.dll
 0001:00000000       ??__EItemDefinitionIndexMap@@YAXXZ 10001000 f   recvproxy.obj
 0001:00001050       ??__EItemDefinitionIndexMap@@YAXXZ 10002050 f   Autowall.obj
 0001:000020a0       ??__EItemDefinitionIndexMap@@YAXXZ 100030a0 f   Chams.obj
 0001:000030f0       ??__EConfig@@YAXXZ         100040f0 f   Configuration.obj
 0001:000031b0       ??__EItemDefinitionIndexMap@@YAXXZ 100041b0 f   Configuration.obj
 0001:00004200       ??__Eg_Options@@YAXXZ      10005200 f   Configuration.obj
 0001:00004220       ??__EItemDefinitionIndexMap@@YAXXZ 10005220 f   DLLMain.obj
 0001:00005270       ??__EItemDefinitionIndexMap@@YAXXZ 10006270 f   EnginePrediction.obj
 0001:000062c0       ??__EItemDefinitionIndexMap@@YAXXZ 100072c0 f   ESP.obj
 0001:00007310       ??__EItemDefinitionIndexMap@@YAXXZ 10008310 f   Global.obj
 0001:00008360       ??__EMsg@G@@YAXXZ          10009360 f   Global.obj
 0001:00008380       ??__EItemDefinitionIndexMap@@YAXXZ 10009380 f   GrenadePrediction.obj
 0001:000093d0       ??__EEngineHook@hooks@@YAXXZ 1000a3d0 f   Hooks.obj
 0001:000093f0       ??__EItemDefinitionIndexMap@@YAXXZ 1000a3f0 f   Hooks.obj
 0001:0000a440       ??__Eclient@hooks@@YAXXZ   1000b440 f   Hooks.obj
 0001:0000a460       ??__Eclientmode@hooks@@YAXXZ 1000b460 f   Hooks.obj
 0001:0000a480       ??__Ed3d@hooks@@YAXXZ      1000b480 f   Hooks.obj
 0001:0000a4a0       ??__EdwCAM_Think@@YAXXZ    1000b4a0 f   Hooks.obj
 0001:0000a4c0       ??__Eengine@hooks@@YAXXZ   1000b4c0 f   Hooks.obj
 0001:0000a4e0       ??__Eeventmanager@hooks@@YAXXZ 1000b4e0 f   Hooks.obj
 0001:0000a500       ??__EkillIcons@@YAXXZ      1000b500 f   Hooks.obj
 0001:0000a5c0       ??__Em_RecordWaypoints@@YAXXZ 1000b5c0 f   Hooks.obj
 0001:0000a5e0       ??__Emodelrender@hooks@@YAXXZ 1000b5e0 f   Hooks.obj
 0001:0000a600       ??__Epanel@hooks@@YAXXZ    1000b600 f   Hooks.obj
 0001:0000a620       ??__Eprediction@hooks@@YAXXZ 1000b620 f   Hooks.obj
 0001:0000a640       ??__Epurchase@@YAXXZ       1000b640 f   Hooks.obj
 0001:0000a650       ??__Esurface@hooks@@YAXXZ  1000b650 f   Hooks.obj
 0001:0000a670       ??__Esv_cheats@hooks@@YAXXZ 1000b670 f   Hooks.obj
 0001:0000a690       ??__Eviewrender@hooks@@YAXXZ 1000b690 f   Hooks.obj
 0001:0000a6b0       ??__EGImDefaultContext@@YAXXZ 1000b6b0 f   imgui.obj
 0001:0000a6d0       ??__EGImDefaultFontAtlas@@YAXXZ 1000b6d0 f   imgui.obj
 0001:0000a6f0       ??__EItemDefinitionIndexMap@@YAXXZ 1000b6f0 f   Interfaces.obj
 0001:0000b750       ??__EItemDefinitionIndexMap@@YAXXZ 1000c750 f   LagComp.obj
 0001:0000c7a0       ??__Ebacktracking@@YAXXZ   1000d7a0 f   LagComp.obj
 0001:0000c7f0       ??__Esequences@@YAXXZ      1000d7f0 f   LagComp.obj
 0001:0000c830       ??__EItemDefinitionIndexMap@@YAXXZ 1000d830 f   LegitBot.obj
 0001:0000d880       ??__EItemDefinitionIndexMap@@YAXXZ 1000e880 f   memesets.obj
 0001:0000e8d0       ??__Eg_Netvars@@YAXXZ      1000f8d0 f   memesets.obj
 0001:0000e8e0       ??__EItemDefinitionIndexMap@@YAXXZ 1000f8e0 f   Misc.obj
 0001:0000f930       ??__Eanimatedclantag@@YAXXZ 10010930 f   Misc.obj
 0001:0000f940       ??__EItemDefinitionIndexMap@@YAXXZ 10010940 f   NetVarManager.obj
 0001:00010990       ??__ENetVarManager@@YAXXZ  10011990 f   NetVarManager.obj
 0001:000109d0       ??__EItemDefinitionIndexMap@@YAXXZ 100119d0 f   RageBot.obj
 0001:00011a20       ??__Erenderer@@YAXXZ       10012a20 f   Renderer.obj
 0001:00011a50       ??__EItemDefinitionIndexMap@@YAXXZ 10012a50 f   Render.obj
 0001:00012aa0       ??__Eg_Render@@YAXXZ       10013aa0 f   Render.obj
 0001:00012ab0       ??__EItemDefinitionIndexMap@@YAXXZ 10013ab0 f   SpoofedConvar.obj
 0001:00013b00       ??__EItemDefinitionIndexMap@@YAXXZ 10014b00 f   MiscFunctions.obj
 0001:00014b50       ??__ElogFile@@YAXXZ        10015b50 f   Utilities.obj
 0001:00014cd2       ??__Einitlocks@std@@YAXXZ  10015cd2 f   libcpmt:xlock.obj
 0001:00014ce8       ??__E_Fac_tidy_reg@std@@YAXXZ 10015ce8 f   libcpmt:locale0.obj
 0001:00014cf4       ??__Eclassic_locale@std@@YAXXZ 10015cf4 f   libcpmt:locale0.obj
 0001:00014d00       ??__Einit_atexit@@YAXXZ    10015d00 f   libcpmt:iosptrs.obj
 0001:00014d0c       ??__Einitlocks@std@@YAXXZ  10015d0c f   libcpmt:iosptrs.obj
 0001:000160c7       __catch$??$_Construct@PA_S@?$basic_string@DU?$char_traits@D@std@@V?$allocator@D@2@@std@@QAEXPA_SQA_SUinput_iterator_tag@1@@Z$0 100170c7 f i Parser.obj
 0001:000160e0       ??$_Unfancy@VText@?1??DrawInfo@visuals@@AAEXUtagRECT@@PAVC_BaseEntity@@1@Z@@std@@YAPAVText@?1??DrawInfo@visuals@@AAEXUtagRECT@@PAVC_BaseEntity@@1@Z@PAV1?1??23@AAEX011@Z@@Z 100170e0 f i ESP.obj
 0001:00016357       __catch$??$emplace_back@ABV?$shared_ptr@VNode@valve_parser@@@std@@@?$vector@V?$shared_ptr@VNode@valve_parser@@@std@@V?$allocator@V?$shared_ptr@VNode@valve_parser@@@std@@@2@@std@@QAEXABV?$shared_ptr@VNode@valve_parser@@@1@@Z$0 10017357 f i Parser.obj
 0001:00016480       ??1Text@?1??DrawInfo@visuals@@AAEXUtagRECT@@PAVC_BaseEntity@@1@Z@QAE@XZ 10017480 f i ESP.obj
 0001:00016c30       _no_op_initialize          10017c30 f i libucrt:wsetlocale.obj
 0001:00016ea0       ?_Xlength@?$vector@VText@?1??DrawInfo@visuals@@AAEXUtagRECT@@PAVC_BaseEntity@@1@Z@V?$allocator@VText@?1??DrawInfo@visuals@@AAEXUtagRECT@@PAVC_BaseEntity@@1@Z@@std@@@std@@CAXXZ 10017ea0 f i ESP.obj
 0001:000179cc       __catch$??$_Insert_hint@AAU?$pair@$$CBW4ItemDefinitionIndexx@@UDefItem_t@@@std@@PAU?$_Tree_node@U?$pair@$$CBW4ItemDefinitionIndexx@@UDefItem_t@@@std@@PAX@2@@?$_Tree@V?$_Tmap_traits@W4ItemDefinitionIndexx@@UDefItem_t@@U?$less@W4ItemDefinitionIndexx@@@std@@V?$allocator@U?$pair@$$CBW4ItemDefinitionIndexx@@UDefItem_t@@@std@@@4@$0A@@std@@@std@@IAE?AV?$_Tree_iterator@V?$_Tree_val@U?$_Tree_simple_types@U?$pair@$$CBW4ItemDefinitionIndexx@@UDefItem_t@@@std@@@std@@@std@@@1@V?$_Tree_const_iterator@V?$_Tree_val@U?$_Tree_simple_types@U?$pair@$$CBW4ItemDefinitionIndexx@@UDefItem_t@@@std@@@std@@@std@@@1@AAU?$pair@$$CBW4ItemDefinitionIndexx@@UDefItem_t@@@1@PAU?$_Tree_node@U?$pair@$$CBW4ItemDefinitionIndexx@@UDefItem_t@@@std@@PAX@1@@Z$0 100189cc f i recvproxy.obj
 0001:00017b4b       __catch$??$_Insert_nohint@AAU?$pair@$$CBW4ItemDefinitionIndexx@@UDefItem_t@@@std@@PAU?$_Tree_node@U?$pair@$$CBW4ItemDefinitionIndexx@@UDefItem_t@@@std@@PAX@2@@?$_Tree@V?$_Tmap_traits@W4ItemDefinitionIndexx@@UDefItem_t@@U?$less@W4ItemDefinitionIndexx@@@std@@V?$allocator@U?$pair@$$CBW4ItemDefinitionIndexx@@UDefItem_t@@@std@@@4@$0A@@std@@@std@@IAE?AU?$pair@V?$_Tree_iterator@V?$_Tree_val@U?$_Tree_simple_types@U?$pair@$$CBW4ItemDefinitionIndexx@@UDefItem_t@@@std@@@std@@@std@@@std@@_N@1@_NAAU?$pair@$$CBW4ItemDefinitionIndexx@@UDefItem_t@@@1@PAU?$_Tree_node@U?$pair@$$CBW4ItemDefinitionIndexx@@UDefItem_t@@@std@@PAX@1@@Z$0 10018b4b f i recvproxy.obj
 0001:0001840c       $LN208                     1001940c     recvproxy.obj
 0001:00018420       $LN185                     10019420     recvproxy.obj
 0001:00018430       $LN209                     10019430     recvproxy.obj
 0001:00018448       $LN191                     10019448     recvproxy.obj
 0001:000193fc       $LN81                      1001a3fc     Autowall.obj
 0001:00019418       $LN82                      1001a418     Autowall.obj
 0001:000198a0       ??$_Reallocate_grow_by@V<lambda_4d79bb85f269e6e8002a4599002d832c>@@IPBDI@?$basic_string@DU?$char_traits@D@std@@V?$allocator@D@2@@std@@QAEAAV01@IV<lambda_4d79bb85f269e6e8002a4599002d832c>@@IPBDI@Z 1001a8a0 f   ESP.obj
 0001:000198a0       ??$_Reallocate_grow_by@V<lambda_4d79bb85f269e6e8002a4599002d832c>@@IPBDI@?$basic_string@DU?$char_traits@D@std@@V?$allocator@D@2@@std@@QAEAAV01@IV<lambda_4d79bb85f269e6e8002a4599002d832c>@@IPBDI@Z 1001a8a0 f   Configuration.obj
 0001:00019a10       ??$_Reallocate_grow_by@V<lambda_ab246b20b9526e2ef7792587e4298a77>@@PBDI@?$basic_string@DU?$char_traits@D@std@@V?$allocator@D@2@@std@@QAEAAV01@IV<lambda_ab246b20b9526e2ef7792587e4298a77>@@PBDI@Z 1001aa10 f   Utilities.obj
 0001:00019a10       ??$_Reallocate_grow_by@V<lambda_ab246b20b9526e2ef7792587e4298a77>@@PBDI@?$basic_string@DU?$char_traits@D@std@@V?$allocator@D@2@@std@@QAEAAV01@IV<lambda_ab246b20b9526e2ef7792587e4298a77>@@PBDI@Z 1001aa10 f   Hooks.obj
 0001:00019a10       ??$_Reallocate_grow_by@V<lambda_ab246b20b9526e2ef7792587e4298a77>@@PBDI@?$basic_string@DU?$char_traits@D@std@@V?$allocator@D@2@@std@@QAEAAV01@IV<lambda_ab246b20b9526e2ef7792587e4298a77>@@PBDI@Z 1001aa10 f   Configuration.obj
 0001:00019b60       ??$_Reallocate_grow_by@V<lambda_c1b8c41cb4019640539cfd828748c4d4>@@ID@?$basic_string@DU?$char_traits@D@std@@V?$allocator@D@2@@std@@QAEAAV01@IV<lambda_c1b8c41cb4019640539cfd828748c4d4>@@ID@Z 1001ab60 f   Configuration.obj
 0001:00019b60       ??$_Reallocate_grow_by@V<lambda_c1b8c41cb4019640539cfd828748c4d4>@@ID@?$basic_string@DU?$char_traits@D@std@@V?$allocator@D@2@@std@@QAEAAV01@IV<lambda_c1b8c41cb4019640539cfd828748c4d4>@@ID@Z 1001ab60 f   Utilities.obj
 0001:0001aedc       $LN53                      1001bedc     Configuration.obj
 0001:0001af68       $LN51                      1001bf68     Configuration.obj
 0001:0001afa8       $LN54                      1001bfa8     Configuration.obj
 0001:0001bd20       $LN1685                    1001cd20     Configuration.obj
 0001:0001cb6c       $LN1888                    1001db6c     Configuration.obj
 0001:000218de       __catch$?_Reallocate_exactly@?$vector@V?$_List_unchecked_iterator@V?$_List_val@U?$_List_simple_types@U?$pair@$$CBV?$basic_string@DU?$char_traits@D@std@@V?$allocator@D@2@@std@@UskinInfo@@@std@@@std@@@std@@@std@@V?$allocator@V?$_List_unchecked_iterator@V?$_List_val@U?$_List_simple_types@U?$pair@$$CBV?$basic_string@DU?$char_traits@D@std@@V?$allocator@D@2@@std@@UskinInfo@@@std@@@std@@@std@@@std@@@2@@std@@AAEXI@Z$0 100228de f i Configuration.obj
 0001:000218de       __catch$?_Reallocate_exactly@?$vector@V?$_List_unchecked_iterator@V?$_List_val@U?$_List_simple_types@U?$pair@$$CBV?$basic_string@DU?$char_traits@D@std@@V?$allocator@D@2@@std@@V?$set@V?$basic_string@DU?$char_traits@D@std@@V?$allocator@D@2@@std@@U?$less@V?$basic_string@DU?$char_traits@D@std@@V?$allocator@D@2@@std@@@2@V?$allocator@V?$basic_string@DU?$char_traits@D@std@@V?$allocator@D@2@@std@@@2@@2@@std@@@std@@@std@@@std@@V?$allocator@V?$_List_unchecked_iterator@V?$_List_val@U?$_List_simple_types@U?$pair@$$CBV?$basic_string@DU?$char_traits@D@std@@V?$allocator@D@2@@std@@V?$set@V?$basic_string@DU?$char_traits@D@std@@V?$allocator@D@2@@std@@U?$less@V?$basic_string@DU?$char_traits@D@std@@V?$allocator@D@2@@std@@@2@V?$allocator@V?$basic_string@DU?$char_traits@D@std@@V?$allocator@D@2@@std@@@2@@2@@std@@@std@@@std@@@std@@@2@@std@@AAEXI@Z$0 100228de f i Configuration.obj
 0001:000218de       __catch$?_Reallocate_exactly@?$vector@V?$_List_unchecked_iterator@V?$_List_val@U?$_List_simple_types@U?$pair@QADPAD@std@@@std@@@std@@@std@@V?$allocator@V?$_List_unchecked_iterator@V?$_List_val@U?$_List_simple_types@U?$pair@QADPAD@std@@@std@@@std@@@std@@@2@@std@@AAEXI@Z$0 100228de f i Hooks.obj
 0001:000218de       __catch$?_Reallocate_exactly@?$vector@V?$_List_unchecked_iterator@V?$_List_val@U?$_List_simple_types@U?$pair@$$CBV?$basic_string@DU?$char_traits@D@std@@V?$allocator@D@2@@std@@V12@@std@@@std@@@std@@@std@@V?$allocator@V?$_List_unchecked_iterator@V?$_List_val@U?$_List_simple_types@U?$pair@$$CBV?$basic_string@DU?$char_traits@D@std@@V?$allocator@D@2@@std@@V12@@std@@@std@@@std@@@std@@@2@@std@@AAEXI@Z$0 100228de f i Configuration.obj
 0001:00021e50       ??$_Uninitialized_move_al_unchecked@PAVText@?1??DrawInfo@visuals@@AAEXUtagRECT@@PAVC_BaseEntity@@1@Z@PAV1?1??23@AAEX011@Z@V?$allocator@VText@?1??DrawInfo@visuals@@AAEXUtagRECT@@PAVC_BaseEntity@@1@Z@@std@@@std@@YAPAVText@?1??DrawInfo@visuals@@AAEXUtagRECT@@PAVC_BaseEntity@@1@Z@PAV1?1??23@AAEX011@Z@22AAV?$allocator@VText@?1??DrawInfo@visuals@@AAEXUtagRECT@@PAVC_BaseEntity@@1@Z@@0@U_General_ptr_iterator_tag@0@U_Unused_parameter@0@@Z 10022e50 f   ESP.obj
 0001:00021ed0       ??$destroy@VText@?1??DrawInfo@visuals@@AAEXUtagRECT@@PAVC_BaseEntity@@1@Z@@?$_Default_allocator_traits@V?$allocator@VText@?1??DrawInfo@visuals@@AAEXUtagRECT@@PAVC_BaseEntity@@1@Z@@std@@@std@@SAXAAV?$allocator@VText@?1??DrawInfo@visuals@@AAEXUtagRECT@@PAVC_BaseEntity@@1@Z@@1@QAVText@?1??DrawInfo@visuals@@AAEXUtagRECT@@PAVC_BaseEntity@@2@Z@@Z 10022ed0 f   ESP.obj
 0001:00021f20       ??$emplace_back@VText@?1??DrawInfo@visuals@@AAEXUtagRECT@@PAVC_BaseEntity@@1@Z@@?$vector@VText@?1??DrawInfo@visuals@@AAEXUtagRECT@@PAVC_BaseEntity@@1@Z@V?$allocator@VText@?1??DrawInfo@visuals@@AAEXUtagRECT@@PAVC_BaseEntity@@1@Z@@std@@@std@@QAEX$$QAVText@?1??DrawInfo@visuals@@AAEXUtagRECT@@PAVC_BaseEntity@@1@Z@@Z 10022f20 f   ESP.obj
 0001:0002215d       __catch$??$emplace_back@VText@?1??DrawInfo@visuals@@AAEXUtagRECT@@PAVC_BaseEntity@@1@Z@@?$vector@VText@?1??DrawInfo@visuals@@AAEXUtagRECT@@PAVC_BaseEntity@@1@Z@V?$allocator@VText@?1??DrawInfo@visuals@@AAEXUtagRECT@@PAVC_BaseEntity@@1@Z@@std@@@std@@QAEX$$QAVText@?1??DrawInfo@visuals@@AAEXUtagRECT@@PAVC_BaseEntity@@1@Z@@Z$0 1002315d f   ESP.obj
 0001:000221d0       ??0Text@?1??DrawInfo@visuals@@AAEXUtagRECT@@PAVC_BaseEntity@@1@Z@QAE@V?$basic_string@DU?$char_traits@D@std@@V?$allocator@D@2@@std@@HHVColor@@@Z 100231d0 f   ESP.obj
 0001:00022280       ??1?$vector@VText@?1??DrawInfo@visuals@@AAEXUtagRECT@@PAVC_BaseEntity@@1@Z@V?$allocator@VText@?1??DrawInfo@visuals@@AAEXUtagRECT@@PAVC_BaseEntity@@1@Z@@std@@@std@@QAE@XZ 10023280 f   ESP.obj
 0001:000240c0       $LN1642                    100250c0     ESP.obj
 0001:00024164       $LN1613                    10025164     ESP.obj
 0001:00027780       ?_Destroy@?$vector@VText@?1??DrawInfo@visuals@@AAEXUtagRECT@@PAVC_BaseEntity@@1@Z@V?$allocator@VText@?1??DrawInfo@visuals@@AAEXUtagRECT@@PAVC_BaseEntity@@1@Z@@std@@@std@@AAEXPAVText@?1??DrawInfo@visuals@@AAEXUtagRECT@@PAVC_BaseEntity@@1@Z@2@Z 10028780 f   ESP.obj
 0001:00027800       ?deallocate@?$allocator@VText@?1??DrawInfo@visuals@@AAEXUtagRECT@@PAVC_BaseEntity@@1@Z@@std@@QAEXQAVText@?1??DrawInfo@visuals@@AAEXUtagRECT@@PAVC_BaseEntity@@1@Z@I@Z 10028800 f   ESP.obj
 0001:00027bd1       __catch$??$emplace_back@ABVVector@@@?$vector@VVector@@V?$allocator@VVector@@@std@@@std@@QAEXABVVector@@@Z$0 10028bd1 f i GrenadePrediction.obj
 0001:000286ec       $LN113                     100296ec     GrenadePrediction.obj
 0001:00028af8       __catch$??$_Buynode@ABUpiecewise_construct_t@std@@V?$tuple@ABV?$basic_string@DU?$char_traits@D@std@@V?$allocator@D@2@@std@@@2@V?$tuple@$$V@2@@?$_List_buy@U?$pair@$$CBV?$basic_string@DU?$char_traits@D@std@@V?$allocator@D@2@@std@@UskinInfo@@@std@@V?$allocator@U?$pair@$$CBV?$basic_string@DU?$char_traits@D@std@@V?$allocator@D@2@@std@@UskinInfo@@@std@@@2@@std@@QAEPAU?$_List_node@U?$pair@$$CBV?$basic_string@DU?$char_traits@D@std@@V?$allocator@D@2@@std@@UskinInfo@@@std@@PAX@1@PAU21@0ABUpiecewise_construct_t@1@$$QAV?$tuple@ABV?$basic_string@DU?$char_traits@D@std@@V?$allocator@D@2@@std@@@1@$$QAV?$tuple@$$V@1@@Z$0 10029af8 f i Hooks.obj
 0001:00028b96       __catch$??$_Buynode@ABUpiecewise_construct_t@std@@V?$tuple@ABV?$basic_string@DU?$char_traits@D@std@@V?$allocator@D@2@@std@@@2@V?$tuple@$$V@2@@?$_List_buy@U?$pair@$$CBV?$basic_string@DU?$char_traits@D@std@@V?$allocator@D@2@@std@@V12@@std@@V?$allocator@U?$pair@$$CBV?$basic_string@DU?$char_traits@D@std@@V?$allocator@D@2@@std@@V12@@std@@@2@@std@@QAEPAU?$_List_node@U?$pair@$$CBV?$basic_string@DU?$char_traits@D@std@@V?$allocator@D@2@@std@@V12@@std@@PAX@1@PAU21@0ABUpiecewise_construct_t@1@$$QAV?$tuple@ABV?$basic_string@DU?$char_traits@D@std@@V?$allocator@D@2@@std@@@1@$$QAV?$tuple@$$V@1@@Z$0 10029b96 f i Hooks.obj
 0001:00028c44       __catch$??$_Buynode@ABUpiecewise_construct_t@std@@V?$tuple@ABV?$basic_string@DU?$char_traits@D@std@@V?$allocator@D@2@@std@@@2@V?$tuple@$$V@2@@?$_List_buy@U?$pair@$$CBV?$basic_string@DU?$char_traits@D@std@@V?$allocator@D@2@@std@@V?$set@V?$basic_string@DU?$char_traits@D@std@@V?$allocator@D@2@@std@@U?$less@V?$basic_string@DU?$char_traits@D@std@@V?$allocator@D@2@@std@@@2@V?$allocator@V?$basic_string@DU?$char_traits@D@std@@V?$allocator@D@2@@std@@@2@@2@@std@@V?$allocator@U?$pair@$$CBV?$basic_string@DU?$char_traits@D@std@@V?$allocator@D@2@@std@@V?$set@V?$basic_string@DU?$char_traits@D@std@@V?$allocator@D@2@@std@@U?$less@V?$basic_string@DU?$char_traits@D@std@@V?$allocator@D@2@@std@@@2@V?$allocator@V?$basic_string@DU?$char_traits@D@std@@V?$allocator@D@2@@std@@@2@@2@@std@@@2@@std@@QAEPAU?$_List_node@U?$pair@$$CBV?$basic_string@DU?$char_traits@D@std@@V?$allocator@D@2@@std@@V?$set@V?$basic_string@DU?$char_traits@D@std@@V?$allocator@D@2@@std@@U?$less@V?$basic_string@DU?$char_traits@D@std@@V?$allocator@D@2@@std@@@2@V?$allocator@V?$basic_string@DU?$char_traits@D@std@@V?$allocator@D@2@@std@@@2@@2@@std@@PAX@1@PAU21@0ABUpiecewise_construct_t@1@$$QAV?$tuple@ABV?$basic_string@DU?$char_traits@D@std@@V?$allocator@D@2@@std@@@1@$$QAV?$tuple@$$V@1@@Z$0 10029c44 f i Hooks.obj
 0001:00028f4a       __catch$??$_Insert@AAU?$pair@$$CBV?$basic_string@DU?$char_traits@D@std@@V?$allocator@D@2@@std@@UskinInfo@@@std@@V?$_List_unchecked_iterator@V?$_List_val@U?$_List_simple_types@U?$pair@$$CBV?$basic_string@DU?$char_traits@D@std@@V?$allocator@D@2@@std@@UskinInfo@@@std@@@std@@@std@@@2@@?$_Hash@V?$_Umap_traits@V?$basic_string@DU?$char_traits@D@std@@V?$allocator@D@2@@std@@UskinInfo@@V?$_Uhash_compare@V?$basic_string@DU?$char_traits@D@std@@V?$allocator@D@2@@std@@U?$hash@V?$basic_string@DU?$char_traits@D@std@@V?$allocator@D@2@@std@@@2@U?$equal_to@V?$basic_string@DU?$char_traits@D@std@@V?$allocator@D@2@@std@@@2@@2@V?$allocator@U?$pair@$$CBV?$basic_string@DU?$char_traits@D@std@@V?$allocator@D@2@@std@@UskinInfo@@@std@@@2@$0A@@std@@@std@@IAE?AU?$pair@V?$_List_iterator@V?$_List_val@U?$_List_simple_types@U?$pair@$$CBV?$basic_string@DU?$char_traits@D@std@@V?$allocator@D@2@@std@@UskinInfo@@@std@@@std@@@std@@@std@@_N@1@AAU?$pair@$$CBV?$basic_string@DU?$char_traits@D@std@@V?$allocator@D@2@@std@@UskinInfo@@@1@V?$_List_unchecked_iterator@V?$_List_val@U?$_List_simple_types@U?$pair@$$CBV?$basic_string@DU?$char_traits@D@std@@V?$allocator@D@2@@std@@UskinInfo@@@std@@@std@@@std@@@1@@Z$2 10029f4a f i Hooks.obj
 0001:000291aa       __catch$??$_Insert@AAU?$pair@$$CBV?$basic_string@DU?$char_traits@D@std@@V?$allocator@D@2@@std@@V12@@std@@V?$_List_unchecked_iterator@V?$_List_val@U?$_List_simple_types@U?$pair@$$CBV?$basic_string@DU?$char_traits@D@std@@V?$allocator@D@2@@std@@V12@@std@@@std@@@std@@@2@@?$_Hash@V?$_Umap_traits@V?$basic_string@DU?$char_traits@D@std@@V?$allocator@D@2@@std@@V12@V?$_Uhash_compare@V?$basic_string@DU?$char_traits@D@std@@V?$allocator@D@2@@std@@U?$hash@V?$basic_string@DU?$char_traits@D@std@@V?$allocator@D@2@@std@@@2@U?$equal_to@V?$basic_string@DU?$char_traits@D@std@@V?$allocator@D@2@@std@@@2@@2@V?$allocator@U?$pair@$$CBV?$basic_string@DU?$char_traits@D@std@@V?$allocator@D@2@@std@@V12@@std@@@2@$0A@@std@@@std@@IAE?AU?$pair@V?$_List_iterator@V?$_List_val@U?$_List_simple_types@U?$pair@$$CBV?$basic_string@DU?$char_traits@D@std@@V?$allocator@D@2@@std@@V12@@std@@@std@@@std@@@std@@_N@1@AAU?$pair@$$CBV?$basic_string@DU?$char_traits@D@std@@V?$allocator@D@2@@std@@V12@@1@V?$_List_unchecked_iterator@V?$_List_val@U?$_List_simple_types@U?$pair@$$CBV?$basic_string@DU?$char_traits@D@std@@V?$allocator@D@2@@std@@V12@@std@@@std@@@std@@@1@@Z$2 1002a1aa f i Hooks.obj
 0001:0002940a       __catch$??$_Insert@AAU?$pair@$$CBV?$basic_string@DU?$char_traits@D@std@@V?$allocator@D@2@@std@@V?$set@V?$basic_string@DU?$char_traits@D@std@@V?$allocator@D@2@@std@@U?$less@V?$basic_string@DU?$char_traits@D@std@@V?$allocator@D@2@@std@@@2@V?$allocator@V?$basic_string@DU?$char_traits@D@std@@V?$allocator@D@2@@std@@@2@@2@@std@@V?$_List_unchecked_iterator@V?$_List_val@U?$_List_simple_types@U?$pair@$$CBV?$basic_string@DU?$char_traits@D@std@@V?$allocator@D@2@@std@@V?$set@V?$basic_string@DU?$char_traits@D@std@@V?$allocator@D@2@@std@@U?$less@V?$basic_string@DU?$char_traits@D@std@@V?$allocator@D@2@@std@@@2@V?$allocator@V?$basic_string@DU?$char_traits@D@std@@V?$allocator@D@2@@std@@@2@@2@@std@@@std@@@std@@@2@@?$_Hash@V?$_Umap_traits@V?$basic_string@DU?$char_traits@D@std@@V?$allocator@D@2@@std@@V?$set@V?$basic_string@DU?$char_traits@D@std@@V?$allocator@D@2@@std@@U?$less@V?$basic_string@DU?$char_traits@D@std@@V?$allocator@D@2@@std@@@2@V?$allocator@V?$basic_string@DU?$char_traits@D@std@@V?$allocator@D@2@@std@@@2@@2@V?$_Uhash_compare@V?$basic_string@DU?$char_traits@D@std@@V?$allocator@D@2@@std@@U?$hash@V?$basic_string@DU?$char_traits@D@std@@V?$allocator@D@2@@std@@@2@U?$equal_to@V?$basic_string@DU?$char_traits@D@std@@V?$allocator@D@2@@std@@@2@@2@V?$allocator@U?$pair@$$CBV?$basic_string@DU?$char_traits@D@std@@V?$allocator@D@2@@std@@V?$set@V?$basic_string@DU?$char_traits@D@std@@V?$allocator@D@2@@std@@U?$less@V?$basic_string@DU?$char_traits@D@std@@V?$allocator@D@2@@std@@@2@V?$allocator@V?$basic_string@DU?$char_traits@D@std@@V?$allocator@D@2@@std@@@2@@2@@std@@@2@$0A@@std@@@std@@IAE?AU?$pair@V?$_List_iterator@V?$_List_val@U?$_List_simple_types@U?$pair@$$CBV?$basic_string@DU?$char_traits@D@std@@V?$allocator@D@2@@std@@V?$set@V?$basic_string@DU?$char_traits@D@std@@V?$allocator@D@2@@std@@U?$less@V?$basic_string@DU?$char_traits@D@std@@V?$allocator@D@2@@std@@@2@V?$allocator@V?$basic_string@DU?$char_traits@D@std@@V?$allocator@D@2@@std@@@2@@2@@std@@@std@@@std@@@std@@_N@1@AAU?$pair@$$CBV?$basic_string@DU?$char_traits@D@std@@V?$allocator@D@2@@std@@V?$set@V?$basic_string@DU?$char_traits@D@std@@V?$allocator@D@2@@std@@U?$less@V?$basic_string@DU?$char_traits@D@std@@V?$allocator@D@2@@std@@@2@V?$allocator@V?$basic_string@DU?$char_traits@D@std@@V?$allocator@D@2@@std@@@2@@2@@1@V?$_List_unchecked_iterator@V?$_List_val@U?$_List_simple_types@U?$pair@$$CBV?$basic_string@DU?$char_traits@D@std@@V?$allocator@D@2@@std@@V?$set@V?$basic_string@DU?$char_traits@D@std@@V?$allocator@D@2@@std@@U?$less@V?$basic_string@DU?$char_traits@D@std@@V?$allocator@D@2@@std@@@2@V?$allocator@V?$basic_string@DU?$char_traits@D@std@@V?$allocator@D@2@@std@@@2@@2@@std@@@std@@@std@@@1@@Z$2 1002a40a f i Hooks.obj
 0001:00029637       __catch$??$_Insert@AAU?$pair@QADPAD@std@@V?$_List_unchecked_iterator@V?$_List_val@U?$_List_simple_types@U?$pair@QADPAD@std@@@std@@@std@@@2@@?$_Hash@V?$_Umap_traits@PADPADV?$_Uhash_compare@PADU?$hash@PAD@std@@U?$equal_to@PAD@2@@std@@V?$allocator@U?$pair@QADPAD@std@@@2@$0A@@std@@@std@@IAE?AU?$pair@V?$_List_iterator@V?$_List_val@U?$_List_simple_types@U?$pair@QADPAD@std@@@std@@@std@@@std@@_N@1@AAU?$pair@QADPAD@1@V?$_List_unchecked_iterator@V?$_List_val@U?$_List_simple_types@U?$pair@QADPAD@std@@@std@@@std@@@1@@Z$2 1002a637 f i Hooks.obj
 0001:00029974       __catch$??$_Insert_nohint@V?$basic_string@DU?$char_traits@D@std@@V?$allocator@D@2@@std@@U_Not_a_node_tag@2@@?$_Tree@V?$_Tset_traits@V?$basic_string@DU?$char_traits@D@std@@V?$allocator@D@2@@std@@U?$less@V?$basic_string@DU?$char_traits@D@std@@V?$allocator@D@2@@std@@@2@V?$allocator@V?$basic_string@DU?$char_traits@D@std@@V?$allocator@D@2@@std@@@2@$0A@@std@@@std@@IAE?AU?$pair@V?$_Tree_const_iterator@V?$_Tree_val@U?$_Tree_simple_types@V?$basic_string@DU?$char_traits@D@std@@V?$allocator@D@2@@std@@@std@@@std@@@std@@_N@1@_N$$QAV?$basic_string@DU?$char_traits@D@std@@V?$allocator@D@2@@1@U_Not_a_node_tag@1@@Z$0 1002a974 f i Hooks.obj
 0001:00029a7b       __catch$??$_Range_construct_or_tidy@PBV?$basic_string@DU?$char_traits@D@std@@V?$allocator@D@2@@std@@@?$vector@V?$basic_string@DU?$char_traits@D@std@@V?$allocator@D@2@@std@@V?$allocator@V?$basic_string@DU?$char_traits@D@std@@V?$allocator@D@2@@std@@@2@@std@@AAEXPBV?$basic_string@DU?$char_traits@D@std@@V?$allocator@D@2@@1@0Uforward_iterator_tag@1@@Z$0 1002aa7b f i Hooks.obj
 0001:0002a126       __catch$??$_Uninitialized_copy_al_unchecked@PBV?$basic_string@DU?$char_traits@D@std@@V?$allocator@D@2@@std@@PAV12@V?$allocator@V?$basic_string@DU?$char_traits@D@std@@V?$allocator@D@2@@std@@@2@@std@@YAPAV?$basic_string@DU?$char_traits@D@std@@V?$allocator@D@2@@0@PBV10@0PAV10@AAV?$allocator@V?$basic_string@DU?$char_traits@D@std@@V?$allocator@D@2@@std@@@0@U_General_ptr_iterator_tag@0@U_Unused_parameter@0@@Z$0 1002b126 f i Hooks.obj
 0001:0002d2a4       $LN543                     1002e2a4     Hooks.obj
 0001:0002d2c4       $LN544                     1002e2c4     Hooks.obj
 0001:0002d2e4       $LN545                     1002e2e4     Hooks.obj
 0001:0002d304       $LN546                     1002e304     Hooks.obj
 0001:0002d324       $LN547                     1002e324     Hooks.obj
 0001:0002d344       $LN548                     1002e344     Hooks.obj
 0001:0002d364       $LN549                     1002e364     Hooks.obj
 0001:0002d384       $LN550                     1002e384     Hooks.obj
 0001:0002d3a4       $LN551                     1002e3a4     Hooks.obj
 0001:0002d3c4       $LN552                     1002e3c4     Hooks.obj
 0001:0002d3e4       $LN553                     1002e3e4     Hooks.obj
 0001:0002d404       $LN554                     1002e404     Hooks.obj
 0001:0002d424       $LN555                     1002e424     Hooks.obj
 0001:0002d444       $LN556                     1002e444     Hooks.obj
 0001:0002d568       $LN62                      1002e568     Hooks.obj
 0001:0002d60c       $LN37                      1002e60c     Hooks.obj
 0001:0002d7d0       $LN75                      1002e7d0     Hooks.obj
 0001:0002d7e0       $LN76                      1002e7e0     Hooks.obj
 0001:0002d7f8       $LN77                      1002e7f8     Hooks.obj
 0001:0002d80c       $LN78                      1002e80c     Hooks.obj
 0001:0002d81c       $LN79                      1002e81c     Hooks.obj
 0001:0002d834       $LN80                      1002e834     Hooks.obj
 0001:0002d84c       $LN81                      1002e84c     Hooks.obj
 0001:0002d8c0       $LN17                      1002e8c0     Hooks.obj
 0001:0002e0d8       $LN1293                    1002f0d8     Hooks.obj
 0001:0002e0f4       $LN1294                    1002f0f4     Hooks.obj
 0001:0002e10c       $LN1295                    1002f10c     Hooks.obj
 0001:0002e124       $LN1296                    1002f124     Hooks.obj
 0001:0002e138       $LN1297                    1002f138     Hooks.obj
 0001:0002e14c       $LN1298                    1002f14c     Hooks.obj
 0001:0002e15c       $LN1299                    1002f15c     Hooks.obj
 0001:0002e16c       $LN1300                    1002f16c     Hooks.obj
 0001:0002e184       $LN1301                    1002f184     Hooks.obj
 0001:0002e19c       $LN1302                    1002f19c     Hooks.obj
 0001:0002e1b4       $LN1303                    1002f1b4     Hooks.obj
 0001:0002e1cc       $LN1304                    1002f1cc     Hooks.obj
 0001:0002e1dc       $LN1305                    1002f1dc     Hooks.obj
 0001:0002e480       ?MovementRecorder@@YAXPAVCUserCmd@CInput@@@Z 1002f480 f   Hooks.obj
 0001:0003a580       $LN11156                   1003b580     Hooks.obj
 0001:0003aa5c       $LN248                     1003ba5c     Hooks.obj
 0001:0003c11c       $LN150                     1003d11c     Hooks.obj
 0001:0003c130       $LN139                     1003d130     Hooks.obj
 0001:0003cdec       $LN334                     1003ddec     Hooks.obj
 0001:0003e63c       $LN403                     1003f63c     Hooks.obj
 0001:0003e650       $LN404                     1003f650     Hooks.obj
 0001:0003ea5b       __catch$?unhook_all@vfunc_hook@@QAEXXZ$0 1003fa5b f i Hooks.obj
 0001:0003ec24       $LN52                      1003fc24     Hooks.obj
 0001:0003ecac       $LN50                      1003fcac     Hooks.obj
 0001:0003ecec       $LN53                      1003fcec     Hooks.obj
 0001:0003f9fc       $LN31                      100409fc     imgui_impl_dx9.obj
 0001:00041550       ?AddDrawListToRenderList@@YAXAAV?$ImVector@PAUImDrawList@@@@PAUImDrawList@@@Z 10042550 f   imgui.obj
 0001:00041620       ?AddWindowSettings@@YAPAUImGuiIniData@@PBD@Z 10042620 f   imgui.obj
 0001:00041790       ?AddWindowToRenderList@@YAXAAV?$ImVector@PAUImDrawList@@@@PAUImGuiWindow@@@Z 10042790 f   imgui.obj
 0001:00041800       ?AddWindowToSortedBuffer@@YAXAAV?$ImVector@PAUImGuiWindow@@@@PAUImGuiWindow@@@Z 10042800 f   imgui.obj
 0001:000418b0       ?ApplySizeFullWithConstraint@@YAXPAUImGuiWindow@@UImVec2@@@Z 100428b0 f   imgui.obj
 0001:00044710       ?BeginChildEx@@YA_NPBDIABUImVec2@@_NH@Z 10045710 f   imgui.obj
 0001:00044b90       ?BeginPopupEx@@YA_NPBDH@Z  10045b90 f   imgui.obj
 0001:00045950       ?ChildWindowComparer@@YAHPBX0@Z 10046950 f   imgui.obj
 0001:00045c30       ?ClosePopup@@YAXI@Z        10046c30 f   imgui.obj
 0001:00045c70       ?ClosePopupToLevel@@YAXH@Z 10046c70 f   imgui.obj
 0001:00046078       $LN15                      10047078     imgui.obj
 0001:00047040       ?CreateNewWindow@@YAPAUImGuiWindow@@PBDUImVec2@@H@Z 10048040 f   imgui.obj
 0001:00047300       ?DataTypeApplyOpFromText@@YA_NPBD0W4ImGuiDataType@@PAX0@Z 10048300 f   imgui.obj
 0001:00048480       ?FindBestPopupWindowPos@@YA?AUImVec2@@ABU1@0PAHABUImRect@@@Z 10049480 f   imgui.obj
 0001:000486b0       ?FindHoveredWindow@@YAPAUImGuiWindow@@UImVec2@@_N@Z 100496b0 f   imgui.obj
 0001:000487c0       ?FindWindowSettings@@YAPAUImGuiIniData@@PBD@Z 100497c0 f   imgui.obj
 0001:000489f0       ?GetClipboardTextFn_DefaultImpl@@YAPBDPAX@Z 100499f0 f   imgui.obj
 0001:00048db0       ?GetDraggedColumnOffset@@YAMH@Z 10049db0 f   imgui.obj
 0001:00048e50       ?GetFrontMostModalRootWindow@@YAPAUImGuiWindow@@XZ 10049e50 f   imgui.obj
 0001:00048f40       ?GetVisibleRect@@YA?AUImRect@@XZ 10049f40 f   imgui.obj
 0001:00049714       $LN191                     1004a714     imgui.obj
 0001:0004a310       ?ImeSetInputScreenPosFn_DefaultImpl@@YAXHH@Z 1004b310 f   imgui.obj
 0001:0004cda0       ?InputTextFilterCharacter@@YA_NPAIHP6AHPAUImGuiTextEditCallbackData@@@ZPAX@Z 1004dda0 f   imgui.obj
 0001:0004d0f0       ?IsKeyPressedMap@@YA_NH_N@Z 1004e0f0 f   imgui.obj
 0001:0004d3a0       ?IsPopupOpen@@YA_NI@Z      1004e3a0 f   imgui.obj
 0001:0004d3d0       ?IsWindowContentHoverable@@YA_NPAUImGuiWindow@@@Z 1004e3d0 f   imgui.obj
 0001:0004d640       ?Items_ArrayGetter@@YA_NPAXHPAPBD@Z 1004e640 f   imgui.obj
 0001:0004d660       ?Items_SingleStringGetter@@YA_NPAXHPAPBD@Z 1004e660 f   imgui.obj
 0001:0004dae0       ?LoadIniSettingsFromDisk@@YAXPBD@Z 1004eae0 f   imgui.obj
 0001:0004dd80       ?LogRenderedText@@YAXABUImVec2@@PBD1@Z 1004ed80 f   imgui.obj
 0001:0004ded0       ?LowerBound@@YAPAUPair@ImGuiStorage@@AAV?$ImVector@UPair@ImGuiStorage@@@@I@Z 1004eed0 f   imgui.obj
 0001:0004f350       ?PushColumnClipRect@@YAXH@Z 10050350 f   imgui.obj
 0001:000509f0       ?STB_TEXTEDIT_DELETECHARS@ImGuiStb@@YAXPAUImGuiTextEditState@@HH@Z 100519f0 f   imgui.obj
 0001:00050a50       ?STB_TEXTEDIT_GETWIDTH@ImGuiStb@@YAMPAUImGuiTextEditState@@HH@Z 10051a50 f   imgui.obj
 0001:00050ac0       ?STB_TEXTEDIT_INSERTCHARS@ImGuiStb@@YA_NPAUImGuiTextEditState@@HPBGH@Z 10051ac0 f   imgui.obj
 0001:00050b70       ?STB_TEXTEDIT_LAYOUTROW@ImGuiStb@@YAXPAUStbTexteditRow@1@PAUImGuiTextEditState@@H@Z 10051b70 f   imgui.obj
 0001:00050c50       ?STB_TEXTEDIT_MOVEWORDLEFT_IMPL@ImGuiStb@@YAHPAUImGuiTextEditState@@H@Z 10051c50 f   imgui.obj
 0001:00050d20       ?STB_TEXTEDIT_MOVEWORDRIGHT_IMPL@ImGuiStb@@YAHPAUImGuiTextEditState@@H@Z 10051d20 f   imgui.obj
 0001:00050ec0       ?SaveIniSettingsToDisk@@YAXPBD@Z 10051ec0 f   imgui.obj
 0001:00051070       ?Scrollbar@@YAXPAUImGuiWindow@@_N@Z 10052070 f   imgui.obj
 0001:00051cf0       ?SetClipboardTextFn_DefaultImpl@@YAXPAXPBD@Z 10052cf0 f   imgui.obj
 0001:00051ef0       ?SetWindowPos@@YAXPAUImGuiWindow@@ABUImVec2@@H@Z 10052ef0 f   imgui.obj
 0001:00051fb0       ?SetWindowSize@@YAXPAUImGuiWindow@@ABUImVec2@@H@Z 10052fb0 f   imgui.obj
 0001:000537f0       ?stb_text_createundo@ImGuiStb@@YAPAGPAUStbUndoState@1@HHH@Z 100547f0 f   imgui.obj
 0001:000538e0       ?stb_text_locate_coord@ImGuiStb@@YAHPAUImGuiTextEditState@@MM@Z 100548e0 f   imgui.obj
 0001:00053a20       ?stb_text_undo@ImGuiStb@@YAXPAUImGuiTextEditState@@PAUSTB_TexteditState@1@@Z 10054a20 f   imgui.obj
 0001:00053c90       ?stb_textedit_clamp@ImGuiStb@@YAXPAUImGuiTextEditState@@PAUSTB_TexteditState@1@@Z 10054c90 f   imgui.obj
 0001:00053cd0       ?stb_textedit_delete@ImGuiStb@@YAXPAUImGuiTextEditState@@PAUSTB_TexteditState@1@HH@Z 10054cd0 f   imgui.obj
 0001:00053d30       ?stb_textedit_delete_selection@ImGuiStb@@YAXPAUImGuiTextEditState@@PAUSTB_TexteditState@1@@Z 10054d30 f   imgui.obj
 0001:00053dc0       ?stb_textedit_discard_undo@ImGuiStb@@YAXPAUStbUndoState@1@@Z 10054dc0 f   imgui.obj
 0001:00053e80       ?stb_textedit_find_charpos@ImGuiStb@@YAXPAUStbFindState@1@PAUImGuiTextEditState@@HH@Z 10054e80 f   imgui.obj
 0001:00054010       ?stb_textedit_key@ImGuiStb@@YAXPAUImGuiTextEditState@@PAUSTB_TexteditState@1@H@Z 10055010 f   imgui.obj
 0001:00054884       $LN233                     10055884     imgui.obj
 0001:000548bc       $LN234                     100558bc     imgui.obj
 0001:000548f0       ?stb_textedit_move_to_first@ImGuiStb@@YAXPAUSTB_TexteditState@1@@Z 100558f0 f   imgui.obj
 0001:00054920       ?stb_textedit_move_to_last@ImGuiStb@@YAXPAUImGuiTextEditState@@PAUSTB_TexteditState@1@@Z 10055920 f   imgui.obj
 0001:00054980       ?stb_textedit_prep_selection_at_cursor@ImGuiStb@@YAXPAUSTB_TexteditState@1@@Z 10055980 f   imgui.obj
 0001:0005a4c0       ?rect_height_compare@@YAHPBX0@Z 1005b4c0 f   imgui_draw.obj
 0001:0005a500       ?rect_original_order@@YAHPBX0@Z 1005b500 f   imgui_draw.obj
 0001:0005a760       ?stb__lit@@YAXPAEI@Z       1005b760 f   imgui_draw.obj
 0001:0005a7b0       ?stb__match@@YAXPAEI@Z     1005b7b0 f   imgui_draw.obj
 0001:0005a810       ?stb_decompress@@YAIPAE0I@Z 1005b810 f   imgui_draw.obj
 0001:0005aa90       ?stb_decompress_token@@YAPAEPAE@Z 1005ba90 f   imgui_draw.obj
 0001:0005acb0       ?stbrp__skyline_find_best_pos@@YA?AUstbrp__findresult@@PAUstbrp_context@@HH@Z 1005bcb0 f   imgui_draw.obj
 0001:0005ae40       ?stbrp__skyline_find_min_y@@YAHPAUstbrp_context@@PAUstbrp_node@@HHPAH@Z 1005be40 f   imgui_draw.obj
 0001:0005af20       ?stbtt_FlattenCurves@@YAPAUstbtt__point@@PAUstbtt_vertex@@HMPAPAHPAHPAX@Z 1005bf20 f   imgui_draw.obj
 0001:0005b348       $LN67                      1005c348     imgui_draw.obj
 0001:0005b360       ?stbtt_InitFont_internal@@YAHPAUstbtt_fontinfo@@PAEH@Z 1005c360 f   imgui_draw.obj
 0001:0005b7a0       ?stbtt__GetGlyfOffset@@YAHPBUstbtt_fontinfo@@H@Z 1005c7a0 f   imgui_draw.obj
 0001:0005b860       ?stbtt__GetGlyphShapeT2@@YAHPBUstbtt_fontinfo@@HPAPAUstbtt_vertex@@@Z 1005c860 f   imgui_draw.obj
 0001:0005b910       ?stbtt__GetGlyphShapeTT@@YAHPBUstbtt_fontinfo@@HPAPAUstbtt_vertex@@@Z 1005c910 f   imgui_draw.obj
 0001:0005c300       ?stbtt__buf_get8@@YAEPAUstbtt__buf@@@Z 1005d300 f   imgui_draw.obj
 0001:0005c320       ?stbtt__buf_get@@YAIPAUstbtt__buf@@H@Z 1005d320 f   imgui_draw.obj
 0001:0005c360       ?stbtt__buf_peek8@@YAEPAUstbtt__buf@@@Z 1005d360 f   imgui_draw.obj
 0001:0005c380       ?stbtt__buf_seek@@YAXPAUstbtt__buf@@H@Z 1005d380 f   imgui_draw.obj
 0001:0005c3a0       ?stbtt__cff_get_index@@YA?AUstbtt__buf@@PAU1@@Z 1005d3a0 f   imgui_draw.obj
 0001:0005c480       ?stbtt__cff_index_get@@YA?AUstbtt__buf@@U1@H@Z 1005d480 f   imgui_draw.obj
 0001:0005c560       ?stbtt__cff_int@@YAIPAUstbtt__buf@@@Z 1005d560 f   imgui_draw.obj
 0001:0005c6f0       ?stbtt__cid_get_glyph_subrs@@YA?AUstbtt__buf@@PBUstbtt_fontinfo@@H@Z 1005d6f0 f   imgui_draw.obj
 0001:0005c870       ?stbtt__close_shape@@YAHPAUstbtt_vertex@@HHHHHHHHH@Z 1005d870 f   imgui_draw.obj
 0001:0005c950       ?stbtt__csctx_close_shape@@YAXPAUstbtt__csctx@@@Z 1005d950 f   imgui_draw.obj
 0001:0005c9a0       ?stbtt__csctx_rccurve_to@@YAXPAUstbtt__csctx@@MMMMMM@Z 1005d9a0 f   imgui_draw.obj
 0001:0005ca10       ?stbtt__csctx_rmove_to@@YAXPAUstbtt__csctx@@MM@Z 1005da10 f   imgui_draw.obj
 0001:0005cab0       ?stbtt__csctx_v@@YAXPAUstbtt__csctx@@EHHHHHH@Z 1005dab0 f   imgui_draw.obj
 0001:0005cba0       ?stbtt__dict_get@@YA?AUstbtt__buf@@PAU1@H@Z 1005dba0 f   imgui_draw.obj
 0001:0005cd40       ?stbtt__dict_get_ints@@YAXPAUstbtt__buf@@HHPAI@Z 1005dd40 f   imgui_draw.obj
 0001:0005cdb0       ?stbtt__fill_active_edges_new@@YAXPAM0HPAUstbtt__active_edge@@M@Z 1005ddb0 f   imgui_draw.obj
 0001:0005dd60       ?stbtt__find_table@@YAIPAEIPBD@Z 1005ed60 f   imgui_draw.obj
 0001:0005de00       ?stbtt__get_subrs@@YA?AUstbtt__buf@@U1@0@Z 1005ee00 f   imgui_draw.obj
 0001:0005df60       ?stbtt__h_prefilter@@YAXPAEHHHI@Z 1005ef60 f   imgui_draw.obj
 0001:0005e188       $LN60                      1005f188     imgui_draw.obj
 0001:0005e1a0       ?stbtt__handle_clipped_edge@@YAXPAMHPAUstbtt__active_edge@@MMMM@Z 1005f1a0 f   imgui_draw.obj
 0001:0005e2c0       ?stbtt__isfont@@YAHPAE@Z   1005f2c0 f   imgui_draw.obj
 0001:0005e350       ?stbtt__rasterize@@YAXPAUstbtt__bitmap@@PAUstbtt__point@@PAHHMMMMHHHPAX@Z 1005f350 f   imgui_draw.obj
 0001:0005e630       ?stbtt__rasterize_sorted_edges@@YAXPAUstbtt__bitmap@@PAUstbtt__edge@@HHHHPAX@Z 1005f630 f   imgui_draw.obj
 0001:0005ea90       ?stbtt__run_charstring@@YAHPBUstbtt_fontinfo@@HPAUstbtt__csctx@@@Z 1005fa90 f   imgui_draw.obj
 0001:0005fa20       $LN268                     10060a20     imgui_draw.obj
 0001:0005fa70       $LN246                     10060a70     imgui_draw.obj
 0001:0005fa90       $LN269                     10060a90     imgui_draw.obj
 0001:0005faa0       ?stbtt__sort_edges_quicksort@@YAXPAUstbtt__edge@@H@Z 10060aa0 f   imgui_draw.obj
 0001:0005fc20       ?stbtt__tesselate_cubic@@YAXPAUstbtt__point@@PAHMMMMMMMMMH@Z 10060c20 f   imgui_draw.obj
 0001:00060020       ?stbtt__tesselate_curve@@YAHPAUstbtt__point@@PAHMMMMMMMH@Z 10061020 f   imgui_draw.obj
 0001:000601d0       ?stbtt__track_vertex@@YAXPAUstbtt__csctx@@HH@Z 100611d0 f   imgui_draw.obj
 0001:00060220       ?stbtt__v_prefilter@@YAXPAEHHHI@Z 10061220 f   imgui_draw.obj
 0001:00060450       $LN60                      10061450     imgui_draw.obj
 0001:00060460       ?ttULONG@@YAIPAE@Z         10061460 f   imgui_draw.obj
 0001:000604d0       _stbrp_init_target         100614d0 f   imgui_draw.obj
 0001:00060650       _stbrp_pack_rects          10061650 f   imgui_draw.obj
 0001:00060810       _stbtt_FindGlyphIndex      10061810 f   imgui_draw.obj
 0001:00060b20       _stbtt_GetGlyphBitmapBoxSubpixel 10061b20 f   imgui_draw.obj
 0001:00060d50       _stbtt_GetGlyphShape       10061d50 f   imgui_draw.obj
 0001:00060e20       _stbtt_MakeGlyphBitmapSubpixel 10061e20 f   imgui_draw.obj
 0001:00061030       _stbtt_PackFontRangesGatherRects 10062030 f   imgui_draw.obj
 0001:00061220       _stbtt_PackFontRangesRenderIntoRects 10062220 f   imgui_draw.obj
 0001:00066880       ??$_Reallocate_grow_by@V<lambda_6607a66f2a10a1261ff9db96cba1015b>@@IID@?$basic_string@DU?$char_traits@D@std@@V?$allocator@D@2@@std@@QAEAAV01@IV<lambda_6607a66f2a10a1261ff9db96cba1015b>@@IID@Z 10067880 f   Misc.obj
 0001:000669f0       ??$_Reallocate_grow_by@V<lambda_f4fd5ca79072ce85a36b5022cfb0e6d1>@@IIPBDI@?$basic_string@DU?$char_traits@D@std@@V?$allocator@D@2@@std@@QAEAAV01@IV<lambda_f4fd5ca79072ce85a36b5022cfb0e6d1>@@IIPBDI@Z 100679f0 f   Misc.obj
 0001:00068d84       $LN3834                    10069d84     Misc.obj
 0001:00068dec       $LN3835                    10069dec     Misc.obj
 0001:0006b784       $LN380                     1006c784     RageBot.obj
 0001:0006b7a4       $LN381                     1006c7a4     RageBot.obj
 0001:0006c848       $LN423                     1006d848     RageBot.obj
 0001:0006d678       $LN44                      1006e678     Renderer.obj
 0001:00070670       ??R<lambda_7ed3db406aacb01baf79d13e7359de19>@@QBE?AV?$vector@HV?$allocator@H@std@@@std@@PBD@Z 10071670 f   Utilities.obj
 0001:00071040       _uninitialize_c            10072040 f i libucrt:initialization.obj
 0001:00071040       _report_memory_leaks       10072040 f i libucrt:initialization.obj
 0001:00071040       _initialize_environment    10072040 f i libucrt:initialization.obj
 0001:00071040       _initialize_global_state_isolation 10072040 f i libucrt:initialization.obj
 0001:00071040       _uninitialize_global_state_isolation 10072040 f i libucrt:initialization.obj
 0001:000714fe       __catch$?setup@vfunc_hook@@QAE_NPAX@Z$0 100724fe f   Utilities.obj
 0001:0007169c       ?find_pe_section@@YAPAU_IMAGE_SECTION_HEADER@@QAEI@Z 1007269c f   LIBCMT:utility.obj
 0001:000719df       ?__scrt_initialize_thread_safe_statics@@YAHXZ 100729df f   LIBCMT:thread_safe_statics.obj
 0001:00071a06       ?__scrt_initialize_thread_safe_statics_platform_specific@@YAXXZ 10072a06 f   LIBCMT:thread_safe_statics.obj
 0001:00071ad6       ?__scrt_uninitialize_thread_safe_statics@@YAXXZ 10072ad6 f   LIBCMT:thread_safe_statics.obj
 0001:00071c60       $$000000                   10072c60     LIBCMT:chkstk.obj
 0001:00071ca0       $$000000                   10072ca0     LIBCMT:_ftol3_.obj
 0001:00072180       $$000000                   10073180     LIBCMT:_svml_dcos2_dispatch_.obj
 0001:00072190       $$000000                   10073190     LIBCMT:_svml_dsin2_dispatch_.obj
 0001:000721f0       $$000000                   100731f0     LIBCMT:alloca16.obj
 0001:00072220       $$000000                   10073220     LIBCMT:_ftol2_.obj
 0001:000724d4       ?dllmain_crt_dispatch@@YGHQAUHINSTANCE__@@KQAX@Z 100734d4 f   LIBCMT:dll_dllmain.obj
 0001:00072527       ?dllmain_crt_process_attach@@YAHQAUHINSTANCE__@@QAX@Z 10073527 f   LIBCMT:dll_dllmain.obj
 0001:00072626       ?dllmain_crt_process_detach@@YAH_N@Z 10073626 f   LIBCMT:dll_dllmain.obj
 0001:000726ae       ?dllmain_dispatch@@YAHQAUHINSTANCE__@@KQAX@Z 100736ae f   LIBCMT:dll_dllmain.obj
 0001:00072bb0       $$000000                   10073bb0     LIBCMT:_sehprolg4_.obj
 0001:00072c10       $$000000                   10073c10     LIBCMT:_svml_dcos2_sse2_.obj
 0001:00072db0       $$000000                   10073db0     LIBCMT:_svml_dsin2_sse2_.obj
 0001:00072f70       ___get_entropy             10073f70 f   LIBCMT:gs_support.obj
 0001:000730a0       $$000000                   100740a0     LIBCMT:_svml_dtrig_.obj
 0001:00073390       ___common_srl              10074390 f   LIBCMT:_svml_dtrig_.obj
 0001:000733c0       ___common_sll              100743c0 f   LIBCMT:_svml_dtrig_.obj
 0001:0007433c       _tidy_global               1007533c f   libcpmt:locale0.obj
 0001:0007466d       ?initialize_pointers@@YAHXZ 1007566d f   libcpmt:winapisupp.obj
 0001:00074c50       $$000000                   10075c50     libvcruntime:memmove.obj
 0001:00074eb4       TrailingUpVec              10075eb4     libvcruntime:memmove.obj
 0001:00074f60       TrailingDownVec            10075f60     libvcruntime:memmove.obj
 0001:000755e0       $$000000                   100765e0     libvcruntime:memcpy.obj
 0001:00075844       TrailingUpVec              10076844     libvcruntime:memcpy.obj
 0001:000758f0       TrailingDownVec            100768f0     libvcruntime:memcpy.obj
 0001:00075c90       $$000000                   10076c90     libvcruntime:memset.obj
 0001:00075df0       $$000000                   10076df0     libvcruntime:strstr.obj
 0001:00076060       $$000000                   10077060     libvcruntime:memchr.obj
 0001:00076190       $$000000                   10077190     libvcruntime:strchr.obj
 0001:00076330       _ValidateLocalCookies      10077330 f   libvcruntime:_chandler4_.obj
 0001:000764cd       ?try_get_first_available_module@@YAPAUHINSTANCE__@@QBW4module_id@?A0x5c10d368@@0@Z 100774cd f   libvcruntime:winapi_downlevel.obj
 0001:00076593       ?try_get_function@@YAPAXW4function_id@?A0x5c10d368@@QBDQBW4module_id@2@2@Z 10077593 f   libvcruntime:winapi_downlevel.obj
 0001:000783aa       $LN1312                    100793aa     libvcruntime:_memcmp_.obj
 0001:000785b0       $$000000                   100795b0     libvcruntime:lowhelpr.obj
 0001:0007862f       ?CallCatchBlock@@YAPAXPAUEHExceptionRecord@@PAUEHRegistrationNode@@PAU_CONTEXT@@PBU_s_FuncInfo@@PAXHK@Z 1007962f f   libvcruntime:frame.obj
 0001:000787eb       ?CallUnexpected@@YAXPBU_s_ESTypeList@@@Z 100797eb f   libvcruntime:frame.obj
 0001:0007880b       __catch$?CallUnexpected@@YAXPBU_s_ESTypeList@@@Z$0 1007980b f   libvcruntime:frame.obj
 0001:00078825       ?CatchIt@@YAXPAUEHExceptionRecord@@PAUEHRegistrationNode@@PAU_CONTEXT@@PAXPBU_s_FuncInfo@@PBU_s_HandlerType@@PBU_s_CatchableType@@PBU_s_TryBlockMapEntry@@H1E@Z 10079825 f   libvcruntime:frame.obj
 0001:0007889e       ?ExFilterRethrow@@YAHPAU_EXCEPTION_POINTERS@@@Z 1007989e f   libvcruntime:frame.obj
 0001:000788e8       ?FindHandler@@YAXPAUEHExceptionRecord@@PAUEHRegistrationNode@@PAU_CONTEXT@@PAXPBU_s_FuncInfo@@EH1@Z 100798e8 f   libvcruntime:frame.obj
 0001:00078c49       ?FindHandlerForForeignException@@YAXPAUEHExceptionRecord@@PAUEHRegistrationNode@@PAU_CONTEXT@@PAXPBU_s_FuncInfo@@HH1@Z 10079c49 f   libvcruntime:frame.obj
 0001:00078d64       ?IsInExceptionSpec@@YAEPAUEHExceptionRecord@@PBU_s_ESTypeList@@@Z 10079d64 f   libvcruntime:frame.obj
 0001:00078e00       ?Is_bad_exception_allowed@@YAEPBU_s_ESTypeList@@@Z 10079e00 f   libvcruntime:frame.obj
 0001:00079350       $$000000                   1007a350     libvcruntime:_exsup4_.obj
 0001:000793e0       __unwind_handler4          1007a3e0 f   libvcruntime:_exsup4_.obj
 0001:000794c0       $$000000                   1007a4c0     libvcruntime:_exsup_.obj
 0001:000794e1       __unwind_handler           1007a4e1 f   libvcruntime:_exsup_.obj
 0001:000797c3       ??$common_vsscanf@D@@YAH_KQBDI1QAU__crt_locale_pointers@@QAD@Z 1007a7c3 f   libucrt:input.obj
 0001:0007a1eb       $LN38                      1007b1eb     libucrt:input.obj
 0001:0007a2ef       $LN21                      1007b2ef     libucrt:input.obj
 0001:0007ab45       ??R<lambda_f1fa4c266c18b246f3ed9c36247dab4f>@@QBE_NXZ 1007bb45 f   libucrt:input.obj
 0001:0007ab45       ??R<lambda_f765c90ab33e8386abf09c0f079d37e9>@@QBE_NXZ 1007bb45 f   libucrt:input.obj
 0001:0007ab45       ??R<lambda_644f8ab42ed3fd1d660977a2364b3a7d>@@QBE_NXZ 1007bb45 f   libucrt:input.obj
 0001:0007d6b9       $LN22                      1007e6b9     libucrt:input.obj
 0001:0007dde2       $LN18                      1007ede2     libucrt:input.obj
 0001:0007e0ad       _memcpy_s                  1007f0ad f   libucrt:cfout.obj
 0001:0007e0ad       _memcpy_s                  1007f0ad f   libucrt:input.obj
 0001:0007e0ad       _memcpy_s                  1007f0ad f   libucrt:fread.obj
 0001:0007e0ad       _memcpy_s                  1007f0ad f   libucrt:mbctype.obj
 0001:0007e3e0       $$000000                   1007f3e0     libucrt:pow_sse2_precise.obj
 0001:0007ef30       $$000000                   1007ff30     libucrt:sqrt_sse2_precise.obj
 0001:0007f03b       ??$?RV<lambda_80d7abc6eae2375db70be92ccaaf9b57>@@AAV<lambda_df52180bf14694d51fdefd82613e8f07>@@V<lambda_4fa1155033dff2042363dba4e2dc3802>@@@?$__crt_seh_guarded_call@H@@QAEH$$QAV<lambda_80d7abc6eae2375db70be92ccaaf9b57>@@AAV<lambda_df52180bf14694d51fdefd82613e8f07>@@$$QAV<lambda_4fa1155033dff2042363dba4e2dc3802>@@@Z 1008003b f   libucrt:output.obj
 0001:0007f08c       ??$common_vsnprintf_s@D@@YAH_KQADIIQBDQAU__crt_locale_pointers@@1@Z 1008008c f   libucrt:output.obj
 0001:0007f190       ??$common_vsprintf@Vformat_validation_base@__crt_stdio_output@@D@@YAH_KQADIQBDQAU__crt_locale_pointers@@1@Z 10080190 f   libucrt:output.obj
 0001:0007f310       ??$common_vsprintf@Vstandard_base@__crt_stdio_output@@D@@YAH_KQADIQBDQAU__crt_locale_pointers@@1@Z 10080310 f   libucrt:output.obj
 0001:0007f490       ??$common_vsprintf_s@D@@YAH_KQADIQBDQAU__crt_locale_pointers@@1@Z 10080490 f   libucrt:output.obj
 0001:0007f800       ??R<lambda_df52180bf14694d51fdefd82613e8f07>@@QBEHXZ 10080800 f   libucrt:output.obj
 0001:0007fb4f       $LN54                      10080b4f     libucrt:output.obj
 0001:0007fc77       $LN52                      10080c77     libucrt:output.obj
 0001:0007fd93       $LN54                      10080d93     libucrt:output.obj
 0001:00080714       $LN19                      10081714     libucrt:output.obj
 0001:00081051       ??$common_atof_l@D@@YANQBDQAU__crt_locale_pointers@@@Z 10082051 f   libucrt:atof.obj
 0001:0008173a       ??R<lambda_32aa245da1b5b882fa96db788295c8b2>@@QBE_NXZ 1008273a f   libucrt:atof.obj
 0001:000823f2       ??$?RV<lambda_cd71a80a2e07be5c049dbac2d42b50cf>@@AAV<lambda_3126a0d026c48c72336a1719c85146ae>@@V<lambda_054a4245c223b8b973249f076dad6b96>@@@?$__crt_seh_guarded_call@H@@QAEH$$QAV<lambda_cd71a80a2e07be5c049dbac2d42b50cf>@@AAV<lambda_3126a0d026c48c72336a1719c85146ae>@@$$QAV<lambda_054a4245c223b8b973249f076dad6b96>@@@Z 100833f2 f   libucrt:puts.obj
 0001:00082443       ??R<lambda_3126a0d026c48c72336a1719c85146ae>@@QBEHXZ 10083443 f   libucrt:puts.obj
 0001:000825a0       $$000000                   100835a0     libucrt:cos_sse2_precise.obj
 0001:00082760       $$000000                   10083760     libucrt:exp_sse2_precise.obj
 0001:00082a40       $$000000                   10083a40     libucrt:sin_sse2_precise.obj
 0001:00082c10       $$000000                   10083c10     libucrt:ceil_pentium4.obj
 0001:00082d30       $$000000                   10083d30     libucrt:floor_pentium4.obj
 0001:00082f09       ??$common_tox_l@$1?internal_isupper_l@@YA_NHQAU__crt_locale_pointers@@@Z$1?internal_map_lower@@YAHH0@Z@@YAHHKQAU__crt_locale_pointers@@@Z 10083f09 f   libucrt:tolower_toupper.obj
 0001:00083053       ?internal_isupper_l@@YA_NHQAU__crt_locale_pointers@@@Z 10084053 f   libucrt:tolower_toupper.obj
 0001:000831e4       ?fperrraise_with@@YAXHK@Z  100841e4 f   libucrt:_test.obj
 0001:000833bc       ??$common_fsopen@D@@YAPAU_iobuf@@QBD0H@Z 100843bc f   libucrt:fopen.obj
 0001:00083469       ??$common_fsopen@_W@@YAPAU_iobuf@@QB_W0H@Z 10084469 f   libucrt:fopen.obj
 0001:0008384d       ?common_fseek@@YAHV__crt_stdio_stream@@_JH@Z 1008484d f   libucrt:fseek.obj
 0001:000838ce       ?common_fseek_binary_mode_read_only_fast_track_nolock@@YA_NV__crt_stdio_stream@@_JH@Z 100848ce f   libucrt:fseek.obj
 0001:000839a7       ?common_fseek_nolock@@YAHV__crt_stdio_stream@@_JH@Z 100849a7 f   libucrt:fseek.obj
 0001:00083ab6       ??$common_ftell@J@@YAJV__crt_stdio_stream@@@Z 10084ab6 f   libucrt:ftell.obj
 0001:00083b1d       ??$common_ftell@_J@@YA_JV__crt_stdio_stream@@@Z 10084b1d f   libucrt:ftell.obj
 0001:00083b93       ??$common_ftell_nolock@J@@YAJV__crt_stdio_stream@@@Z 10084b93 f   libucrt:ftell.obj
 0001:00083bbe       ??$common_ftell_nolock@_J@@YA_JV__crt_stdio_stream@@@Z 10084bbe f   libucrt:ftell.obj
 0001:00083d43       ?common_ftell_read_mode_nolock@@YA_JV__crt_stdio_stream@@_J1@Z 10084d43 f   libucrt:ftell.obj
 0001:00083f05       ?common_ftell_translated_utf8_nolock@@YA_JV__crt_stdio_stream@@_J@Z 10084f05 f   libucrt:ftell.obj
 0001:000840a0       ?count_newline_bytes@@YA_JQBD0W4__crt_lowio_text_mode@@@Z 100850a0 f   libucrt:ftell.obj
 0001:00084180       ??$common_asctime_s@D@@YAHQADIQBUtm@@@Z 10085180 f   libucrt:asctime.obj
 0001:000842f1       ??$common_asctime_s_write_value@D@@YAPADPADH_N@Z 100852f1 f   libucrt:asctime.obj
 0001:000843c9       ??$common_localtime_s@_J@@YAHQAUtm@@QB_J@Z 100853c9 f   libucrt:localtime.obj
 0001:00084677       ??$common_timespec_get@U_timespec64@@@@YAHQAU_timespec64@@H@Z 10085677 f   libucrt:time.obj
 0001:00084740       $$000000                   10085740     libucrt:87ctriga.obj
 0001:00084750       $$000000                   10085750     libucrt:strncpy.obj
 0001:00084a06       ??$?RV<lambda_2866be3712abc81a800a822484c830d8>@@AAV<lambda_39ca0ed439415581b5b15c265174cece>@@V<lambda_2b24c74d71094a6cd0cb82e44167d71b>@@@?$__crt_seh_guarded_call@X@@QAEX$$QAV<lambda_2866be3712abc81a800a822484c830d8>@@AAV<lambda_39ca0ed439415581b5b15c265174cece>@@$$QAV<lambda_2b24c74d71094a6cd0cb82e44167d71b>@@@Z 10085a06 f   libucrt:fflush.obj
 0001:00084a87       ??$?RV<lambda_2cc53f568c5a2bb6f192f930a45d44ea>@@AAV<lambda_ab61a845afdef5b7c387490eaf3616ee>@@V<lambda_c2ffc0b7726aa6be21d5f0026187e748>@@@?$__crt_seh_guarded_call@X@@QAEX$$QAV<lambda_2cc53f568c5a2bb6f192f930a45d44ea>@@AAV<lambda_ab61a845afdef5b7c387490eaf3616ee>@@$$QAV<lambda_c2ffc0b7726aa6be21d5f0026187e748>@@@Z 10085a87 f   libucrt:fflush.obj
 0001:00084b29       ??$?RV<lambda_6d20deecaf4856105ebacbad442d1079>@@AAV<lambda_9a32fed5bf61b6b509b2d3f6003082a1>@@V<lambda_63ea2239ed67c638ddbae41947fdf875>@@@?$__crt_seh_guarded_call@H@@QAEH$$QAV<lambda_6d20deecaf4856105ebacbad442d1079>@@AAV<lambda_9a32fed5bf61b6b509b2d3f6003082a1>@@$$QAV<lambda_63ea2239ed67c638ddbae41947fdf875>@@@Z 10085b29 f   libucrt:fflush.obj
 0001:00084b7f       ?common_flush_all@@YAH_N@Z 10085b7f f   libucrt:fflush.obj
 0001:00084bce       ?common_flush_all_should_try_to_flush_stream@@YA_NV__crt_stdio_stream@@QAH@Z 10085bce f   libucrt:fflush.obj
 0001:00084c00       ?is_stream_flushable_or_commitable@@YA_NJ@Z 10085c00 f   libucrt:fflush.obj
 0001:00084f50       ?swap@@YAXPAD0I@Z          10085f50 f   libucrt:qsort.obj
 0001:000853e0       $$000000                   100863e0     libucrt:87fmod_impl.obj
 0001:00085560       $$000000                   10086560     libucrt:acos_sse2_precise.obj
 0001:00085a80       $$000000                   10086a80     libucrt:asin_sse2_precise.obj
 0001:00085fd0       $$000000                   10086fd0     libucrt:atan_sse2_precise.obj
 0001:000862de       __hypothlp                 100872de f   libucrt:hypot.obj
 0001:000866a1       ?_mbstowcs_l_helper@@YAIPA_WPBDIPAU__crt_locale_pointers@@@Z 100876a1 f   libucrt:mbstowcs.obj
 0001:00086c15       ??$?RV<lambda_cd3bfd923e8d1349099e544c97b1bd8e>@@AAV<lambda_54dcfcba6f8e0c549fa430f4d53fb7dd>@@V<lambda_5e1d0fa2aa2b73b187bf8b7e1d30c7f8>@@@?$__crt_seh_guarded_call@I@@QAEI$$QAV<lambda_cd3bfd923e8d1349099e544c97b1bd8e>@@AAV<lambda_54dcfcba6f8e0c549fa430f4d53fb7dd>@@$$QAV<lambda_5e1d0fa2aa2b73b187bf8b7e1d30c7f8>@@@Z 10087c15 f   libucrt:fwrite.obj
 0001:00086c66       ??R<lambda_54dcfcba6f8e0c549fa430f4d53fb7dd>@@QBEIXZ 10087c66 f   libucrt:fwrite.obj
 0001:00086e8b       ??$?RV<lambda_70c0770dcc4f6ec6272bb01dc82d3c91>@@AAV<lambda_ca71763b3c0644891230e4f79ea54fa6>@@V<lambda_ca266f0f09348b8765c113e3a39a2bc1>@@@?$__crt_seh_guarded_call@H@@QAEH$$QAV<lambda_70c0770dcc4f6ec6272bb01dc82d3c91>@@AAV<lambda_ca71763b3c0644891230e4f79ea54fa6>@@$$QAV<lambda_ca266f0f09348b8765c113e3a39a2bc1>@@@Z 10087e8b f   libucrt:setvbuf.obj
 0001:00086edc       ??R<lambda_ca71763b3c0644891230e4f79ea54fa6>@@QBEHXZ 10087edc f   libucrt:setvbuf.obj
 0001:00086f76       ?set_buffer@@YAHV__crt_stdio_stream@@QADIH@Z 10087f76 f   libucrt:setvbuf.obj
 0001:000873f9       ??$?RV<lambda_03b1d95aef87969028cfba75ccab2455>@@AAV<lambda_6e4b09c48022b2350581041d5f6b0c4c>@@V<lambda_22bdf7517842c4b3e53723af5aa32b9e>@@@?$__crt_seh_guarded_call@X@@QAEX$$QAV<lambda_03b1d95aef87969028cfba75ccab2455>@@AAV<lambda_6e4b09c48022b2350581041d5f6b0c4c>@@$$QAV<lambda_22bdf7517842c4b3e53723af5aa32b9e>@@@Z 100883f9 f   libucrt:exit.obj
 0001:0008743c       ??R<lambda_6e4b09c48022b2350581041d5f6b0c4c>@@QBE@XZ 1008843c f   libucrt:exit.obj
 0001:00087518       ?atexit_exception_filter@@YAHK@Z 10088518 f   libucrt:exit.obj
 0001:0008752b       ?common_exit@@YAXHW4_crt_exit_cleanup_mode@@W4_crt_exit_return_mode@@@Z 1008852b f   libucrt:exit.obj
 0001:00087591       ?exit_or_terminate_process@@YAXI@Z 10088591 f   libucrt:exit.obj
 0001:000875d3       ?is_managed_app@@YA_NXZ    100885d3 f   libucrt:exit.obj
 0001:00087617       ?try_cor_exit_process@@YAXI@Z 10088617 f   libucrt:exit.obj
 0001:000876bb       ??$common_configure_argv@D@@YAHW4_crt_argv_mode@@@Z 100886bb f   libucrt:argv_parsing.obj
 0001:000877f1       ??$parse_command_line@D@@YAXPADPAPAD0PAI2@Z 100887f1 f   libucrt:argv_parsing.obj
 0001:000879bf       ??$common_get_or_create_environment_nolock@D@@YAPAPADXZ 100889bf f   libucrt:environment_initialization.obj
 0001:000879eb       ??$common_initialize_environment_nolock@D@@YAHXZ 100889eb f   libucrt:environment_initialization.obj
 0001:00087a3e       ??$create_environment@D@@YAQAPADQAD@Z 10088a3e f   libucrt:environment_initialization.obj
 0001:00087b0f       ??$free_environment@D@@YAXQAPAD@Z 10088b0f f   libucrt:environment_initialization.obj
 0001:00087b0f       ??$free_environment@_W@@YAXQAPA_W@Z 10088b0f f   libucrt:environment_initialization.obj
 0001:00087b3e       ??$initialize_environment_by_cloning_nolock@D@@YAHXZ 10088b3e f   libucrt:environment_initialization.obj
 0001:00087bfd       ??$uninitialize_environment_internal@D@@YAXAAPAPAD@Z 10088bfd f   libucrt:environment_initialization.obj
 0001:00087c18       ??$uninitialize_environment_internal@_W@@YAXAAPAPA_W@Z 10088c18 f   libucrt:environment_initialization.obj
 0001:00087c74       ??$?RV<lambda_69a2805e680e0e292e8ba93315fe43a8>@@AAV<lambda_f03950bc5685219e0bcd2087efbe011e>@@V<lambda_03fcd07e894ec930e3f35da366ca99d6>@@@?$__crt_seh_guarded_call@H@@QAEH$$QAV<lambda_69a2805e680e0e292e8ba93315fe43a8>@@AAV<lambda_f03950bc5685219e0bcd2087efbe011e>@@$$QAV<lambda_03fcd07e894ec930e3f35da366ca99d6>@@@Z 10088c74 f   libucrt:onexit.obj
 0001:00087cc5       ??$?RV<lambda_7ac4055421038abea736e08bd20712a4>@@AAV<lambda_a10e4b102d4a2c3aac6f4f48bbdf488f>@@V<lambda_1da61822885009acd1bf848af4f9644b>@@@?$__crt_seh_guarded_call@H@@QAEH$$QAV<lambda_7ac4055421038abea736e08bd20712a4>@@AAV<lambda_a10e4b102d4a2c3aac6f4f48bbdf488f>@@$$QAV<lambda_1da61822885009acd1bf848af4f9644b>@@@Z 10088cc5 f   libucrt:onexit.obj
 0001:00087d35       ??R<lambda_a10e4b102d4a2c3aac6f4f48bbdf488f>@@QBEHXZ 10088d35 f   libucrt:onexit.obj
 0001:00087e76       ??R<lambda_f03950bc5685219e0bcd2087efbe011e>@@QBEHXZ 10088e76 f   libucrt:onexit.obj
 0001:00088051       _initialize_global_variables 10089051 f   libucrt:initialization.obj
 0001:0008805e       _initialize_c              1008905e f   libucrt:initialization.obj
 0001:00088078       _uninitialize_environment  10089078 f   libucrt:initialization.obj
 0001:00088080       _initialize_pointers       10089080 f   libucrt:initialization.obj
 0001:000880bd       _uninitialize_vcruntime    100890bd f   libucrt:initialization.obj
 0001:000880c6       _uninitialize_allocated_memory 100890c6 f   libucrt:initialization.obj
 0001:000880df       _uninitialize_allocated_io_buffers 100890df f   libucrt:initialization.obj
 0001:0008812f       ??R<lambda_af42a3ee9806e9a7305d451646e05244>@@QBEXAAPAU__crt_multibyte_data@@@Z 1008912f f   libucrt:initialization.obj
 0001:00089026       ??$?RV<lambda_0fef6fff2b5e6b53303c9058db11ae1f>@@AAV<lambda_082c17da81b0962e08c0587ee0fac50c>@@V<lambda_fa6e051aed0a38726081083cc7c328e9>@@@?$__crt_seh_guarded_call@PAD@@QAEPAD$$QAV<lambda_0fef6fff2b5e6b53303c9058db11ae1f>@@AAV<lambda_082c17da81b0962e08c0587ee0fac50c>@@$$QAV<lambda_fa6e051aed0a38726081083cc7c328e9>@@@Z 1008a026 f   libucrt:setlocale.obj
 0001:00089077       ??R<lambda_082c17da81b0962e08c0587ee0fac50c>@@QBEPADXZ 1008a077 f   libucrt:setlocale.obj
 0001:000891e1       _call_wsetlocale           1008a1e1 f   libucrt:setlocale.obj
 0001:00089410       $$000000                   1008a410     libucrt:strcspn.obj
 0001:00089460       $$000000                   1008a460     libucrt:pow_impl.obj
 0001:000899da       ?x_ismbbtype_l@@YAHPAU__crt_locale_pointers@@IHH@Z 1008a9da f   libucrt:ismbbyte.obj
 0001:00089ae0       $$000000                   1008aae0     libucrt:strncmp.obj
 0001:00089eed       ??$?RV<lambda_15ade71b0218206bbe3333a0c9b79046>@@AAV<lambda_da44e0f8b0f19ba52fefafb335991732>@@V<lambda_207f2d024fc103971653565357d6cd41>@@@?$__crt_seh_guarded_call@X@@QAEX$$QAV<lambda_15ade71b0218206bbe3333a0c9b79046>@@AAV<lambda_da44e0f8b0f19ba52fefafb335991732>@@$$QAV<lambda_207f2d024fc103971653565357d6cd41>@@@Z 1008aeed f   libucrt:per_thread_data.obj
 0001:00089f35       ??$?RV<lambda_38edbb1296d33220d7e4dd0ed76b244a>@@AAV<lambda_5ce1d447e08cb34b2473517608e21441>@@V<lambda_fb385d3da700c9147fc39e65dd577a8c>@@@?$__crt_seh_guarded_call@X@@QAEX$$QAV<lambda_38edbb1296d33220d7e4dd0ed76b244a>@@AAV<lambda_5ce1d447e08cb34b2473517608e21441>@@$$QAV<lambda_fb385d3da700c9147fc39e65dd577a8c>@@@Z 1008af35 f   libucrt:per_thread_data.obj
 0001:00089f96       ??$?RV<lambda_6affb1475c98b40b75cdec977db92e3c>@@AAV<lambda_b8d4b9c228a6ecc3f80208dbb4b4a104>@@V<lambda_608742c3c92a14382c1684fc64f96c88>@@@?$__crt_seh_guarded_call@X@@QAEX$$QAV<lambda_6affb1475c98b40b75cdec977db92e3c>@@AAV<lambda_b8d4b9c228a6ecc3f80208dbb4b4a104>@@$$QAV<lambda_608742c3c92a14382c1684fc64f96c88>@@@Z 1008af96 f   libucrt:per_thread_data.obj
 0001:00089fe1       ??$?RV<lambda_a7e850c220f1c8d1e6efeecdedd162c6>@@AAV<lambda_46720907175c18b6c9d2717bc0d2d362>@@V<lambda_9048902d66e8d99359bc9897bbb930a8>@@@?$__crt_seh_guarded_call@X@@QAEX$$QAV<lambda_a7e850c220f1c8d1e6efeecdedd162c6>@@AAV<lambda_46720907175c18b6c9d2717bc0d2d362>@@$$QAV<lambda_9048902d66e8d99359bc9897bbb930a8>@@@Z 1008afe1 f   libucrt:per_thread_data.obj
 0001:0008a031       ?construct_ptd@@YAXQAU__acrt_ptd@@QAPAU__crt_locale_data@@@Z 1008b031 f   libucrt:per_thread_data.obj
 0001:0008a0cc       ?destroy_fls@@YGXPAX@Z     1008b0cc f   libucrt:per_thread_data.obj
 0001:0008a0ed       ?destroy_ptd@@YAXQAU__acrt_ptd@@@Z 1008b0ed f   libucrt:per_thread_data.obj
 0001:0008a1bc       ?replace_current_thread_locale_nolock@@YAXQAU__acrt_ptd@@QAU__crt_locale_data@@@Z 1008b1bc f   libucrt:per_thread_data.obj
 0001:0008a507       ??$?RV<lambda_303d0ad9bde654cb3f803a73716ce7a4>@@AAV<lambda_92fe181106aff629c9a2e25713a64969>@@V<lambda_184325e10b6cff6f771390cbceab281b>@@@?$__crt_seh_guarded_call@X@@QAEX$$QAV<lambda_303d0ad9bde654cb3f803a73716ce7a4>@@AAV<lambda_92fe181106aff629c9a2e25713a64969>@@$$QAV<lambda_184325e10b6cff6f771390cbceab281b>@@@Z 1008b507 f   libucrt:wsetlocale.obj
 0001:0008a54a       ??$?RV<lambda_38c1253c7a74f5d2d430989951395d98>@@AAV<lambda_b163b37eafe0a13f2c371fafeb0365c9>@@AAV<lambda_8dff2cf36a5417162780cd64fa2883ef>@@@?$__crt_seh_guarded_call@X@@QAEX$$QAV<lambda_38c1253c7a74f5d2d430989951395d98>@@AAV<lambda_b163b37eafe0a13f2c371fafeb0365c9>@@AAV<lambda_8dff2cf36a5417162780cd64fa2883ef>@@@Z 1008b54a f   libucrt:wsetlocale.obj
 0001:0008a585       ??$?RV<lambda_e5124f882df8998aaf41531e079ba474>@@AAV<lambda_3e16ef9562a7dcce91392c22ab16ea36>@@V<lambda_e25ca0880e6ef98be67edffd8c599615>@@@?$__crt_seh_guarded_call@X@@QAEX$$QAV<lambda_e5124f882df8998aaf41531e079ba474>@@AAV<lambda_3e16ef9562a7dcce91392c22ab16ea36>@@$$QAV<lambda_e25ca0880e6ef98be67edffd8c599615>@@@Z 1008b585 f   libucrt:wsetlocale.obj
 0001:0008a5e9       ??R<lambda_92fe181106aff629c9a2e25713a64969>@@QBEXXZ 1008b5e9 f   libucrt:wsetlocale.obj
 0001:0008a6e7       ??R<lambda_b163b37eafe0a13f2c371fafeb0365c9>@@QBE@XZ 1008b6e7 f   libucrt:wsetlocale.obj
 0001:0008a98c       __copytlocinfo_nolock      1008b98c f   libucrt:wsetlocale.obj
 0001:0008adf8       __wsetlocale_get_all       1008bdf8 f   libucrt:wsetlocale.obj
 0001:0008af91       __wsetlocale_nolock        1008bf91 f   libucrt:wsetlocale.obj
 0001:0008b276       __wsetlocale_set_cat       1008c276 f   libucrt:wsetlocale.obj
 0001:0008b642       ?initialize_inherited_file_handles_nolock@@YAXXZ 1008c642 f   libucrt:ioinit.obj
 0001:0008b6fa       ?initialize_stdio_handles_nolock@@YAXXZ 1008c6fa f   libucrt:ioinit.obj
 0001:0008ba50       $$000000                   1008ca50     libucrt:sqrt.obj
 0001:0008bac7       ?fp_format_a@@YAHQBNPADIQADIH_NIQAU__crt_locale_pointers@@@Z 1008cac7 f   libucrt:cvt.obj
 0001:0008bdd4       ?fp_format_e@@YAHQBNQADI1IH_NIQAU__crt_locale_pointers@@@Z 1008cdd4 f   libucrt:cvt.obj
 0001:0008be78       ?fp_format_e_internal@@YAHQADIH_NIQAU_strflt@@1QAU__crt_locale_pointers@@@Z 1008ce78 f   libucrt:cvt.obj
 0001:0008bfc2       ?fp_format_f@@YAHQBNQADI1IHQAU__crt_locale_pointers@@@Z 1008cfc2 f   libucrt:cvt.obj
 0001:0008c04f       ?fp_format_f_internal@@YAHQADIHQAU_strflt@@_NQAU__crt_locale_pointers@@@Z 1008d04f f   libucrt:cvt.obj
 0001:0008c138       ?fp_format_g@@YAHQBNQADI1IH_NIQAU__crt_locale_pointers@@@Z 1008d138 f   libucrt:cvt.obj
 0001:0008c1fb       ?fp_format_nan_or_infinity@@YAHW4__acrt_fp_class@@_NPADI1@Z 1008d1fb f   libucrt:cvt.obj
 0001:0008c2f0       ?shift_bytes@@YAXQADI0H@Z  1008d2f0 f   libucrt:cvt.obj
 0001:0008c560       $$000000                   1008d560     libucrt:cos_impl.obj
 0001:0008c650       $$000000                   1008d650     libucrt:87ctran.obj
 0001:0008c6a0       $$000000                   1008d6a0     libucrt:sin_impl.obj
 0001:0008c97b       ?__acrt_LCMapStringA_stat@@YAHPAU__crt_locale_pointers@@PB_WKPBDHPADHHH@Z 1008d97b f   libucrt:lcmapstringa.obj
 0001:0008cc36       ??$translate_control_exception_mask@W4__acrt_fenv_machine_sse_control@@W4__acrt_fenv_abstract_control@@@@YA?AW4__acrt_fenv_machine_sse_control@@W4__acrt_fenv_abstract_control@@@Z 1008dc36 f   libucrt:_fenvutils.obj
 0001:0008ccbf       ?to_abstract_control@@YA?AW4__acrt_fenv_abstract_control@@W4__acrt_fenv_machine_sse_control@@@Z 1008dcbf f   libucrt:_fenvutils.obj
 0001:0008cd7b       ?to_abstract_control@@YA?AW4__acrt_fenv_abstract_control@@W4__acrt_fenv_machine_x87_control@@@Z 1008dd7b f   libucrt:_fenvutils.obj
 0001:0008ce38       ?to_machine_sse_control@@YA?AW4__acrt_fenv_machine_sse_control@@W4__acrt_fenv_abstract_control@@@Z 1008de38 f   libucrt:_fenvutils.obj
 0001:0008cecc       ?to_machine_x87_control@@YA?AW4__acrt_fenv_machine_x87_control@@W4__acrt_fenv_abstract_control@@@Z 1008decc f   libucrt:_fenvutils.obj
 0001:0008d29a       ??$?RV<lambda_218ce3db14220d0be481dae8ef3383b6>@@AAV<lambda_628dfdc04ba53c8bfc02c9951375f3f5>@@V<lambda_57dc472bd5c9d5f3b2cbca59b8a843ae>@@@?$__crt_seh_guarded_call@H@@QAEH$$QAV<lambda_218ce3db14220d0be481dae8ef3383b6>@@AAV<lambda_628dfdc04ba53c8bfc02c9951375f3f5>@@$$QAV<lambda_57dc472bd5c9d5f3b2cbca59b8a843ae>@@@Z 1008e29a f   libucrt:close.obj
 0001:0008d4e1       ?find_or_allocate_unused_stream_nolock@@YA?AV__crt_stdio_stream@@XZ 1008e4e1 f   libucrt:stream.obj
 0001:0008da59       ??$common_openfile@D@@YAPAU_iobuf@@QBD0HV__crt_stdio_stream@@@Z 1008ea59 f   libucrt:openfile.obj
 0001:0008dade       ??$common_openfile@_W@@YAPAU_iobuf@@QB_W0HV__crt_stdio_stream@@@Z 1008eade f   libucrt:openfile.obj
 0001:0008dc6c       ??$translate_text_mode_nolock@D@@YAHHQADI@Z 1008ec6c f   libucrt:read.obj
 0001:0008ddb8       ??$translate_text_mode_nolock@_W@@YAHHQA_WI@Z 1008edb8 f   libucrt:read.obj
 0001:0008df60       ?translate_ansi_or_utf8_nolock@@YAHHQADIQA_WI@Z 1008ef60 f   libucrt:read.obj
 0001:0008e0b7       ?translate_utf16_from_console_nolock@@YAHHQA_WI@Z 1008f0b7 f   libucrt:read.obj
 0001:0008e5ec       ??$common_refill_and_read_nolock@D@@YAHV__crt_stdio_stream@@@Z 1008f5ec f   libucrt:_filbuf.obj
 0001:0008e77a       ??$common_lseek@_J@@YA_JH_JH@Z 1008f77a f   libucrt:lseek.obj
 0001:0008e87c       ??$common_lseek_nolock@_J@@YA_JH_JH@Z 1008f87c f   libucrt:lseek.obj
 0001:0008ea31       ??$common_gmtime_s@_J@@YAHQAUtm@@QB_J@Z 1008fa31 f   libucrt:gmtime.obj
 0001:0008eb7d       ?compute_year@@YAHAA_JAA_N@Z 1008fb7d f   libucrt:gmtime.obj
 0001:0008ec62       ?_isindst_nolock@@YAHQAUtm@@@Z 1008fc62 f   libucrt:tzset.obj
 0001:0008ee49       ?cvtdate@@YAXW4transition_type@?A0x7639d0b4@@W4date_type@2@HHHHHHHHH@Z 1008fe49 f   libucrt:tzset.obj
 0001:0008ef98       ?tzset_from_environment_nolock@@YAXPAD@Z 1008ff98 f   libucrt:tzset.obj
 0001:0008f16b       ?tzset_from_system_nolock@@YAXXZ 1009016b f   libucrt:tzset.obj
 0001:0008f2c6       ?tzset_nolock@@YAXXZ       100902c6 f   libucrt:tzset.obj
 0001:0008f441       ?<lambda_invoker_stdcall>@<lambda_29d3c280b90b41c2ae070ffca879996a>@@CGHPA_W@Z 10090441 f   libucrt:winapi_thunks.obj
 0001:0008f44e       ??$?RV<lambda_93797fb4802c957ba6a7f08e1250235b>@@AAV<lambda_1f3ce6bd48e0aa2e72a71c02eee379d3>@@V<lambda_56cae30c9364c9b6c15aeaac05d0418e>@@@?$__crt_seh_guarded_call@H@@QAEH$$QAV<lambda_93797fb4802c957ba6a7f08e1250235b>@@AAV<lambda_1f3ce6bd48e0aa2e72a71c02eee379d3>@@$$QAV<lambda_56cae30c9364c9b6c15aeaac05d0418e>@@@Z 1009044e f   libucrt:winapi_thunks.obj
 0001:0008f4d2       ??R<lambda_29d3c280b90b41c2ae070ffca879996a>@@QBEHPA_W@Z 100904d2 f   libucrt:winapi_thunks.obj
 0001:0008f518       ?try_get_AreFileApisANSI@@YAP6GHXZXZ 10090518 f   libucrt:winapi_thunks.obj
 0001:0008f532       ?try_get_CompareStringEx@@YAP6GHPB_WK0H0HPAU_nlsversioninfo@@PAXJ@ZXZ 10090532 f   libucrt:winapi_thunks.obj
 0001:0008f54c       ?try_get_EnumSystemLocalesEx@@YAP6GHP6GHPA_WKJ@ZKJPAX@ZXZ 1009054c f   libucrt:winapi_thunks.obj
 0001:0008f566       ?try_get_GetDateFormatEx@@YAP6GHPB_WKPBU_SYSTEMTIME@@0PA_WH0@ZXZ 10090566 f   libucrt:winapi_thunks.obj
 0001:0008f580       ?try_get_GetLocaleInfoEx@@YAP6GHPB_WKPA_WH@ZXZ 10090580 f   libucrt:winapi_thunks.obj
 0001:0008f59a       ?try_get_GetTimeFormatEx@@YAP6GHPB_WKPBU_SYSTEMTIME@@0PA_WH@ZXZ 1009059a f   libucrt:winapi_thunks.obj
 0001:0008f5b4       ?try_get_GetUserDefaultLocaleName@@YAP6GHPA_WH@ZXZ 100905b4 f   libucrt:winapi_thunks.obj
 0001:0008f5ce       ?try_get_IsValidLocaleName@@YAP6GHPB_W@ZXZ 100905ce f   libucrt:winapi_thunks.obj
 0001:0008f5e8       ?try_get_LCIDToLocaleName@@YAP6GHKPA_WHK@ZXZ 100905e8 f   libucrt:winapi_thunks.obj
 0001:0008f602       ?try_get_LCMapStringEx@@YAP6GHPB_WK0HPA_WHPAU_nlsversioninfo@@PAXJ@ZXZ 10090602 f   libucrt:winapi_thunks.obj
 0001:0008f61c       ?try_get_LocaleNameToLCID@@YAP6GKPB_WK@ZXZ 1009061c f   libucrt:winapi_thunks.obj
 0001:0008f636       ?try_get_first_available_module@@YAPAUHINSTANCE__@@QBW4module_id@?A0x391cf84c@@0@Z 10090636 f   libucrt:winapi_thunks.obj
 0001:0008f6fe       ?try_get_function@@YAPAXW4function_id@?A0x391cf84c@@QBDQBW4module_id@2@2@Z 100906fe f   libucrt:winapi_thunks.obj
 0001:0008fe20       $$000000                   10090e20     libucrt:87triga.obj
 0001:0008fed0       $$000000                   10090ed0     libucrt:87cdisp.obj
 0001:00090207       ??$?RV<lambda_9e9de3de5fa147e2223d7db92bc10aa6>@@AAV<lambda_38ce7e780aa69e748d6df282ebc68efe>@@V<lambda_8ca6da459f0f6780f1cff60fdc3d00e5>@@@?$__crt_seh_guarded_call@H@@QAEH$$QAV<lambda_9e9de3de5fa147e2223d7db92bc10aa6>@@AAV<lambda_38ce7e780aa69e748d6df282ebc68efe>@@$$QAV<lambda_8ca6da459f0f6780f1cff60fdc3d00e5>@@@Z 10091207 f   libucrt:commit.obj
 0001:0009031e       ?write_double_translated_ansi_nolock@@YA?AUwrite_result@?A0x17268360@@HQBDI@Z 1009131e f   libucrt:write.obj
 0001:000904e2       ?write_double_translated_unicode_nolock@@YA?AUwrite_result@?A0x17268360@@QBDI@Z 100914e2 f   libucrt:write.obj
 0001:0009054f       ?write_requires_double_translation_nolock@@YA_NH@Z 1009154f f   libucrt:write.obj
 0001:000905c5       ?write_text_ansi_nolock@@YA?AUwrite_result@?A0x17268360@@HQBDI@Z 100915c5 f   libucrt:write.obj
 0001:000906a4       ?write_text_utf16le_nolock@@YA?AUwrite_result@?A0x17268360@@HQBDI@Z 100916a4 f   libucrt:write.obj
 0001:00090792       ?write_text_utf8_nolock@@YA?AUwrite_result@?A0x17268360@@HQBDI@Z 10091792 f   libucrt:write.obj
 0001:00090bc0       $$000000                   10091bc0     libucrt:87disp.obj
 0001:00090e50       $$000000                   10091e50     libucrt:acos_impl.obj
 0001:00090f60       $$000000                   10091f60     libucrt:asin_impl.obj
 0001:00091070       $$000000                   10092070     libucrt:atan_impl.obj
 0001:00091370       $$000000                   10092370     libucrt:sqrt_impl.obj
 0001:00091440       ??$common_flush_and_write_nolock@D@@YAHHV__crt_stdio_stream@@@Z 10092440 f   libucrt:_flsbuf.obj
 0001:00091551       ??$write_buffer_nolock@D@@YA_NDV__crt_stdio_stream@@@Z 10092551 f   libucrt:_flsbuf.obj
 0001:000916b7       ?<lambda_invoker_cdecl>@<lambda_86056e3c024bff449830248dc1621ed2>@@CAHPBX0@Z 100926b7 f   libucrt:argv_wildcards.obj
 0001:000916cf       ??$common_expand_argv_wildcards@D@@YAHQAPADQAPAPAD@Z 100926cf f   libucrt:argv_wildcards.obj
 0001:000918af       ??$copy_and_add_argument_to_buffer@D@@YAHQBD0IAAV?$argument_list@D@?A0x5f5c8891@@@Z 100928af f   libucrt:argv_wildcards.obj
 0001:00091962       ??$expand_argument_wildcards@D@@YAHQAD0AAV?$argument_list@D@?A0x5f5c8891@@@Z 10092962 f   libucrt:argv_wildcards.obj
 0001:00091ae2       ?expand_if_necessary@?$argument_list@D@?A0x5f5c8891@@AAEHXZ 10092ae2 f   libucrt:argv_wildcards.obj
 0001:00091b74       ??$?RV<lambda_ceb1ee4838e85a9d631eb091e2fbe199>@@AAV<lambda_ae742caa10f662c28703da3d2ea5e57e>@@V<lambda_cd08b5d6af4937fe54fc07d0c9bf6b37>@@@?$__crt_seh_guarded_call@X@@QAEX$$QAV<lambda_ceb1ee4838e85a9d631eb091e2fbe199>@@AAV<lambda_ae742caa10f662c28703da3d2ea5e57e>@@$$QAV<lambda_cd08b5d6af4937fe54fc07d0c9bf6b37>@@@Z 10092b74 f   libucrt:mbctype.obj
 0001:00091bb7       ??R<lambda_ae742caa10f662c28703da3d2ea5e57e>@@QBEXXZ 10092bb7 f   libucrt:mbctype.obj
 0001:00091c3a       ?CPtoLocaleName@@YAPB_WH@Z 10092c3a f   libucrt:mbctype.obj
 0001:00091c78       ?getSystemCP@@YAHH@Z       10092c78 f   libucrt:mbctype.obj
 0001:00091ceb       ?setSBCS@@YAXPAU__crt_multibyte_data@@@Z 10092ceb f   libucrt:mbctype.obj
 0001:00091d50       ?setSBUpLow@@YAXPAU__crt_multibyte_data@@@Z 10092d50 f   libucrt:mbctype.obj
 0001:00091ee4       ?setmbcp_internal@@YAHH_NQAU__acrt_ptd@@QAPAU__crt_multibyte_data@@@Z 10092ee4 f   libucrt:mbctype.obj
 0001:00091fff       ?update_thread_multibyte_data_internal@@YAPAU__crt_multibyte_data@@QAU__acrt_ptd@@QAPAU1@@Z 10092fff f   libucrt:mbctype.obj
 0001:00092300       ?find_end_of_double_null_terminated_sequence@@YAPB_WQB_W@Z 10093300 f   libucrt:get_environment_from_os.obj
 0001:000923ba       ??$common_set_variable_in_environment_nolock@D@@YAHQADH@Z 100933ba f   libucrt:setenv.obj
 0001:000925f9       ??$copy_environment@D@@YAPAPADQAPAD@Z 100935f9 f   libucrt:setenv.obj
 0001:000926aa       ??$ensure_current_environment_is_not_initial_environment_nolock@D@@YAXXZ 100936aa f   libucrt:setenv.obj
 0001:000926c4       ??$find_in_environment_nolock@D@@YAHQBDI@Z 100936c4 f   libucrt:setenv.obj
 0001:00092881       ??$?RV<lambda_cbab9ec6f41b0180b23cc171c22676b0>@@AAV<lambda_44731a7d0e6d81c3e6aa82d741081786>@@V<lambda_4b292cb8dd18144e164572427af410ab>@@@?$__crt_seh_guarded_call@P6AXH@Z@@QAEP6AXH@Z$$QAV<lambda_cbab9ec6f41b0180b23cc171c22676b0>@@AAV<lambda_44731a7d0e6d81c3e6aa82d741081786>@@$$QAV<lambda_4b292cb8dd18144e164572427af410ab>@@@Z 10093881 f   libucrt:signal.obj
 0001:000928db       ?get_global_action_nolock@@YAPAP6AXH@ZH@Z 100938db f   libucrt:signal.obj
 0001:0009291d       ?siglookup@@YAPAU__crt_signal_action_t@@HQAU1@@Z 1009391d f   libucrt:signal.obj
 0001:00092c01       ?InternalGetLocaleInfoA@@YAHQAU__crt_locale_pointers@@QB_WKQADH@Z 10093c01 f   libucrt:getlocaleinfoa.obj
 0001:00092f96       ?_wcstombs_l_helper@@YAIPADPB_WIPAU__crt_locale_pointers@@@Z 10093f96 f   libucrt:wcstombs.obj
 0001:00093390       $$000000                   10094390     libucrt:pow_pentium4.obj
 0001:00093eb0       $$000000                   10094eb0     libucrt:87tran.obj
 0001:000940b0       $$000000                   100950b0     libucrt:genexcep.obj
 0001:00094110       $$000000                   10095110     libucrt:common.obj
 0001:000950a8       ?free_crt_array_internal@@YAXQAPBXI@Z 100960a8 f   libucrt:inittime.obj
 0001:000950e0       ?initialize_lc_time@@YA_NQAU__crt_lc_time_data@@QAU__crt_locale_data@@@Z 100960e0 f   libucrt:inittime.obj
 0001:00095536       ??$common_tcsncpy_s@_W@@YAHQA_WIQB_WI@Z 10096536 f   libucrt:wcsncpy_s.obj
 0001:000956a3       _GetLocaleNameFromDefault  100966a3 f   libucrt:get_qualified_locale.obj
 0001:0009572c       _GetLocaleNameFromLangCountry 1009672c f   libucrt:get_qualified_locale.obj
 0001:000957c7       _GetLocaleNameFromLanguage 100967c7 f   libucrt:get_qualified_locale.obj
 0001:00095823       _GetPrimaryLen             10096823 f   libucrt:get_qualified_locale.obj
 0001:00095857       _LangCountryEnumProcEx@12  10096857 f   libucrt:get_qualified_locale.obj
 0001:00095b41       _LanguageEnumProcEx@12     10096b41 f   libucrt:get_qualified_locale.obj
 0001:00095c02       _ProcessCodePage           10096c02 f   libucrt:get_qualified_locale.obj
 0001:00095ce9       _TestDefaultCountry        10096ce9 f   libucrt:get_qualified_locale.obj
 0001:00095d34       _TranslateName             10096d34 f   libucrt:get_qualified_locale.obj
 0001:00095f7d       _CountryEnumProc@4         10096f7d f   libucrt:getqloc_downlevel.obj
 0001:00096026       _GetLcidFromCountry        10097026 f   libucrt:getqloc_downlevel.obj
 0001:00096071       _GetLcidFromLangCountry    10097071 f   libucrt:getqloc_downlevel.obj
 0001:0009610c       _GetLcidFromLanguage       1009710c f   libucrt:getqloc_downlevel.obj
 0001:0009616e       _GetPrimaryLen             1009716e f   libucrt:getqloc_downlevel.obj
 0001:0009619a       _LangCountryEnumProc@4     1009719a f   libucrt:getqloc_downlevel.obj
 0001:000963ea       _LanguageEnumProc@4        100973ea f   libucrt:getqloc_downlevel.obj
 0001:000964c2       _LcidFromHexString         100974c2 f   libucrt:getqloc_downlevel.obj
 0001:00096513       _ProcessCodePage           10097513 f   libucrt:getqloc_downlevel.obj
 0001:000965f6       _TestDefaultCountry        100975f6 f   libucrt:getqloc_downlevel.obj
 0001:0009661b       _TestDefaultLanguage       1009761b f   libucrt:getqloc_downlevel.obj
 0001:0009668b       _TranslateName             1009768b f   libucrt:getqloc_downlevel.obj
 0001:000981a0       $$000000                   100991a0     libucrt:cos_pentium4.obj
 0001:00098350       $$000000                   10099350     libucrt:exp_pentium4.obj
 0001:00098610       $$000000                   10099610     libucrt:sin_pentium4.obj
 0001:00098ae2       ??$common_sopen_dispatch@D@@YAHQBDHHHQAHH@Z 10099ae2 f   libucrt:open.obj
 0001:00098b99       ??$common_sopen_dispatch@_W@@YAHQB_WHHHQAHH@Z 10099b99 f   libucrt:open.obj
 0001:00098c50       ?configure_text_mode@@YAHHUfile_options@?A0xa9d50aae@@HAAW4__crt_lowio_text_mode@@@Z 10099c50 f   libucrt:open.obj
 0001:00098e99       ?create_file@@YAPAXQB_WQAU_SECURITY_ATTRIBUTES@@Ufile_options@?A0xa9d50aae@@@Z 10099e99 f   libucrt:open.obj
 0001:00098ebe       ?decode_open_create_flags@@YAKH@Z 10099ebe f   libucrt:open.obj
 0001:00098f2e       ?decode_options@@YA?AUfile_options@?A0xa9d50aae@@HHH@Z 10099f2e f   libucrt:open.obj
 0001:000990aa       ?truncate_ctrl_z_if_present@@YAHH@Z 1009a0aa f   libucrt:open.obj
 0001:00099514       ??$common_getenv_nolock@D@@YAPADQBD@Z 1009a514 f   libucrt:getenv.obj
 0001:00099584       ??$common_getenv_s@D@@YAHQAIQADIQBD@Z 1009a584 f   libucrt:getenv.obj
 0001:000995d9       ??$common_getenv_s_nolock@D@@YAHQAIQADIQBD@Z 1009a5d9 f   libucrt:getenv.obj
 0001:0009968c       ??$common_tcsncpy_s@D@@YAHQADIQBDI@Z 1009a68c f   libucrt:strncpy_s.obj
 0001:00099748       ?GetTableIndexFromLocaleName@@YAHPB_W@Z 1009a748 f   libucrt:lcidtoname_downlevel.obj
 0001:00099b90       $$000000                   1009ab90     libucrt:acos_pentium4.obj
 0001:0009a0f0       $$000000                   1009b0f0     libucrt:asin_pentium4.obj
 0001:0009a670       $$000000                   1009b670     libucrt:atan_pentium4.obj
 0001:0009a940       $$000000                   1009b940     libucrt:strpbrk.obj
 0001:0009aa0e       ?initialize_multibyte@@YAHXZ 1009ba0e f   libucrt:multibyte_initializer.obj
 0001:0009ab4e       ??$common_xtox@K_W@@YAHKQA_WII_N@Z 1009bb4e f   libucrt:xtoa.obj
 0001:0009abe3       ??$common_xtox_s@K_W@@YAHKQA_WII_N@Z 1009bbe3 f   libucrt:xtoa.obj
 0001:0009ad50       $$000000                   1009bd50     libucrt:log10_impl.obj
 0001:0009ae60       $$000000                   1009be60     libucrt:_strnicm.obj
 0001:0009b216       ?__dcrt_lowio_initialize_console_output@@YAXXZ 1009c216 f   libucrt:initcon.obj
 0001:0009b2c0       ?InternalCompareStringA@@YAHPAU__crt_locale_pointers@@PB_WKPBDH2HH@Z 1009c2c0 f   libucrt:comparestringa.obj
 0001:0009b660       $$000000                   1009c660     libucrt:log10_pentium4.obj
 0001:0009b980       $$000000                   1009c980     LIBCMT:llmul.obj
 0001:0009b9c0       $$000000                   1009c9c0     LIBCMT:ulldiv.obj
 0001:0009bb80       $$000000                   1009cb80     LIBCMT:ulldvrm.obj
 0001:0009bc20       $$000000                   1009cc20     LIBCMT:llshl.obj
 0001:0009bc40       $$000000                   1009cc40     LIBCMT:ullshr.obj
 0001:0009bc60       $$000000                   1009cc60     LIBCMT:lldiv.obj
 0001:0009bd10       $$000000                   1009cd10     LIBCMT:llrem.obj
 0001:0009bdd0       $$000000                   1009cdd0     LIBCMT:lldvrm.obj
 0001:0009beb0       $$000000                   1009ceb0     LIBCMT:_sehprolg4gs_.obj
 0001:0009bf10       $$000000                   1009cf10     libvcruntime:strrchr.obj
 0001:0009c120       __ehhandler$??$_Construct@PA_S@?$basic_string@DU?$char_traits@D@std@@V?$allocator@D@2@@std@@QAEXPA_SQA_SUinput_iterator_tag@1@@Z 1009d120 f   Parser.obj
 0001:0009c140       __ehhandler$??$emplace_back@ABV?$shared_ptr@VNode@valve_parser@@@std@@@?$vector@V?$shared_ptr@VNode@valve_parser@@@std@@V?$allocator@V?$shared_ptr@VNode@valve_parser@@@std@@@2@@std@@QAEXABV?$shared_ptr@VNode@valve_parser@@@1@@Z 1009d140 f   Parser.obj
 0001:0009c160       __unwindfunclet$?GetKeyByName@Object@valve_parser@@QAE?AV?$shared_ptr@VNode@valve_parser@@@std@@PAD@Z$1 1009d160 f   Parser.obj
 0001:0009c168       __ehhandler$?GetKeyByName@Object@valve_parser@@QAE?AV?$shared_ptr@VNode@valve_parser@@@std@@PAD@Z 1009d168 f   Parser.obj
 0001:0009c190       __unwindfunclet$?Parse@Node@valve_parser@@UAE_NXZ$0 1009d190 f   Parser.obj
 0001:0009c190       __unwindfunclet$?Parse@Object@valve_parser@@UAE_NXZ$0 1009d190 f   Parser.obj
 0001:0009c198       __ehhandler$?Parse@Node@valve_parser@@UAE_NXZ 1009d198 f   Parser.obj
 0001:0009c198       __ehhandler$?Parse@Object@valve_parser@@UAE_NXZ 1009d198 f   Parser.obj
 0001:0009c1c0       __unwindfunclet$?toString@Str@valve_parser@@QAE?AV?$basic_string@DU?$char_traits@D@std@@V?$allocator@D@2@@std@@XZ$1 1009d1c0 f   Parser.obj
 0001:0009c1c8       __ehhandler$?toString@Str@valve_parser@@QAE?AV?$basic_string@DU?$char_traits@D@std@@V?$allocator@D@2@@std@@XZ 1009d1c8 f   Parser.obj
 0001:0009c1f0       __ehhandler$??$_Insert_hint@AAU?$pair@$$CBW4ItemDefinitionIndexx@@UDefItem_t@@@std@@PAU?$_Tree_node@U?$pair@$$CBW4ItemDefinitionIndexx@@UDefItem_t@@@std@@PAX@2@@?$_Tree@V?$_Tmap_traits@W4ItemDefinitionIndexx@@UDefItem_t@@U?$less@W4ItemDefinitionIndexx@@@std@@V?$allocator@U?$pair@$$CBW4ItemDefinitionIndexx@@UDefItem_t@@@std@@@4@$0A@@std@@@std@@IAE?AV?$_Tree_iterator@V?$_Tree_val@U?$_Tree_simple_types@U?$pair@$$CBW4ItemDefinitionIndexx@@UDefItem_t@@@std@@@std@@@std@@@1@V?$_Tree_const_iterator@V?$_Tree_val@U?$_Tree_simple_types@U?$pair@$$CBW4ItemDefinitionIndexx@@UDefItem_t@@@std@@@std@@@std@@@1@AAU?$pair@$$CBW4ItemDefinitionIndexx@@UDefItem_t@@@1@PAU?$_Tree_node@U?$pair@$$CBW4ItemDefinitionIndexx@@UDefItem_t@@@std@@PAX@1@@Z 1009d1f0 f   recvproxy.obj
 0001:0009c210       __ehhandler$??$_Insert_nohint@AAU?$pair@$$CBW4ItemDefinitionIndexx@@UDefItem_t@@@std@@PAU?$_Tree_node@U?$pair@$$CBW4ItemDefinitionIndexx@@UDefItem_t@@@std@@PAX@2@@?$_Tree@V?$_Tmap_traits@W4ItemDefinitionIndexx@@UDefItem_t@@U?$less@W4ItemDefinitionIndexx@@@std@@V?$allocator@U?$pair@$$CBW4ItemDefinitionIndexx@@UDefItem_t@@@std@@@4@$0A@@std@@@std@@IAE?AU?$pair@V?$_Tree_iterator@V?$_Tree_val@U?$_Tree_simple_types@U?$pair@$$CBW4ItemDefinitionIndexx@@UDefItem_t@@@std@@@std@@@std@@@std@@_N@1@_NAAU?$pair@$$CBW4ItemDefinitionIndexx@@UDefItem_t@@@1@PAU?$_Tree_node@U?$pair@$$CBW4ItemDefinitionIndexx@@UDefItem_t@@@std@@PAX@1@@Z 1009d210 f   recvproxy.obj
 0001:0009c230       __ehhandler$??1?$_Tree@V?$_Tmap_traits@W4ItemDefinitionIndexx@@UDefItem_t@@U?$less@W4ItemDefinitionIndexx@@@std@@V?$allocator@U?$pair@$$CBW4ItemDefinitionIndexx@@UDefItem_t@@@std@@@4@$0A@@std@@@std@@QAE@XZ 1009d230 f   recvproxy.obj
 0001:0009c250       __unwindfunclet$??__EItemDefinitionIndexMap@@YAXXZ$0 1009d250 f   recvproxy.obj
 0001:0009c25a       __ehhandler$??__EItemDefinitionIndexMap@@YAXXZ 1009d25a f   recvproxy.obj
 0001:0009c290       __unwindfunclet$??__EItemDefinitionIndexMap@@YAXXZ$0 1009d290 f   Autowall.obj
 0001:0009c29a       __ehhandler$??__EItemDefinitionIndexMap@@YAXXZ 1009d29a f   Autowall.obj
 0001:0009c2d0       __unwindfunclet$??__EItemDefinitionIndexMap@@YAXXZ$0 1009d2d0 f   Chams.obj
 0001:0009c2da       __ehhandler$??__EItemDefinitionIndexMap@@YAXXZ 1009d2da f   Chams.obj
 0001:0009c310       __unwindfunclet$??0<unnamed-type-Skinchanger>@Variables@@QAE@XZ$5 1009d310 f   Configuration.obj
 0001:0009c31b       __unwindfunclet$??0<unnamed-type-Skinchanger>@Variables@@QAE@XZ$6 1009d31b f   Configuration.obj
 0001:0009c326       __unwindfunclet$??0<unnamed-type-Skinchanger>@Variables@@QAE@XZ$0 1009d326 f   Configuration.obj
 0001:0009c334       __unwindfunclet$??0<unnamed-type-Skinchanger>@Variables@@QAE@XZ$10 1009d334 f   Configuration.obj
 0001:0009c33f       __unwindfunclet$??0<unnamed-type-Skinchanger>@Variables@@QAE@XZ$11 1009d33f f   Configuration.obj
 0001:0009c34a       __unwindfunclet$??0<unnamed-type-Skinchanger>@Variables@@QAE@XZ$1 1009d34a f   Configuration.obj
 0001:0009c358       __unwindfunclet$??0<unnamed-type-Skinchanger>@Variables@@QAE@XZ$15 1009d358 f   Configuration.obj
 0001:0009c363       __unwindfunclet$??0<unnamed-type-Skinchanger>@Variables@@QAE@XZ$16 1009d363 f   Configuration.obj
 0001:0009c36e       __ehhandler$??0<unnamed-type-Skinchanger>@Variables@@QAE@XZ 1009d36e f   Configuration.obj
 0001:0009c390       __ehhandler$??1?$list@U?$pair@$$CBV?$basic_string@DU?$char_traits@D@std@@V?$allocator@D@2@@std@@V?$set@V?$basic_string@DU?$char_traits@D@std@@V?$allocator@D@2@@std@@U?$less@V?$basic_string@DU?$char_traits@D@std@@V?$allocator@D@2@@std@@@2@V?$allocator@V?$basic_string@DU?$char_traits@D@std@@V?$allocator@D@2@@std@@@2@@2@@std@@V?$allocator@U?$pair@$$CBV?$basic_string@DU?$char_traits@D@std@@V?$allocator@D@2@@std@@V?$set@V?$basic_string@DU?$char_traits@D@std@@V?$allocator@D@2@@std@@U?$less@V?$basic_string@DU?$char_traits@D@std@@V?$allocator@D@2@@std@@@2@V?$allocator@V?$basic_string@DU?$char_traits@D@std@@V?$allocator@D@2@@std@@@2@@2@@std@@@2@@std@@QAE@XZ 1009d390 f   Configuration.obj
 0001:0009c3b0       __unwindfunclet$??__EConfig@@YAXXZ$0 1009d3b0 f   Configuration.obj
 0001:0009c3bf       __unwindfunclet$??__EConfig@@YAXXZ$1 1009d3bf f   Configuration.obj
 0001:0009c3c7       __unwindfunclet$??__EConfig@@YAXXZ$2 1009d3c7 f   Configuration.obj
 0001:0009c3d2       __unwindfunclet$??__EConfig@@YAXXZ$3 1009d3d2 f   Configuration.obj
 0001:0009c3dd       __ehhandler$??__EConfig@@YAXXZ 1009d3dd f   Configuration.obj
 0001:0009c400       __unwindfunclet$??__EItemDefinitionIndexMap@@YAXXZ$0 1009d400 f   Configuration.obj
 0001:0009c40a       __ehhandler$??__EItemDefinitionIndexMap@@YAXXZ 1009d40a f   Configuration.obj
 0001:0009c440       __unwindfunclet$?Load@CConfig@@QAEXXZ$0 1009d440 f   Configuration.obj
 0001:0009c44b       __unwindfunclet$?Load@CConfig@@QAEXXZ$1 1009d44b f   Configuration.obj
 0001:0009c456       __unwindfunclet$?Load@CConfig@@QAEXXZ$2 1009d456 f   Configuration.obj
 0001:0009c45e       __unwindfunclet$?Load@CConfig@@QAEXXZ$4 1009d45e f   Configuration.obj
 0001:0009c466       __unwindfunclet$?Load@CConfig@@QAEXXZ$5 1009d466 f   Configuration.obj
 0001:0009c46e       __unwindfunclet$?Load@CConfig@@QAEXXZ$6 1009d46e f   Configuration.obj
 0001:0009c479       __unwindfunclet$?Load@CConfig@@QAEXXZ$7 1009d479 f   Configuration.obj
 0001:0009c484       __unwindfunclet$?Load@CConfig@@QAEXXZ$9 1009d484 f   Configuration.obj
 0001:0009c48c       __unwindfunclet$?Load@CConfig@@QAEXXZ$10 1009d48c f   Configuration.obj
 0001:0009c494       __unwindfunclet$?Load@CConfig@@QAEXXZ$11 1009d494 f   Configuration.obj
 0001:0009c49f       __unwindfunclet$?Load@CConfig@@QAEXXZ$12 1009d49f f   Configuration.obj
 0001:0009c4aa       __unwindfunclet$?Load@CConfig@@QAEXXZ$14 1009d4aa f   Configuration.obj
 0001:0009c4b2       __unwindfunclet$?Load@CConfig@@QAEXXZ$15 1009d4b2 f   Configuration.obj
 0001:0009c4ba       __unwindfunclet$?Load@CConfig@@QAEXXZ$16 1009d4ba f   Configuration.obj
 0001:0009c4c5       __unwindfunclet$?Load@CConfig@@QAEXXZ$17 1009d4c5 f   Configuration.obj
 0001:0009c4d0       __unwindfunclet$?Load@CConfig@@QAEXXZ$19 1009d4d0 f   Configuration.obj
 0001:0009c4d8       __unwindfunclet$?Load@CConfig@@QAEXXZ$20 1009d4d8 f   Configuration.obj
 0001:0009c4e0       __unwindfunclet$?Load@CConfig@@QAEXXZ$21 1009d4e0 f   Configuration.obj
 0001:0009c4eb       __unwindfunclet$?Load@CConfig@@QAEXXZ$22 1009d4eb f   Configuration.obj
 0001:0009c4f6       __unwindfunclet$?Load@CConfig@@QAEXXZ$24 1009d4f6 f   Configuration.obj
 0001:0009c4fe       __unwindfunclet$?Load@CConfig@@QAEXXZ$25 1009d4fe f   Configuration.obj
 0001:0009c506       __unwindfunclet$?Load@CConfig@@QAEXXZ$26 1009d506 f   Configuration.obj
 0001:0009c511       __unwindfunclet$?Load@CConfig@@QAEXXZ$27 1009d511 f   Configuration.obj
 0001:0009c51c       __unwindfunclet$?Load@CConfig@@QAEXXZ$29 1009d51c f   Configuration.obj
 0001:0009c524       __unwindfunclet$?Load@CConfig@@QAEXXZ$30 1009d524 f   Configuration.obj
 0001:0009c52c       __unwindfunclet$?Load@CConfig@@QAEXXZ$31 1009d52c f   Configuration.obj
 0001:0009c537       __unwindfunclet$?Load@CConfig@@QAEXXZ$32 1009d537 f   Configuration.obj
 0001:0009c542       __unwindfunclet$?Load@CConfig@@QAEXXZ$34 1009d542 f   Configuration.obj
 0001:0009c54a       __unwindfunclet$?Load@CConfig@@QAEXXZ$35 1009d54a f   Configuration.obj
 0001:0009c552       __unwindfunclet$?Load@CConfig@@QAEXXZ$36 1009d552 f   Configuration.obj
 0001:0009c55d       __unwindfunclet$?Load@CConfig@@QAEXXZ$37 1009d55d f   Configuration.obj
 0001:0009c568       __unwindfunclet$?Load@CConfig@@QAEXXZ$39 1009d568 f   Configuration.obj
 0001:0009c570       __unwindfunclet$?Load@CConfig@@QAEXXZ$40 1009d570 f   Configuration.obj
 0001:0009c578       __unwindfunclet$?Load@CConfig@@QAEXXZ$41 1009d578 f   Configuration.obj
 0001:0009c583       __unwindfunclet$?Load@CConfig@@QAEXXZ$42 1009d583 f   Configuration.obj
 0001:0009c58e       __unwindfunclet$?Load@CConfig@@QAEXXZ$44 1009d58e f   Configuration.obj
 0001:0009c596       __unwindfunclet$?Load@CConfig@@QAEXXZ$45 1009d596 f   Configuration.obj
 0001:0009c59e       __unwindfunclet$?Load@CConfig@@QAEXXZ$46 1009d59e f   Configuration.obj
 0001:0009c5a9       __unwindfunclet$?Load@CConfig@@QAEXXZ$47 1009d5a9 f   Configuration.obj
 0001:0009c5b4       __unwindfunclet$?Load@CConfig@@QAEXXZ$49 1009d5b4 f   Configuration.obj
 0001:0009c5bc       __unwindfunclet$?Load@CConfig@@QAEXXZ$50 1009d5bc f   Configuration.obj
 0001:0009c5c4       __unwindfunclet$?Load@CConfig@@QAEXXZ$51 1009d5c4 f   Configuration.obj
 0001:0009c5cf       __unwindfunclet$?Load@CConfig@@QAEXXZ$52 1009d5cf f   Configuration.obj
 0001:0009c5da       __unwindfunclet$?Load@CConfig@@QAEXXZ$54 1009d5da f   Configuration.obj
 0001:0009c5e2       __unwindfunclet$?Load@CConfig@@QAEXXZ$55 1009d5e2 f   Configuration.obj
 0001:0009c5ea       __unwindfunclet$?Load@CConfig@@QAEXXZ$56 1009d5ea f   Configuration.obj
 0001:0009c5f5       __unwindfunclet$?Load@CConfig@@QAEXXZ$57 1009d5f5 f   Configuration.obj
 0001:0009c600       __ehhandler$?Load@CConfig@@QAEXXZ 1009d600 f   Configuration.obj
 0001:0009c630       __unwindfunclet$?Save@CConfig@@QAEXXZ$0 1009d630 f   Configuration.obj
 0001:0009c63b       __unwindfunclet$?Save@CConfig@@QAEXXZ$1 1009d63b f   Configuration.obj
 0001:0009c643       __unwindfunclet$?Save@CConfig@@QAEXXZ$2 1009d643 f   Configuration.obj
 0001:0009c64b       __unwindfunclet$?Save@CConfig@@QAEXXZ$4 1009d64b f   Configuration.obj
 0001:0009c653       __unwindfunclet$?Save@CConfig@@QAEXXZ$5 1009d653 f   Configuration.obj
 0001:0009c65b       __unwindfunclet$?Save@CConfig@@QAEXXZ$6 1009d65b f   Configuration.obj
 0001:0009c666       __unwindfunclet$?Save@CConfig@@QAEXXZ$7 1009d666 f   Configuration.obj
 0001:0009c671       __unwindfunclet$?Save@CConfig@@QAEXXZ$9 1009d671 f   Configuration.obj
 0001:0009c679       __unwindfunclet$?Save@CConfig@@QAEXXZ$10 1009d679 f   Configuration.obj
 0001:0009c681       __unwindfunclet$?Save@CConfig@@QAEXXZ$11 1009d681 f   Configuration.obj
 0001:0009c68c       __unwindfunclet$?Save@CConfig@@QAEXXZ$12 1009d68c f   Configuration.obj
 0001:0009c697       __unwindfunclet$?Save@CConfig@@QAEXXZ$14 1009d697 f   Configuration.obj
 0001:0009c69f       __unwindfunclet$?Save@CConfig@@QAEXXZ$15 1009d69f f   Configuration.obj
 0001:0009c6a7       __unwindfunclet$?Save@CConfig@@QAEXXZ$16 1009d6a7 f   Configuration.obj
 0001:0009c6b2       __unwindfunclet$?Save@CConfig@@QAEXXZ$17 1009d6b2 f   Configuration.obj
 0001:0009c6bd       __unwindfunclet$?Save@CConfig@@QAEXXZ$19 1009d6bd f   Configuration.obj
 0001:0009c6c5       __unwindfunclet$?Save@CConfig@@QAEXXZ$20 1009d6c5 f   Configuration.obj
 0001:0009c6cd       __unwindfunclet$?Save@CConfig@@QAEXXZ$21 1009d6cd f   Configuration.obj
 0001:0009c6d8       __unwindfunclet$?Save@CConfig@@QAEXXZ$22 1009d6d8 f   Configuration.obj
 0001:0009c6e3       __unwindfunclet$?Save@CConfig@@QAEXXZ$24 1009d6e3 f   Configuration.obj
 0001:0009c6eb       __unwindfunclet$?Save@CConfig@@QAEXXZ$25 1009d6eb f   Configuration.obj
 0001:0009c6f3       __unwindfunclet$?Save@CConfig@@QAEXXZ$26 1009d6f3 f   Configuration.obj
 0001:0009c6fe       __unwindfunclet$?Save@CConfig@@QAEXXZ$27 1009d6fe f   Configuration.obj
 0001:0009c709       __unwindfunclet$?Save@CConfig@@QAEXXZ$29 1009d709 f   Configuration.obj
 0001:0009c711       __unwindfunclet$?Save@CConfig@@QAEXXZ$30 1009d711 f   Configuration.obj
 0001:0009c719       __unwindfunclet$?Save@CConfig@@QAEXXZ$31 1009d719 f   Configuration.obj
 0001:0009c724       __unwindfunclet$?Save@CConfig@@QAEXXZ$32 1009d724 f   Configuration.obj
 0001:0009c72f       __unwindfunclet$?Save@CConfig@@QAEXXZ$34 1009d72f f   Configuration.obj
 0001:0009c737       __unwindfunclet$?Save@CConfig@@QAEXXZ$35 1009d737 f   Configuration.obj
 0001:0009c73f       __unwindfunclet$?Save@CConfig@@QAEXXZ$36 1009d73f f   Configuration.obj
 0001:0009c74a       __unwindfunclet$?Save@CConfig@@QAEXXZ$37 1009d74a f   Configuration.obj
 0001:0009c755       __unwindfunclet$?Save@CConfig@@QAEXXZ$39 1009d755 f   Configuration.obj
 0001:0009c75d       __unwindfunclet$?Save@CConfig@@QAEXXZ$40 1009d75d f   Configuration.obj
 0001:0009c765       __unwindfunclet$?Save@CConfig@@QAEXXZ$41 1009d765 f   Configuration.obj
 0001:0009c770       __unwindfunclet$?Save@CConfig@@QAEXXZ$42 1009d770 f   Configuration.obj
 0001:0009c77b       __unwindfunclet$?Save@CConfig@@QAEXXZ$44 1009d77b f   Configuration.obj
 0001:0009c783       __unwindfunclet$?Save@CConfig@@QAEXXZ$45 1009d783 f   Configuration.obj
 0001:0009c78b       __unwindfunclet$?Save@CConfig@@QAEXXZ$46 1009d78b f   Configuration.obj
 0001:0009c796       __unwindfunclet$?Save@CConfig@@QAEXXZ$47 1009d796 f   Configuration.obj
 0001:0009c7a1       __unwindfunclet$?Save@CConfig@@QAEXXZ$49 1009d7a1 f   Configuration.obj
 0001:0009c7a9       __unwindfunclet$?Save@CConfig@@QAEXXZ$50 1009d7a9 f   Configuration.obj
 0001:0009c7b1       __unwindfunclet$?Save@CConfig@@QAEXXZ$51 1009d7b1 f   Configuration.obj
 0001:0009c7bc       __unwindfunclet$?Save@CConfig@@QAEXXZ$52 1009d7bc f   Configuration.obj
 0001:0009c7c7       __unwindfunclet$?Save@CConfig@@QAEXXZ$54 1009d7c7 f   Configuration.obj
 0001:0009c7cf       __unwindfunclet$?Save@CConfig@@QAEXXZ$55 1009d7cf f   Configuration.obj
 0001:0009c7d7       __unwindfunclet$?Save@CConfig@@QAEXXZ$56 1009d7d7 f   Configuration.obj
 0001:0009c7e2       __unwindfunclet$?Save@CConfig@@QAEXXZ$57 1009d7e2 f   Configuration.obj
 0001:0009c7ed       __unwindfunclet$?Save@CConfig@@QAEXXZ$78 1009d7ed f   Configuration.obj
 0001:0009c80c       __ehhandler$?Save@CConfig@@QAEXXZ 1009d80c f   Configuration.obj
 0001:0009c840       __unwindfunclet$?Setup@CConfig@@QAEXXZ$0 1009d840 f   Configuration.obj
 0001:0009c848       __unwindfunclet$?Setup@CConfig@@QAEXXZ$2 1009d848 f   Configuration.obj
 0001:0009c850       __unwindfunclet$?Setup@CConfig@@QAEXXZ$4 1009d850 f   Configuration.obj
 0001:0009c858       __unwindfunclet$?Setup@CConfig@@QAEXXZ$6 1009d858 f   Configuration.obj
 0001:0009c860       __unwindfunclet$?Setup@CConfig@@QAEXXZ$8 1009d860 f   Configuration.obj
 0001:0009c868       __unwindfunclet$?Setup@CConfig@@QAEXXZ$10 1009d868 f   Configuration.obj
 0001:0009c870       __unwindfunclet$?Setup@CConfig@@QAEXXZ$12 1009d870 f   Configuration.obj
 0001:0009c878       __unwindfunclet$?Setup@CConfig@@QAEXXZ$14 1009d878 f   Configuration.obj
 0001:0009c880       __unwindfunclet$?Setup@CConfig@@QAEXXZ$16 1009d880 f   Configuration.obj
 0001:0009c888       __unwindfunclet$?Setup@CConfig@@QAEXXZ$18 1009d888 f   Configuration.obj
 0001:0009c890       __unwindfunclet$?Setup@CConfig@@QAEXXZ$20 1009d890 f   Configuration.obj
 0001:0009c898       __unwindfunclet$?Setup@CConfig@@QAEXXZ$22 1009d898 f   Configuration.obj
 0001:0009c8a0       __unwindfunclet$?Setup@CConfig@@QAEXXZ$24 1009d8a0 f   Configuration.obj
 0001:0009c8a8       __unwindfunclet$?Setup@CConfig@@QAEXXZ$26 1009d8a8 f   Configuration.obj
 0001:0009c8b0       __unwindfunclet$?Setup@CConfig@@QAEXXZ$28 1009d8b0 f   Configuration.obj
 0001:0009c8b8       __unwindfunclet$?Setup@CConfig@@QAEXXZ$30 1009d8b8 f   Configuration.obj
 0001:0009c8c0       __unwindfunclet$?Setup@CConfig@@QAEXXZ$32 1009d8c0 f   Configuration.obj
 0001:0009c8c8       __unwindfunclet$?Setup@CConfig@@QAEXXZ$34 1009d8c8 f   Configuration.obj
 0001:0009c8d0       __unwindfunclet$?Setup@CConfig@@QAEXXZ$36 1009d8d0 f   Configuration.obj
 0001:0009c8d8       __unwindfunclet$?Setup@CConfig@@QAEXXZ$38 1009d8d8 f   Configuration.obj
 0001:0009c8e0       __unwindfunclet$?Setup@CConfig@@QAEXXZ$40 1009d8e0 f   Configuration.obj
 0001:0009c8e8       __unwindfunclet$?Setup@CConfig@@QAEXXZ$42 1009d8e8 f   Configuration.obj
 0001:0009c8f0       __unwindfunclet$?Setup@CConfig@@QAEXXZ$44 1009d8f0 f   Configuration.obj
 0001:0009c8f8       __unwindfunclet$?Setup@CConfig@@QAEXXZ$46 1009d8f8 f   Configuration.obj
 0001:0009c900       __unwindfunclet$?Setup@CConfig@@QAEXXZ$48 1009d900 f   Configuration.obj
 0001:0009c908       __unwindfunclet$?Setup@CConfig@@QAEXXZ$50 1009d908 f   Configuration.obj
 0001:0009c910       __unwindfunclet$?Setup@CConfig@@QAEXXZ$52 1009d910 f   Configuration.obj
 0001:0009c918       __unwindfunclet$?Setup@CConfig@@QAEXXZ$54 1009d918 f   Configuration.obj
 0001:0009c920       __unwindfunclet$?Setup@CConfig@@QAEXXZ$56 1009d920 f   Configuration.obj
 0001:0009c928       __unwindfunclet$?Setup@CConfig@@QAEXXZ$58 1009d928 f   Configuration.obj
 0001:0009c930       __unwindfunclet$?Setup@CConfig@@QAEXXZ$60 1009d930 f   Configuration.obj
 0001:0009c938       __unwindfunclet$?Setup@CConfig@@QAEXXZ$62 1009d938 f   Configuration.obj
 0001:0009c940       __unwindfunclet$?Setup@CConfig@@QAEXXZ$64 1009d940 f   Configuration.obj
 0001:0009c948       __unwindfunclet$?Setup@CConfig@@QAEXXZ$66 1009d948 f   Configuration.obj
 0001:0009c950       __unwindfunclet$?Setup@CConfig@@QAEXXZ$68 1009d950 f   Configuration.obj
 0001:0009c958       __unwindfunclet$?Setup@CConfig@@QAEXXZ$70 1009d958 f   Configuration.obj
 0001:0009c960       __unwindfunclet$?Setup@CConfig@@QAEXXZ$72 1009d960 f   Configuration.obj
 0001:0009c968       __unwindfunclet$?Setup@CConfig@@QAEXXZ$74 1009d968 f   Configuration.obj
 0001:0009c970       __unwindfunclet$?Setup@CConfig@@QAEXXZ$76 1009d970 f   Configuration.obj
 0001:0009c978       __unwindfunclet$?Setup@CConfig@@QAEXXZ$78 1009d978 f   Configuration.obj
 0001:0009c980       __unwindfunclet$?Setup@CConfig@@QAEXXZ$80 1009d980 f   Configuration.obj
 0001:0009c988       __unwindfunclet$?Setup@CConfig@@QAEXXZ$82 1009d988 f   Configuration.obj
 0001:0009c990       __unwindfunclet$?Setup@CConfig@@QAEXXZ$84 1009d990 f   Configuration.obj
 0001:0009c998       __unwindfunclet$?Setup@CConfig@@QAEXXZ$86 1009d998 f   Configuration.obj
 0001:0009c9a0       __unwindfunclet$?Setup@CConfig@@QAEXXZ$88 1009d9a0 f   Configuration.obj
 0001:0009c9a8       __unwindfunclet$?Setup@CConfig@@QAEXXZ$90 1009d9a8 f   Configuration.obj
 0001:0009c9b0       __unwindfunclet$?Setup@CConfig@@QAEXXZ$92 1009d9b0 f   Configuration.obj
 0001:0009c9b8       __unwindfunclet$?Setup@CConfig@@QAEXXZ$94 1009d9b8 f   Configuration.obj
 0001:0009c9c0       __unwindfunclet$?Setup@CConfig@@QAEXXZ$96 1009d9c0 f   Configuration.obj
 0001:0009c9c8       __unwindfunclet$?Setup@CConfig@@QAEXXZ$98 1009d9c8 f   Configuration.obj
 0001:0009c9d0       __unwindfunclet$?Setup@CConfig@@QAEXXZ$100 1009d9d0 f   Configuration.obj
 0001:0009c9d8       __unwindfunclet$?Setup@CConfig@@QAEXXZ$102 1009d9d8 f   Configuration.obj
 0001:0009c9e0       __unwindfunclet$?Setup@CConfig@@QAEXXZ$104 1009d9e0 f   Configuration.obj
 0001:0009c9e8       __unwindfunclet$?Setup@CConfig@@QAEXXZ$106 1009d9e8 f   Configuration.obj
 0001:0009c9f0       __unwindfunclet$?Setup@CConfig@@QAEXXZ$108 1009d9f0 f   Configuration.obj
 0001:0009c9f8       __unwindfunclet$?Setup@CConfig@@QAEXXZ$110 1009d9f8 f   Configuration.obj
 0001:0009ca00       __unwindfunclet$?Setup@CConfig@@QAEXXZ$112 1009da00 f   Configuration.obj
 0001:0009ca08       __unwindfunclet$?Setup@CConfig@@QAEXXZ$114 1009da08 f   Configuration.obj
 0001:0009ca10       __unwindfunclet$?Setup@CConfig@@QAEXXZ$116 1009da10 f   Configuration.obj
 0001:0009ca18       __unwindfunclet$?Setup@CConfig@@QAEXXZ$118 1009da18 f   Configuration.obj
 0001:0009ca20       __unwindfunclet$?Setup@CConfig@@QAEXXZ$120 1009da20 f   Configuration.obj
 0001:0009ca28       __unwindfunclet$?Setup@CConfig@@QAEXXZ$122 1009da28 f   Configuration.obj
 0001:0009ca30       __unwindfunclet$?Setup@CConfig@@QAEXXZ$124 1009da30 f   Configuration.obj
 0001:0009ca38       __unwindfunclet$?Setup@CConfig@@QAEXXZ$126 1009da38 f   Configuration.obj
 0001:0009ca40       __unwindfunclet$?Setup@CConfig@@QAEXXZ$128 1009da40 f   Configuration.obj
 0001:0009ca48       __unwindfunclet$?Setup@CConfig@@QAEXXZ$130 1009da48 f   Configuration.obj
 0001:0009ca50       __unwindfunclet$?Setup@CConfig@@QAEXXZ$132 1009da50 f   Configuration.obj
 0001:0009ca58       __unwindfunclet$?Setup@CConfig@@QAEXXZ$134 1009da58 f   Configuration.obj
 0001:0009ca60       __unwindfunclet$?Setup@CConfig@@QAEXXZ$136 1009da60 f   Configuration.obj
 0001:0009ca68       __unwindfunclet$?Setup@CConfig@@QAEXXZ$138 1009da68 f   Configuration.obj
 0001:0009ca70       __unwindfunclet$?Setup@CConfig@@QAEXXZ$140 1009da70 f   Configuration.obj
 0001:0009ca78       __unwindfunclet$?Setup@CConfig@@QAEXXZ$142 1009da78 f   Configuration.obj
 0001:0009ca80       __unwindfunclet$?Setup@CConfig@@QAEXXZ$144 1009da80 f   Configuration.obj
 0001:0009ca88       __unwindfunclet$?Setup@CConfig@@QAEXXZ$146 1009da88 f   Configuration.obj
 0001:0009ca90       __unwindfunclet$?Setup@CConfig@@QAEXXZ$148 1009da90 f   Configuration.obj
 0001:0009ca98       __unwindfunclet$?Setup@CConfig@@QAEXXZ$150 1009da98 f   Configuration.obj
 0001:0009caa0       __unwindfunclet$?Setup@CConfig@@QAEXXZ$152 1009daa0 f   Configuration.obj
 0001:0009caa8       __unwindfunclet$?Setup@CConfig@@QAEXXZ$154 1009daa8 f   Configuration.obj
 0001:0009cab0       __unwindfunclet$?Setup@CConfig@@QAEXXZ$156 1009dab0 f   Configuration.obj
 0001:0009cab8       __unwindfunclet$?Setup@CConfig@@QAEXXZ$158 1009dab8 f   Configuration.obj
 0001:0009cac0       __unwindfunclet$?Setup@CConfig@@QAEXXZ$160 1009dac0 f   Configuration.obj
 0001:0009cac8       __unwindfunclet$?Setup@CConfig@@QAEXXZ$162 1009dac8 f   Configuration.obj
 0001:0009cad0       __unwindfunclet$?Setup@CConfig@@QAEXXZ$164 1009dad0 f   Configuration.obj
 0001:0009cad8       __unwindfunclet$?Setup@CConfig@@QAEXXZ$166 1009dad8 f   Configuration.obj
 0001:0009cae0       __unwindfunclet$?Setup@CConfig@@QAEXXZ$168 1009dae0 f   Configuration.obj
 0001:0009cae8       __unwindfunclet$?Setup@CConfig@@QAEXXZ$170 1009dae8 f   Configuration.obj
 0001:0009caf0       __unwindfunclet$?Setup@CConfig@@QAEXXZ$172 1009daf0 f   Configuration.obj
 0001:0009caf8       __unwindfunclet$?Setup@CConfig@@QAEXXZ$174 1009daf8 f   Configuration.obj
 0001:0009cb00       __unwindfunclet$?Setup@CConfig@@QAEXXZ$176 1009db00 f   Configuration.obj
 0001:0009cb08       __unwindfunclet$?Setup@CConfig@@QAEXXZ$178 1009db08 f   Configuration.obj
 0001:0009cb10       __unwindfunclet$?Setup@CConfig@@QAEXXZ$180 1009db10 f   Configuration.obj
 0001:0009cb18       __unwindfunclet$?Setup@CConfig@@QAEXXZ$182 1009db18 f   Configuration.obj
 0001:0009cb20       __unwindfunclet$?Setup@CConfig@@QAEXXZ$184 1009db20 f   Configuration.obj
 0001:0009cb28       __unwindfunclet$?Setup@CConfig@@QAEXXZ$186 1009db28 f   Configuration.obj
 0001:0009cb30       __unwindfunclet$?Setup@CConfig@@QAEXXZ$188 1009db30 f   Configuration.obj
 0001:0009cb38       __unwindfunclet$?Setup@CConfig@@QAEXXZ$190 1009db38 f   Configuration.obj
 0001:0009cb40       __unwindfunclet$?Setup@CConfig@@QAEXXZ$192 1009db40 f   Configuration.obj
 0001:0009cb48       __unwindfunclet$?Setup@CConfig@@QAEXXZ$194 1009db48 f   Configuration.obj
 0001:0009cb50       __unwindfunclet$?Setup@CConfig@@QAEXXZ$196 1009db50 f   Configuration.obj
 0001:0009cb58       __unwindfunclet$?Setup@CConfig@@QAEXXZ$198 1009db58 f   Configuration.obj
 0001:0009cb60       __unwindfunclet$?Setup@CConfig@@QAEXXZ$200 1009db60 f   Configuration.obj
 0001:0009cb68       __unwindfunclet$?Setup@CConfig@@QAEXXZ$202 1009db68 f   Configuration.obj
 0001:0009cb70       __unwindfunclet$?Setup@CConfig@@QAEXXZ$204 1009db70 f   Configuration.obj
 0001:0009cb78       __unwindfunclet$?Setup@CConfig@@QAEXXZ$206 1009db78 f   Configuration.obj
 0001:0009cb80       __unwindfunclet$?Setup@CConfig@@QAEXXZ$208 1009db80 f   Configuration.obj
 0001:0009cb88       __unwindfunclet$?Setup@CConfig@@QAEXXZ$210 1009db88 f   Configuration.obj
 0001:0009cb90       __unwindfunclet$?Setup@CConfig@@QAEXXZ$212 1009db90 f   Configuration.obj
 0001:0009cb98       __unwindfunclet$?Setup@CConfig@@QAEXXZ$214 1009db98 f   Configuration.obj
 0001:0009cba0       __unwindfunclet$?Setup@CConfig@@QAEXXZ$216 1009dba0 f   Configuration.obj
 0001:0009cba8       __unwindfunclet$?Setup@CConfig@@QAEXXZ$218 1009dba8 f   Configuration.obj
 0001:0009cbb0       __unwindfunclet$?Setup@CConfig@@QAEXXZ$220 1009dbb0 f   Configuration.obj
 0001:0009cbb8       __unwindfunclet$?Setup@CConfig@@QAEXXZ$222 1009dbb8 f   Configuration.obj
 0001:0009cbc0       __unwindfunclet$?Setup@CConfig@@QAEXXZ$224 1009dbc0 f   Configuration.obj
 0001:0009cbc8       __unwindfunclet$?Setup@CConfig@@QAEXXZ$226 1009dbc8 f   Configuration.obj
 0001:0009cbd0       __unwindfunclet$?Setup@CConfig@@QAEXXZ$228 1009dbd0 f   Configuration.obj
 0001:0009cbd8       __unwindfunclet$?Setup@CConfig@@QAEXXZ$230 1009dbd8 f   Configuration.obj
 0001:0009cbe0       __unwindfunclet$?Setup@CConfig@@QAEXXZ$232 1009dbe0 f   Configuration.obj
 0001:0009cbe8       __unwindfunclet$?Setup@CConfig@@QAEXXZ$234 1009dbe8 f   Configuration.obj
 0001:0009cbf0       __unwindfunclet$?Setup@CConfig@@QAEXXZ$236 1009dbf0 f   Configuration.obj
 0001:0009cbf8       __unwindfunclet$?Setup@CConfig@@QAEXXZ$238 1009dbf8 f   Configuration.obj
 0001:0009cc00       __unwindfunclet$?Setup@CConfig@@QAEXXZ$240 1009dc00 f   Configuration.obj
 0001:0009cc08       __unwindfunclet$?Setup@CConfig@@QAEXXZ$242 1009dc08 f   Configuration.obj
 0001:0009cc10       __unwindfunclet$?Setup@CConfig@@QAEXXZ$244 1009dc10 f   Configuration.obj
 0001:0009cc18       __unwindfunclet$?Setup@CConfig@@QAEXXZ$246 1009dc18 f   Configuration.obj
 0001:0009cc20       __unwindfunclet$?Setup@CConfig@@QAEXXZ$248 1009dc20 f   Configuration.obj
 0001:0009cc28       __unwindfunclet$?Setup@CConfig@@QAEXXZ$250 1009dc28 f   Configuration.obj
 0001:0009cc30       __unwindfunclet$?Setup@CConfig@@QAEXXZ$252 1009dc30 f   Configuration.obj
 0001:0009cc38       __unwindfunclet$?Setup@CConfig@@QAEXXZ$254 1009dc38 f   Configuration.obj
 0001:0009cc40       __unwindfunclet$?Setup@CConfig@@QAEXXZ$256 1009dc40 f   Configuration.obj
 0001:0009cc48       __unwindfunclet$?Setup@CConfig@@QAEXXZ$258 1009dc48 f   Configuration.obj
 0001:0009cc50       __unwindfunclet$?Setup@CConfig@@QAEXXZ$260 1009dc50 f   Configuration.obj
 0001:0009cc58       __unwindfunclet$?Setup@CConfig@@QAEXXZ$262 1009dc58 f   Configuration.obj
 0001:0009cc60       __unwindfunclet$?Setup@CConfig@@QAEXXZ$264 1009dc60 f   Configuration.obj
 0001:0009cc68       __unwindfunclet$?Setup@CConfig@@QAEXXZ$266 1009dc68 f   Configuration.obj
 0001:0009cc70       __unwindfunclet$?Setup@CConfig@@QAEXXZ$268 1009dc70 f   Configuration.obj
 0001:0009cc78       __unwindfunclet$?Setup@CConfig@@QAEXXZ$270 1009dc78 f   Configuration.obj
 0001:0009cc80       __unwindfunclet$?Setup@CConfig@@QAEXXZ$272 1009dc80 f   Configuration.obj
 0001:0009cc88       __unwindfunclet$?Setup@CConfig@@QAEXXZ$274 1009dc88 f   Configuration.obj
 0001:0009cc90       __unwindfunclet$?Setup@CConfig@@QAEXXZ$276 1009dc90 f   Configuration.obj
 0001:0009cc98       __unwindfunclet$?Setup@CConfig@@QAEXXZ$278 1009dc98 f   Configuration.obj
 0001:0009cca0       __unwindfunclet$?Setup@CConfig@@QAEXXZ$280 1009dca0 f   Configuration.obj
 0001:0009cca8       __unwindfunclet$?Setup@CConfig@@QAEXXZ$282 1009dca8 f   Configuration.obj
 0001:0009ccb0       __unwindfunclet$?Setup@CConfig@@QAEXXZ$284 1009dcb0 f   Configuration.obj
 0001:0009ccb8       __unwindfunclet$?Setup@CConfig@@QAEXXZ$286 1009dcb8 f   Configuration.obj
 0001:0009ccc0       __unwindfunclet$?Setup@CConfig@@QAEXXZ$288 1009dcc0 f   Configuration.obj
 0001:0009ccc8       __unwindfunclet$?Setup@CConfig@@QAEXXZ$290 1009dcc8 f   Configuration.obj
 0001:0009ccd0       __unwindfunclet$?Setup@CConfig@@QAEXXZ$292 1009dcd0 f   Configuration.obj
 0001:0009ccd8       __unwindfunclet$?Setup@CConfig@@QAEXXZ$294 1009dcd8 f   Configuration.obj
 0001:0009cce0       __unwindfunclet$?Setup@CConfig@@QAEXXZ$296 1009dce0 f   Configuration.obj
 0001:0009cce8       __unwindfunclet$?Setup@CConfig@@QAEXXZ$298 1009dce8 f   Configuration.obj
 0001:0009ccf0       __unwindfunclet$?Setup@CConfig@@QAEXXZ$300 1009dcf0 f   Configuration.obj
 0001:0009ccf8       __unwindfunclet$?Setup@CConfig@@QAEXXZ$302 1009dcf8 f   Configuration.obj
 0001:0009cd00       __unwindfunclet$?Setup@CConfig@@QAEXXZ$304 1009dd00 f   Configuration.obj
 0001:0009cd08       __unwindfunclet$?Setup@CConfig@@QAEXXZ$306 1009dd08 f   Configuration.obj
 0001:0009cd10       __unwindfunclet$?Setup@CConfig@@QAEXXZ$308 1009dd10 f   Configuration.obj
 0001:0009cd18       __unwindfunclet$?Setup@CConfig@@QAEXXZ$310 1009dd18 f   Configuration.obj
 0001:0009cd20       __unwindfunclet$?Setup@CConfig@@QAEXXZ$312 1009dd20 f   Configuration.obj
 0001:0009cd28       __unwindfunclet$?Setup@CConfig@@QAEXXZ$314 1009dd28 f   Configuration.obj
 0001:0009cd30       __unwindfunclet$?Setup@CConfig@@QAEXXZ$316 1009dd30 f   Configuration.obj
 0001:0009cd38       __unwindfunclet$?Setup@CConfig@@QAEXXZ$318 1009dd38 f   Configuration.obj
 0001:0009cd40       __unwindfunclet$?Setup@CConfig@@QAEXXZ$320 1009dd40 f   Configuration.obj
 0001:0009cd48       __unwindfunclet$?Setup@CConfig@@QAEXXZ$322 1009dd48 f   Configuration.obj
 0001:0009cd50       __unwindfunclet$?Setup@CConfig@@QAEXXZ$324 1009dd50 f   Configuration.obj
 0001:0009cd58       __unwindfunclet$?Setup@CConfig@@QAEXXZ$326 1009dd58 f   Configuration.obj
 0001:0009cd60       __unwindfunclet$?Setup@CConfig@@QAEXXZ$328 1009dd60 f   Configuration.obj
 0001:0009cd68       __unwindfunclet$?Setup@CConfig@@QAEXXZ$330 1009dd68 f   Configuration.obj
 0001:0009cd70       __unwindfunclet$?Setup@CConfig@@QAEXXZ$332 1009dd70 f   Configuration.obj
 0001:0009cd78       __unwindfunclet$?Setup@CConfig@@QAEXXZ$334 1009dd78 f   Configuration.obj
 0001:0009cd80       __unwindfunclet$?Setup@CConfig@@QAEXXZ$336 1009dd80 f   Configuration.obj
 0001:0009cd88       __unwindfunclet$?Setup@CConfig@@QAEXXZ$338 1009dd88 f   Configuration.obj
 0001:0009cd90       __unwindfunclet$?Setup@CConfig@@QAEXXZ$340 1009dd90 f   Configuration.obj
 0001:0009cd98       __unwindfunclet$?Setup@CConfig@@QAEXXZ$342 1009dd98 f   Configuration.obj
 0001:0009cda0       __unwindfunclet$?Setup@CConfig@@QAEXXZ$344 1009dda0 f   Configuration.obj
 0001:0009cda8       __unwindfunclet$?Setup@CConfig@@QAEXXZ$346 1009dda8 f   Configuration.obj
 0001:0009cdb0       __unwindfunclet$?Setup@CConfig@@QAEXXZ$348 1009ddb0 f   Configuration.obj
 0001:0009cdb8       __unwindfunclet$?Setup@CConfig@@QAEXXZ$350 1009ddb8 f   Configuration.obj
 0001:0009cdc0       __unwindfunclet$?Setup@CConfig@@QAEXXZ$352 1009ddc0 f   Configuration.obj
 0001:0009cdc8       __unwindfunclet$?Setup@CConfig@@QAEXXZ$354 1009ddc8 f   Configuration.obj
 0001:0009cdd0       __unwindfunclet$?Setup@CConfig@@QAEXXZ$356 1009ddd0 f   Configuration.obj
 0001:0009cdd8       __unwindfunclet$?Setup@CConfig@@QAEXXZ$358 1009ddd8 f   Configuration.obj
 0001:0009cde0       __unwindfunclet$?Setup@CConfig@@QAEXXZ$360 1009dde0 f   Configuration.obj
 0001:0009cde8       __unwindfunclet$?Setup@CConfig@@QAEXXZ$362 1009dde8 f   Configuration.obj
 0001:0009cdf0       __unwindfunclet$?Setup@CConfig@@QAEXXZ$364 1009ddf0 f   Configuration.obj
 0001:0009cdf8       __unwindfunclet$?Setup@CConfig@@QAEXXZ$366 1009ddf8 f   Configuration.obj
 0001:0009ce00       __unwindfunclet$?Setup@CConfig@@QAEXXZ$368 1009de00 f   Configuration.obj
 0001:0009ce08       __unwindfunclet$?Setup@CConfig@@QAEXXZ$370 1009de08 f   Configuration.obj
 0001:0009ce10       __unwindfunclet$?Setup@CConfig@@QAEXXZ$372 1009de10 f   Configuration.obj
 0001:0009ce18       __unwindfunclet$?Setup@CConfig@@QAEXXZ$374 1009de18 f   Configuration.obj
 0001:0009ce20       __unwindfunclet$?Setup@CConfig@@QAEXXZ$376 1009de20 f   Configuration.obj
 0001:0009ce28       __unwindfunclet$?Setup@CConfig@@QAEXXZ$378 1009de28 f   Configuration.obj
 0001:0009ce30       __unwindfunclet$?Setup@CConfig@@QAEXXZ$380 1009de30 f   Configuration.obj
 0001:0009ce38       __unwindfunclet$?Setup@CConfig@@QAEXXZ$382 1009de38 f   Configuration.obj
 0001:0009ce40       __unwindfunclet$?Setup@CConfig@@QAEXXZ$384 1009de40 f   Configuration.obj
 0001:0009ce48       __unwindfunclet$?Setup@CConfig@@QAEXXZ$386 1009de48 f   Configuration.obj
 0001:0009ce50       __unwindfunclet$?Setup@CConfig@@QAEXXZ$388 1009de50 f   Configuration.obj
 0001:0009ce58       __unwindfunclet$?Setup@CConfig@@QAEXXZ$390 1009de58 f   Configuration.obj
 0001:0009ce60       __unwindfunclet$?Setup@CConfig@@QAEXXZ$392 1009de60 f   Configuration.obj
 0001:0009ce68       __unwindfunclet$?Setup@CConfig@@QAEXXZ$394 1009de68 f   Configuration.obj
 0001:0009ce70       __unwindfunclet$?Setup@CConfig@@QAEXXZ$396 1009de70 f   Configuration.obj
 0001:0009ce78       __unwindfunclet$?Setup@CConfig@@QAEXXZ$398 1009de78 f   Configuration.obj
 0001:0009ce80       __unwindfunclet$?Setup@CConfig@@QAEXXZ$400 1009de80 f   Configuration.obj
 0001:0009ce88       __unwindfunclet$?Setup@CConfig@@QAEXXZ$402 1009de88 f   Configuration.obj
 0001:0009ce90       __unwindfunclet$?Setup@CConfig@@QAEXXZ$404 1009de90 f   Configuration.obj
 0001:0009ce98       __unwindfunclet$?Setup@CConfig@@QAEXXZ$406 1009de98 f   Configuration.obj
 0001:0009cea0       __unwindfunclet$?Setup@CConfig@@QAEXXZ$408 1009dea0 f   Configuration.obj
 0001:0009cea8       __unwindfunclet$?Setup@CConfig@@QAEXXZ$410 1009dea8 f   Configuration.obj
 0001:0009ceb0       __unwindfunclet$?Setup@CConfig@@QAEXXZ$412 1009deb0 f   Configuration.obj
 0001:0009ceb8       __unwindfunclet$?Setup@CConfig@@QAEXXZ$414 1009deb8 f   Configuration.obj
 0001:0009cec0       __unwindfunclet$?Setup@CConfig@@QAEXXZ$416 1009dec0 f   Configuration.obj
 0001:0009cec8       __unwindfunclet$?Setup@CConfig@@QAEXXZ$418 1009dec8 f   Configuration.obj
 0001:0009ced0       __unwindfunclet$?Setup@CConfig@@QAEXXZ$420 1009ded0 f   Configuration.obj
 0001:0009ced8       __unwindfunclet$?Setup@CConfig@@QAEXXZ$422 1009ded8 f   Configuration.obj
 0001:0009cee0       __unwindfunclet$?Setup@CConfig@@QAEXXZ$424 1009dee0 f   Configuration.obj
 0001:0009cee8       __unwindfunclet$?Setup@CConfig@@QAEXXZ$426 1009dee8 f   Configuration.obj
 0001:0009cef0       __unwindfunclet$?Setup@CConfig@@QAEXXZ$428 1009def0 f   Configuration.obj
 0001:0009cef8       __unwindfunclet$?Setup@CConfig@@QAEXXZ$430 1009def8 f   Configuration.obj
 0001:0009cf00       __unwindfunclet$?Setup@CConfig@@QAEXXZ$432 1009df00 f   Configuration.obj
 0001:0009cf08       __unwindfunclet$?Setup@CConfig@@QAEXXZ$434 1009df08 f   Configuration.obj
 0001:0009cf10       __unwindfunclet$?Setup@CConfig@@QAEXXZ$436 1009df10 f   Configuration.obj
 0001:0009cf18       __unwindfunclet$?Setup@CConfig@@QAEXXZ$438 1009df18 f   Configuration.obj
 0001:0009cf20       __unwindfunclet$?Setup@CConfig@@QAEXXZ$440 1009df20 f   Configuration.obj
 0001:0009cf28       __unwindfunclet$?Setup@CConfig@@QAEXXZ$442 1009df28 f   Configuration.obj
 0001:0009cf30       __unwindfunclet$?Setup@CConfig@@QAEXXZ$444 1009df30 f   Configuration.obj
 0001:0009cf38       __unwindfunclet$?Setup@CConfig@@QAEXXZ$446 1009df38 f   Configuration.obj
 0001:0009cf40       __unwindfunclet$?Setup@CConfig@@QAEXXZ$448 1009df40 f   Configuration.obj
 0001:0009cf48       __unwindfunclet$?Setup@CConfig@@QAEXXZ$450 1009df48 f   Configuration.obj
 0001:0009cf50       __unwindfunclet$?Setup@CConfig@@QAEXXZ$452 1009df50 f   Configuration.obj
 0001:0009cf58       __unwindfunclet$?Setup@CConfig@@QAEXXZ$454 1009df58 f   Configuration.obj
 0001:0009cf60       __unwindfunclet$?Setup@CConfig@@QAEXXZ$456 1009df60 f   Configuration.obj
 0001:0009cf68       __unwindfunclet$?Setup@CConfig@@QAEXXZ$458 1009df68 f   Configuration.obj
 0001:0009cf70       __unwindfunclet$?Setup@CConfig@@QAEXXZ$460 1009df70 f   Configuration.obj
 0001:0009cf78       __unwindfunclet$?Setup@CConfig@@QAEXXZ$462 1009df78 f   Configuration.obj
 0001:0009cf80       __unwindfunclet$?Setup@CConfig@@QAEXXZ$464 1009df80 f   Configuration.obj
 0001:0009cf88       __unwindfunclet$?Setup@CConfig@@QAEXXZ$466 1009df88 f   Configuration.obj
 0001:0009cf90       __ehhandler$?Setup@CConfig@@QAEXXZ 1009df90 f   Configuration.obj
 0001:0009cfb0       __unwindfunclet$?SetupValue@CConfig@@AAEXAAMMV?$basic_string@DU?$char_traits@D@std@@V?$allocator@D@2@@std@@1@Z$0 1009dfb0 f   Configuration.obj
 0001:0009cfb0       __unwindfunclet$?SetupValue@CConfig@@AAEXAA_N_NV?$basic_string@DU?$char_traits@D@std@@V?$allocator@D@2@@std@@2@Z$0 1009dfb0 f   Configuration.obj
 0001:0009cfb0       __unwindfunclet$?SetupValue@CConfig@@AAEXAAHHV?$basic_string@DU?$char_traits@D@std@@V?$allocator@D@2@@std@@1@Z$0 1009dfb0 f   Configuration.obj
 0001:0009cfb8       __unwindfunclet$?SetupValue@CConfig@@AAEXAAHHV?$basic_string@DU?$char_traits@D@std@@V?$allocator@D@2@@std@@1@Z$1 1009dfb8 f   Configuration.obj
 0001:0009cfb8       __unwindfunclet$?SetupValue@CConfig@@AAEXAAMMV?$basic_string@DU?$char_traits@D@std@@V?$allocator@D@2@@std@@1@Z$1 1009dfb8 f   Configuration.obj
 0001:0009cfb8       __unwindfunclet$?SetupValue@CConfig@@AAEXAA_N_NV?$basic_string@DU?$char_traits@D@std@@V?$allocator@D@2@@std@@2@Z$1 1009dfb8 f   Configuration.obj
 0001:0009cfc0       __unwindfunclet$?SetupValue@CConfig@@AAEXAA_N_NV?$basic_string@DU?$char_traits@D@std@@V?$allocator@D@2@@std@@2@Z$2 1009dfc0 f   Configuration.obj
 0001:0009cfc0       __unwindfunclet$?SetupValue@CConfig@@AAEXAAMMV?$basic_string@DU?$char_traits@D@std@@V?$allocator@D@2@@std@@1@Z$2 1009dfc0 f   Configuration.obj
 0001:0009cfc0       __unwindfunclet$?SetupValue@CConfig@@AAEXAAHHV?$basic_string@DU?$char_traits@D@std@@V?$allocator@D@2@@std@@1@Z$2 1009dfc0 f   Configuration.obj
 0001:0009cfcf       __unwindfunclet$?SetupValue@CConfig@@AAEXAAMMV?$basic_string@DU?$char_traits@D@std@@V?$allocator@D@2@@std@@1@Z$3 1009dfcf f   Configuration.obj
 0001:0009cfcf       __unwindfunclet$?SetupValue@CConfig@@AAEXAA_N_NV?$basic_string@DU?$char_traits@D@std@@V?$allocator@D@2@@std@@2@Z$3 1009dfcf f   Configuration.obj
 0001:0009cfcf       __unwindfunclet$?SetupValue@CConfig@@AAEXAAHHV?$basic_string@DU?$char_traits@D@std@@V?$allocator@D@2@@std@@1@Z$3 1009dfcf f   Configuration.obj
 0001:0009cfd7       __unwindfunclet$?SetupValue@CConfig@@AAEXAAHHV?$basic_string@DU?$char_traits@D@std@@V?$allocator@D@2@@std@@1@Z$5 1009dfd7 f   Configuration.obj
 0001:0009cfd7       __unwindfunclet$?SetupValue@CConfig@@AAEXAA_N_NV?$basic_string@DU?$char_traits@D@std@@V?$allocator@D@2@@std@@2@Z$5 1009dfd7 f   Configuration.obj
 0001:0009cfd7       __unwindfunclet$?SetupValue@CConfig@@AAEXAAMMV?$basic_string@DU?$char_traits@D@std@@V?$allocator@D@2@@std@@1@Z$5 1009dfd7 f   Configuration.obj
 0001:0009cfdf       __unwindfunclet$?SetupValue@CConfig@@AAEXAAMMV?$basic_string@DU?$char_traits@D@std@@V?$allocator@D@2@@std@@1@Z$6 1009dfdf f   Configuration.obj
 0001:0009cfdf       __unwindfunclet$?SetupValue@CConfig@@AAEXAA_N_NV?$basic_string@DU?$char_traits@D@std@@V?$allocator@D@2@@std@@2@Z$6 1009dfdf f   Configuration.obj
 0001:0009cfdf       __unwindfunclet$?SetupValue@CConfig@@AAEXAAHHV?$basic_string@DU?$char_traits@D@std@@V?$allocator@D@2@@std@@1@Z$6 1009dfdf f   Configuration.obj
 0001:0009cfe7       __unwindfunclet$?SetupValue@CConfig@@AAEXAAMMV?$basic_string@DU?$char_traits@D@std@@V?$allocator@D@2@@std@@1@Z$7 1009dfe7 f   Configuration.obj
 0001:0009cfe7       __unwindfunclet$?SetupValue@CConfig@@AAEXAA_N_NV?$basic_string@DU?$char_traits@D@std@@V?$allocator@D@2@@std@@2@Z$7 1009dfe7 f   Configuration.obj
 0001:0009cfe7       __unwindfunclet$?SetupValue@CConfig@@AAEXAAHHV?$basic_string@DU?$char_traits@D@std@@V?$allocator@D@2@@std@@1@Z$7 1009dfe7 f   Configuration.obj
 0001:0009cfef       __unwindfunclet$?SetupValue@CConfig@@AAEXAAHHV?$basic_string@DU?$char_traits@D@std@@V?$allocator@D@2@@std@@1@Z$8 1009dfef f   Configuration.obj
 0001:0009cfef       __unwindfunclet$?SetupValue@CConfig@@AAEXAAMMV?$basic_string@DU?$char_traits@D@std@@V?$allocator@D@2@@std@@1@Z$8 1009dfef f   Configuration.obj
 0001:0009cfef       __unwindfunclet$?SetupValue@CConfig@@AAEXAA_N_NV?$basic_string@DU?$char_traits@D@std@@V?$allocator@D@2@@std@@2@Z$8 1009dfef f   Configuration.obj
 0001:0009cffa       __ehhandler$?SetupValue@CConfig@@AAEXAAHHV?$basic_string@DU?$char_traits@D@std@@V?$allocator@D@2@@std@@1@Z 1009dffa f   Configuration.obj
 0001:0009cffa       __ehhandler$?SetupValue@CConfig@@AAEXAA_N_NV?$basic_string@DU?$char_traits@D@std@@V?$allocator@D@2@@std@@2@Z 1009dffa f   Configuration.obj
 0001:0009cffa       __ehhandler$?SetupValue@CConfig@@AAEXAAMMV?$basic_string@DU?$char_traits@D@std@@V?$allocator@D@2@@std@@1@Z 1009dffa f   Configuration.obj
 0001:0009d020       __ehhandler$?_Reallocate_exactly@?$vector@V?$_List_unchecked_iterator@V?$_List_val@U?$_List_simple_types@U?$pair@$$CBV?$basic_string@DU?$char_traits@D@std@@V?$allocator@D@2@@std@@V12@@std@@@std@@@std@@@std@@V?$allocator@V?$_List_unchecked_iterator@V?$_List_val@U?$_List_simple_types@U?$pair@$$CBV?$basic_string@DU?$char_traits@D@std@@V?$allocator@D@2@@std@@V12@@std@@@std@@@std@@@std@@@2@@std@@AAEXI@Z 1009e020 f   Configuration.obj
 0001:0009d020       __ehhandler$?_Reallocate_exactly@?$vector@V?$_List_unchecked_iterator@V?$_List_val@U?$_List_simple_types@U?$pair@$$CBV?$basic_string@DU?$char_traits@D@std@@V?$allocator@D@2@@std@@UskinInfo@@@std@@@std@@@std@@@std@@V?$allocator@V?$_List_unchecked_iterator@V?$_List_val@U?$_List_simple_types@U?$pair@$$CBV?$basic_string@DU?$char_traits@D@std@@V?$allocator@D@2@@std@@UskinInfo@@@std@@@std@@@std@@@std@@@2@@std@@AAEXI@Z 1009e020 f   Configuration.obj
 0001:0009d020       __ehhandler$?_Reallocate_exactly@?$vector@V?$_List_unchecked_iterator@V?$_List_val@U?$_List_simple_types@U?$pair@QADPAD@std@@@std@@@std@@@std@@V?$allocator@V?$_List_unchecked_iterator@V?$_List_val@U?$_List_simple_types@U?$pair@QADPAD@std@@@std@@@std@@@std@@@2@@std@@AAEXI@Z 1009e020 f   Hooks.obj
 0001:0009d020       __ehhandler$?_Reallocate_exactly@?$vector@V?$_List_unchecked_iterator@V?$_List_val@U?$_List_simple_types@U?$pair@$$CBV?$basic_string@DU?$char_traits@D@std@@V?$allocator@D@2@@std@@V?$set@V?$basic_string@DU?$char_traits@D@std@@V?$allocator@D@2@@std@@U?$less@V?$basic_string@DU?$char_traits@D@std@@V?$allocator@D@2@@std@@@2@V?$allocator@V?$basic_string@DU?$char_traits@D@std@@V?$allocator@D@2@@std@@@2@@2@@std@@@std@@@std@@@std@@V?$allocator@V?$_List_unchecked_iterator@V?$_List_val@U?$_List_simple_types@U?$pair@$$CBV?$basic_string@DU?$char_traits@D@std@@V?$allocator@D@2@@std@@V?$set@V?$basic_string@DU?$char_traits@D@std@@V?$allocator@D@2@@std@@U?$less@V?$basic_string@DU?$char_traits@D@std@@V?$allocator@D@2@@std@@@2@V?$allocator@V?$basic_string@DU?$char_traits@D@std@@V?$allocator@D@2@@std@@@2@@2@@std@@@std@@@std@@@std@@@2@@std@@AAEXI@Z 1009e020 f   Configuration.obj
 0001:0009d040       __ehhandler$?erase@?$_Tree@V?$_Tset_traits@V?$basic_string@DU?$char_traits@D@std@@V?$allocator@D@2@@std@@U?$less@V?$basic_string@DU?$char_traits@D@std@@V?$allocator@D@2@@std@@@2@V?$allocator@V?$basic_string@DU?$char_traits@D@std@@V?$allocator@D@2@@std@@@2@$0A@@std@@@std@@QAE?AV?$_Tree_const_iterator@V?$_Tree_val@U?$_Tree_simple_types@V?$basic_string@DU?$char_traits@D@std@@V?$allocator@D@2@@std@@@std@@@std@@@2@V32@0@Z 1009e040 f   Configuration.obj
 0001:0009d060       __unwindfunclet$??__EItemDefinitionIndexMap@@YAXXZ$0 1009e060 f   DLLMain.obj
 0001:0009d06a       __ehhandler$??__EItemDefinitionIndexMap@@YAXXZ 1009e06a f   DLLMain.obj
 0001:0009d0a0       __unwindfunclet$??__EItemDefinitionIndexMap@@YAXXZ$0 1009e0a0 f   EnginePrediction.obj
 0001:0009d0aa       __ehhandler$??__EItemDefinitionIndexMap@@YAXXZ 1009e0aa f   EnginePrediction.obj
 0001:0009d0e0       __ehhandler$??$emplace_back@VText@?1??DrawInfo@visuals@@AAEXUtagRECT@@PAVC_BaseEntity@@1@Z@@?$vector@VText@?1??DrawInfo@visuals@@AAEXUtagRECT@@PAVC_BaseEntity@@1@Z@V?$allocator@VText@?1??DrawInfo@visuals@@AAEXUtagRECT@@PAVC_BaseEntity@@1@Z@@std@@@std@@QAEX$$QAVText@?1??DrawInfo@visuals@@AAEXUtagRECT@@PAVC_BaseEntity@@1@Z@@Z 1009e0e0 f   ESP.obj
 0001:0009d100       __unwindfunclet$??0Text@?1??DrawInfo@visuals@@AAEXUtagRECT@@PAVC_BaseEntity@@1@Z@QAE@V?$basic_string@DU?$char_traits@D@std@@V?$allocator@D@2@@std@@HHVColor@@@Z$0 1009e100 f   ESP.obj
 0001:0009d108       __ehhandler$??0Text@?1??DrawInfo@visuals@@AAEXUtagRECT@@PAVC_BaseEntity@@1@Z@QAE@V?$basic_string@DU?$char_traits@D@std@@V?$allocator@D@2@@std@@HHVColor@@@Z 1009e108 f   ESP.obj
 0001:0009d130       __unwindfunclet$??__EItemDefinitionIndexMap@@YAXXZ$0 1009e130 f   ESP.obj
 0001:0009d13a       __ehhandler$??__EItemDefinitionIndexMap@@YAXXZ 1009e13a f   ESP.obj
 0001:0009d170       __unwindfunclet$?DrawInfo@visuals@@AAEXUtagRECT@@PAVC_BaseEntity@@1@Z$0 1009e170 f   ESP.obj
 0001:0009d17b       __unwindfunclet$?DrawInfo@visuals@@AAEXUtagRECT@@PAVC_BaseEntity@@1@Z$4 1009e17b f   ESP.obj
 0001:0009d183       __unwindfunclet$?DrawInfo@visuals@@AAEXUtagRECT@@PAVC_BaseEntity@@1@Z$6 1009e183 f   ESP.obj
 0001:0009d18b       __unwindfunclet$?DrawInfo@visuals@@AAEXUtagRECT@@PAVC_BaseEntity@@1@Z$8 1009e18b f   ESP.obj
 0001:0009d193       __unwindfunclet$?DrawInfo@visuals@@AAEXUtagRECT@@PAVC_BaseEntity@@1@Z$9 1009e193 f   ESP.obj
 0001:0009d19e       __unwindfunclet$?DrawInfo@visuals@@AAEXUtagRECT@@PAVC_BaseEntity@@1@Z$10 1009e19e f   ESP.obj
 0001:0009d1a9       __unwindfunclet$?DrawInfo@visuals@@AAEXUtagRECT@@PAVC_BaseEntity@@1@Z$12 1009e1a9 f   ESP.obj
 0001:0009d1b1       __unwindfunclet$?DrawInfo@visuals@@AAEXUtagRECT@@PAVC_BaseEntity@@1@Z$14 1009e1b1 f   ESP.obj
 0001:0009d1b9       __unwindfunclet$?DrawInfo@visuals@@AAEXUtagRECT@@PAVC_BaseEntity@@1@Z$15 1009e1b9 f   ESP.obj
 0001:0009d1c4       __unwindfunclet$?DrawInfo@visuals@@AAEXUtagRECT@@PAVC_BaseEntity@@1@Z$16 1009e1c4 f   ESP.obj
 0001:0009d1cf       __unwindfunclet$?DrawInfo@visuals@@AAEXUtagRECT@@PAVC_BaseEntity@@1@Z$17 1009e1cf f   ESP.obj
 0001:0009d1da       __unwindfunclet$?DrawInfo@visuals@@AAEXUtagRECT@@PAVC_BaseEntity@@1@Z$18 1009e1da f   ESP.obj
 0001:0009d1e5       __unwindfunclet$?DrawInfo@visuals@@AAEXUtagRECT@@PAVC_BaseEntity@@1@Z$19 1009e1e5 f   ESP.obj
 0001:0009d1f0       __unwindfunclet$?DrawInfo@visuals@@AAEXUtagRECT@@PAVC_BaseEntity@@1@Z$20 1009e1f0 f   ESP.obj
 0001:0009d1fb       __unwindfunclet$?DrawInfo@visuals@@AAEXUtagRECT@@PAVC_BaseEntity@@1@Z$21 1009e1fb f   ESP.obj
 0001:0009d203       __unwindfunclet$?DrawInfo@visuals@@AAEXUtagRECT@@PAVC_BaseEntity@@1@Z$22 1009e203 f   ESP.obj
 0001:0009d20e       __unwindfunclet$?DrawInfo@visuals@@AAEXUtagRECT@@PAVC_BaseEntity@@1@Z$23 1009e20e f   ESP.obj
 0001:0009d219       __unwindfunclet$?DrawInfo@visuals@@AAEXUtagRECT@@PAVC_BaseEntity@@1@Z$25 1009e219 f   ESP.obj
 0001:0009d221       __unwindfunclet$?DrawInfo@visuals@@AAEXUtagRECT@@PAVC_BaseEntity@@1@Z$27 1009e221 f   ESP.obj
 0001:0009d229       __unwindfunclet$?DrawInfo@visuals@@AAEXUtagRECT@@PAVC_BaseEntity@@1@Z$29 1009e229 f   ESP.obj
 0001:0009d231       __unwindfunclet$?DrawInfo@visuals@@AAEXUtagRECT@@PAVC_BaseEntity@@1@Z$31 1009e231 f   ESP.obj
 0001:0009d239       __unwindfunclet$?DrawInfo@visuals@@AAEXUtagRECT@@PAVC_BaseEntity@@1@Z$32 1009e239 f   ESP.obj
 0001:0009d244       __unwindfunclet$?DrawInfo@visuals@@AAEXUtagRECT@@PAVC_BaseEntity@@1@Z$33 1009e244 f   ESP.obj
 0001:0009d24f       __unwindfunclet$?DrawInfo@visuals@@AAEXUtagRECT@@PAVC_BaseEntity@@1@Z$35 1009e24f f   ESP.obj
 0001:0009d257       __unwindfunclet$?DrawInfo@visuals@@AAEXUtagRECT@@PAVC_BaseEntity@@1@Z$2 1009e257 f   ESP.obj
 0001:0009d25f       __unwindfunclet$?DrawInfo@visuals@@AAEXUtagRECT@@PAVC_BaseEntity@@1@Z$36 1009e25f f   ESP.obj
 0001:0009d267       __ehhandler$?DrawInfo@visuals@@AAEXUtagRECT@@PAVC_BaseEntity@@1@Z 1009e267 f   ESP.obj
 0001:0009d290       __unwindfunclet$?NightMode@visuals@@AAEXXZ$0 1009e290 f   ESP.obj
 0001:0009d29c       __unwindfunclet$?NightMode@visuals@@AAEXXZ$1 1009e29c f   ESP.obj
 0001:0009d2a8       __ehhandler$?NightMode@visuals@@AAEXXZ 1009e2a8 f   ESP.obj
 0001:0009d2d0       __unwindfunclet$??__EItemDefinitionIndexMap@@YAXXZ$0 1009e2d0 f   Global.obj
 0001:0009d2da       __ehhandler$??__EItemDefinitionIndexMap@@YAXXZ 1009e2da f   Global.obj
 0001:0009d310       __ehhandler$??$emplace_back@ABVVector@@@?$vector@VVector@@V?$allocator@VVector@@@std@@@std@@QAEXABVVector@@@Z 1009e310 f   GrenadePrediction.obj
 0001:0009d330       __unwindfunclet$??__EItemDefinitionIndexMap@@YAXXZ$0 1009e330 f   GrenadePrediction.obj
 0001:0009d33a       __ehhandler$??__EItemDefinitionIndexMap@@YAXXZ 1009e33a f   GrenadePrediction.obj
 0001:0009d370       __unwindfunclet$??$_Buynode@ABUpiecewise_construct_t@std@@V?$tuple@ABV?$basic_string@DU?$char_traits@D@std@@V?$allocator@D@2@@std@@@2@V?$tuple@$$V@2@@?$_List_buy@U?$pair@$$CBV?$basic_string@DU?$char_traits@D@std@@V?$allocator@D@2@@std@@UskinInfo@@@std@@V?$allocator@U?$pair@$$CBV?$basic_string@DU?$char_traits@D@std@@V?$allocator@D@2@@std@@UskinInfo@@@std@@@2@@std@@QAEPAU?$_List_node@U?$pair@$$CBV?$basic_string@DU?$char_traits@D@std@@V?$allocator@D@2@@std@@UskinInfo@@@std@@PAX@1@PAU21@0ABUpiecewise_construct_t@1@$$QAV?$tuple@ABV?$basic_string@DU?$char_traits@D@std@@V?$allocator@D@2@@std@@@1@$$QAV?$tuple@$$V@1@@Z$2 1009e370 f   Hooks.obj
 0001:0009d381       __ehhandler$??$_Buynode@ABUpiecewise_construct_t@std@@V?$tuple@ABV?$basic_string@DU?$char_traits@D@std@@V?$allocator@D@2@@std@@@2@V?$tuple@$$V@2@@?$_List_buy@U?$pair@$$CBV?$basic_string@DU?$char_traits@D@std@@V?$allocator@D@2@@std@@UskinInfo@@@std@@V?$allocator@U?$pair@$$CBV?$basic_string@DU?$char_traits@D@std@@V?$allocator@D@2@@std@@UskinInfo@@@std@@@2@@std@@QAEPAU?$_List_node@U?$pair@$$CBV?$basic_string@DU?$char_traits@D@std@@V?$allocator@D@2@@std@@UskinInfo@@@std@@PAX@1@PAU21@0ABUpiecewise_construct_t@1@$$QAV?$tuple@ABV?$basic_string@DU?$char_traits@D@std@@V?$allocator@D@2@@std@@@1@$$QAV?$tuple@$$V@1@@Z 1009e381 f   Hooks.obj
 0001:0009d3a0       __unwindfunclet$??$_Buynode@ABUpiecewise_construct_t@std@@V?$tuple@ABV?$basic_string@DU?$char_traits@D@std@@V?$allocator@D@2@@std@@@2@V?$tuple@$$V@2@@?$_List_buy@U?$pair@$$CBV?$basic_string@DU?$char_traits@D@std@@V?$allocator@D@2@@std@@V12@@std@@V?$allocator@U?$pair@$$CBV?$basic_string@DU?$char_traits@D@std@@V?$allocator@D@2@@std@@V12@@std@@@2@@std@@QAEPAU?$_List_node@U?$pair@$$CBV?$basic_string@DU?$char_traits@D@std@@V?$allocator@D@2@@std@@V12@@std@@PAX@1@PAU21@0ABUpiecewise_construct_t@1@$$QAV?$tuple@ABV?$basic_string@DU?$char_traits@D@std@@V?$allocator@D@2@@std@@@1@$$QAV?$tuple@$$V@1@@Z$2 1009e3a0 f   Hooks.obj
 0001:0009d3b1       __ehhandler$??$_Buynode@ABUpiecewise_construct_t@std@@V?$tuple@ABV?$basic_string@DU?$char_traits@D@std@@V?$allocator@D@2@@std@@@2@V?$tuple@$$V@2@@?$_List_buy@U?$pair@$$CBV?$basic_string@DU?$char_traits@D@std@@V?$allocator@D@2@@std@@V12@@std@@V?$allocator@U?$pair@$$CBV?$basic_string@DU?$char_traits@D@std@@V?$allocator@D@2@@std@@V12@@std@@@2@@std@@QAEPAU?$_List_node@U?$pair@$$CBV?$basic_string@DU?$char_traits@D@std@@V?$allocator@D@2@@std@@V12@@std@@PAX@1@PAU21@0ABUpiecewise_construct_t@1@$$QAV?$tuple@ABV?$basic_string@DU?$char_traits@D@std@@V?$allocator@D@2@@std@@@1@$$QAV?$tuple@$$V@1@@Z 1009e3b1 f   Hooks.obj
 0001:0009d3d0       __unwindfunclet$??$_Buynode@ABUpiecewise_construct_t@std@@V?$tuple@ABV?$basic_string@DU?$char_traits@D@std@@V?$allocator@D@2@@std@@@2@V?$tuple@$$V@2@@?$_List_buy@U?$pair@$$CBV?$basic_string@DU?$char_traits@D@std@@V?$allocator@D@2@@std@@V?$set@V?$basic_string@DU?$char_traits@D@std@@V?$allocator@D@2@@std@@U?$less@V?$basic_string@DU?$char_traits@D@std@@V?$allocator@D@2@@std@@@2@V?$allocator@V?$basic_string@DU?$char_traits@D@std@@V?$allocator@D@2@@std@@@2@@2@@std@@V?$allocator@U?$pair@$$CBV?$basic_string@DU?$char_traits@D@std@@V?$allocator@D@2@@std@@V?$set@V?$basic_string@DU?$char_traits@D@std@@V?$allocator@D@2@@std@@U?$less@V?$basic_string@DU?$char_traits@D@std@@V?$allocator@D@2@@std@@@2@V?$allocator@V?$basic_string@DU?$char_traits@D@std@@V?$allocator@D@2@@std@@@2@@2@@std@@@2@@std@@QAEPAU?$_List_node@U?$pair@$$CBV?$basic_string@DU?$char_traits@D@std@@V?$allocator@D@2@@std@@V?$set@V?$basic_string@DU?$char_traits@D@std@@V?$allocator@D@2@@std@@U?$less@V?$basic_string@DU?$char_traits@D@std@@V?$allocator@D@2@@std@@@2@V?$allocator@V?$basic_string@DU?$char_traits@D@std@@V?$allocator@D@2@@std@@@2@@2@@std@@PAX@1@PAU21@0ABUpiecewise_construct_t@1@$$QAV?$tuple@ABV?$basic_string@DU?$char_traits@D@std@@V?$allocator@D@2@@std@@@1@$$QAV?$tuple@$$V@1@@Z$2 1009e3d0 f   Hooks.obj
 0001:0009d3e1       __unwindfunclet$??$_Buynode@ABUpiecewise_construct_t@std@@V?$tuple@ABV?$basic_string@DU?$char_traits@D@std@@V?$allocator@D@2@@std@@@2@V?$tuple@$$V@2@@?$_List_buy@U?$pair@$$CBV?$basic_string@DU?$char_traits@D@std@@V?$allocator@D@2@@std@@V?$set@V?$basic_string@DU?$char_traits@D@std@@V?$allocator@D@2@@std@@U?$less@V?$basic_string@DU?$char_traits@D@std@@V?$allocator@D@2@@std@@@2@V?$allocator@V?$basic_string@DU?$char_traits@D@std@@V?$allocator@D@2@@std@@@2@@2@@std@@V?$allocator@U?$pair@$$CBV?$basic_string@DU?$char_traits@D@std@@V?$allocator@D@2@@std@@V?$set@V?$basic_string@DU?$char_traits@D@std@@V?$allocator@D@2@@std@@U?$less@V?$basic_string@DU?$char_traits@D@std@@V?$allocator@D@2@@std@@@2@V?$allocator@V?$basic_string@DU?$char_traits@D@std@@V?$allocator@D@2@@std@@@2@@2@@std@@@2@@std@@QAEPAU?$_List_node@U?$pair@$$CBV?$basic_string@DU?$char_traits@D@std@@V?$allocator@D@2@@std@@V?$set@V?$basic_string@DU?$char_traits@D@std@@V?$allocator@D@2@@std@@U?$less@V?$basic_string@DU?$char_traits@D@std@@V?$allocator@D@2@@std@@@2@V?$allocator@V?$basic_string@DU?$char_traits@D@std@@V?$allocator@D@2@@std@@@2@@2@@std@@PAX@1@PAU21@0ABUpiecewise_construct_t@1@$$QAV?$tuple@ABV?$basic_string@DU?$char_traits@D@std@@V?$allocator@D@2@@std@@@1@$$QAV?$tuple@$$V@1@@Z$4 1009e3e1 f   Hooks.obj
 0001:0009d3e9       __ehhandler$??$_Buynode@ABUpiecewise_construct_t@std@@V?$tuple@ABV?$basic_string@DU?$char_traits@D@std@@V?$allocator@D@2@@std@@@2@V?$tuple@$$V@2@@?$_List_buy@U?$pair@$$CBV?$basic_string@DU?$char_traits@D@std@@V?$allocator@D@2@@std@@V?$set@V?$basic_string@DU?$char_traits@D@std@@V?$allocator@D@2@@std@@U?$less@V?$basic_string@DU?$char_traits@D@std@@V?$allocator@D@2@@std@@@2@V?$allocator@V?$basic_string@DU?$char_traits@D@std@@V?$allocator@D@2@@std@@@2@@2@@std@@V?$allocator@U?$pair@$$CBV?$basic_string@DU?$char_traits@D@std@@V?$allocator@D@2@@std@@V?$set@V?$basic_string@DU?$char_traits@D@std@@V?$allocator@D@2@@std@@U?$less@V?$basic_string@DU?$char_traits@D@std@@V?$allocator@D@2@@std@@@2@V?$allocator@V?$basic_string@DU?$char_traits@D@std@@V?$allocator@D@2@@std@@@2@@2@@std@@@2@@std@@QAEPAU?$_List_node@U?$pair@$$CBV?$basic_string@DU?$char_traits@D@std@@V?$allocator@D@2@@std@@V?$set@V?$basic_string@DU?$char_traits@D@std@@V?$allocator@D@2@@std@@U?$less@V?$basic_string@DU?$char_traits@D@std@@V?$allocator@D@2@@std@@@2@V?$allocator@V?$basic_string@DU?$char_traits@D@std@@V?$allocator@D@2@@std@@@2@@2@@std@@PAX@1@PAU21@0ABUpiecewise_construct_t@1@$$QAV?$tuple@ABV?$basic_string@DU?$char_traits@D@std@@V?$allocator@D@2@@std@@@1@$$QAV?$tuple@$$V@1@@Z 1009e3e9 f   Hooks.obj
 0001:0009d410       __ehhandler$??$_Insert@AAU?$pair@$$CBV?$basic_string@DU?$char_traits@D@std@@V?$allocator@D@2@@std@@UskinInfo@@@std@@V?$_List_unchecked_iterator@V?$_List_val@U?$_List_simple_types@U?$pair@$$CBV?$basic_string@DU?$char_traits@D@std@@V?$allocator@D@2@@std@@UskinInfo@@@std@@@std@@@std@@@2@@?$_Hash@V?$_Umap_traits@V?$basic_string@DU?$char_traits@D@std@@V?$allocator@D@2@@std@@UskinInfo@@V?$_Uhash_compare@V?$basic_string@DU?$char_traits@D@std@@V?$allocator@D@2@@std@@U?$hash@V?$basic_string@DU?$char_traits@D@std@@V?$allocator@D@2@@std@@@2@U?$equal_to@V?$basic_string@DU?$char_traits@D@std@@V?$allocator@D@2@@std@@@2@@2@V?$allocator@U?$pair@$$CBV?$basic_string@DU?$char_traits@D@std@@V?$allocator@D@2@@std@@UskinInfo@@@std@@@2@$0A@@std@@@std@@IAE?AU?$pair@V?$_List_iterator@V?$_List_val@U?$_List_simple_types@U?$pair@$$CBV?$basic_string@DU?$char_traits@D@std@@V?$allocator@D@2@@std@@UskinInfo@@@std@@@std@@@std@@@std@@_N@1@AAU?$pair@$$CBV?$basic_string@DU?$char_traits@D@std@@V?$allocator@D@2@@std@@UskinInfo@@@1@V?$_List_unchecked_iterator@V?$_List_val@U?$_List_simple_types@U?$pair@$$CBV?$basic_string@DU?$char_traits@D@std@@V?$allocator@D@2@@std@@UskinInfo@@@std@@@std@@@std@@@1@@Z 1009e410 f   Hooks.obj
 0001:0009d430       __ehhandler$??$_Insert@AAU?$pair@$$CBV?$basic_string@DU?$char_traits@D@std@@V?$allocator@D@2@@std@@V12@@std@@V?$_List_unchecked_iterator@V?$_List_val@U?$_List_simple_types@U?$pair@$$CBV?$basic_string@DU?$char_traits@D@std@@V?$allocator@D@2@@std@@V12@@std@@@std@@@std@@@2@@?$_Hash@V?$_Umap_traits@V?$basic_string@DU?$char_traits@D@std@@V?$allocator@D@2@@std@@V12@V?$_Uhash_compare@V?$basic_string@DU?$char_traits@D@std@@V?$allocator@D@2@@std@@U?$hash@V?$basic_string@DU?$char_traits@D@std@@V?$allocator@D@2@@std@@@2@U?$equal_to@V?$basic_string@DU?$char_traits@D@std@@V?$allocator@D@2@@std@@@2@@2@V?$allocator@U?$pair@$$CBV?$basic_string@DU?$char_traits@D@std@@V?$allocator@D@2@@std@@V12@@std@@@2@$0A@@std@@@std@@IAE?AU?$pair@V?$_List_iterator@V?$_List_val@U?$_List_simple_types@U?$pair@$$CBV?$basic_string@DU?$char_traits@D@std@@V?$allocator@D@2@@std@@V12@@std@@@std@@@std@@@std@@_N@1@AAU?$pair@$$CBV?$basic_string@DU?$char_traits@D@std@@V?$allocator@D@2@@std@@V12@@1@V?$_List_unchecked_iterator@V?$_List_val@U?$_List_simple_types@U?$pair@$$CBV?$basic_string@DU?$char_traits@D@std@@V?$allocator@D@2@@std@@V12@@std@@@std@@@std@@@1@@Z 1009e430 f   Hooks.obj
 0001:0009d450       __ehhandler$??$_Insert@AAU?$pair@$$CBV?$basic_string@DU?$char_traits@D@std@@V?$allocator@D@2@@std@@V?$set@V?$basic_string@DU?$char_traits@D@std@@V?$allocator@D@2@@std@@U?$less@V?$basic_string@DU?$char_traits@D@std@@V?$allocator@D@2@@std@@@2@V?$allocator@V?$basic_string@DU?$char_traits@D@std@@V?$allocator@D@2@@std@@@2@@2@@std@@V?$_List_unchecked_iterator@V?$_List_val@U?$_List_simple_types@U?$pair@$$CBV?$basic_string@DU?$char_traits@D@std@@V?$allocator@D@2@@std@@V?$set@V?$basic_string@DU?$char_traits@D@std@@V?$allocator@D@2@@std@@U?$less@V?$basic_string@DU?$char_traits@D@std@@V?$allocator@D@2@@std@@@2@V?$allocator@V?$basic_string@DU?$char_traits@D@std@@V?$allocator@D@2@@std@@@2@@2@@std@@@std@@@std@@@2@@?$_Hash@V?$_Umap_traits@V?$basic_string@DU?$char_traits@D@std@@V?$allocator@D@2@@std@@V?$set@V?$basic_string@DU?$char_traits@D@std@@V?$allocator@D@2@@std@@U?$less@V?$basic_string@DU?$char_traits@D@std@@V?$allocator@D@2@@std@@@2@V?$allocator@V?$basic_string@DU?$char_traits@D@std@@V?$allocator@D@2@@std@@@2@@2@V?$_Uhash_compare@V?$basic_string@DU?$char_traits@D@std@@V?$allocator@D@2@@std@@U?$hash@V?$basic_string@DU?$char_traits@D@std@@V?$allocator@D@2@@std@@@2@U?$equal_to@V?$basic_string@DU?$char_traits@D@std@@V?$allocator@D@2@@std@@@2@@2@V?$allocator@U?$pair@$$CBV?$basic_string@DU?$char_traits@D@std@@V?$allocator@D@2@@std@@V?$set@V?$basic_string@DU?$char_traits@D@std@@V?$allocator@D@2@@std@@U?$less@V?$basic_string@DU?$char_traits@D@std@@V?$allocator@D@2@@std@@@2@V?$allocator@V?$basic_string@DU?$char_traits@D@std@@V?$allocator@D@2@@std@@@2@@2@@std@@@2@$0A@@std@@@std@@IAE?AU?$pair@V?$_List_iterator@V?$_List_val@U?$_List_simple_types@U?$pair@$$CBV?$basic_string@DU?$char_traits@D@std@@V?$allocator@D@2@@std@@V?$set@V?$basic_string@DU?$char_traits@D@std@@V?$allocator@D@2@@std@@U?$less@V?$basic_string@DU?$char_traits@D@std@@V?$allocator@D@2@@std@@@2@V?$allocator@V?$basic_string@DU?$char_traits@D@std@@V?$allocator@D@2@@std@@@2@@2@@std@@@std@@@std@@@std@@_N@1@AAU?$pair@$$CBV?$basic_string@DU?$char_traits@D@std@@V?$allocator@D@2@@std@@V?$set@V?$basic_string@DU?$char_traits@D@std@@V?$allocator@D@2@@std@@U?$less@V?$basic_string@DU?$char_traits@D@std@@V?$allocator@D@2@@std@@@2@V?$allocator@V?$basic_string@DU?$char_traits@D@std@@V?$allocator@D@2@@std@@@2@@2@@1@V?$_List_unchecked_iterator@V?$_List_val@U?$_List_simple_types@U?$pair@$$CBV?$basic_string@DU?$char_traits@D@std@@V?$allocator@D@2@@std@@V?$set@V?$basic_string@DU?$char_traits@D@std@@V?$allocator@D@2@@std@@U?$less@V?$basic_string@DU?$char_traits@D@std@@V?$allocator@D@2@@std@@@2@V?$allocator@V?$basic_string@DU?$char_traits@D@std@@V?$allocator@D@2@@std@@@2@@2@@std@@@std@@@std@@@1@@Z 1009e450 f   Hooks.obj
 0001:0009d470       __ehhandler$??$_Insert@AAU?$pair@QADPAD@std@@V?$_List_unchecked_iterator@V?$_List_val@U?$_List_simple_types@U?$pair@QADPAD@std@@@std@@@std@@@2@@?$_Hash@V?$_Umap_traits@PADPADV?$_Uhash_compare@PADU?$hash@PAD@std@@U?$equal_to@PAD@2@@std@@V?$allocator@U?$pair@QADPAD@std@@@2@$0A@@std@@@std@@IAE?AU?$pair@V?$_List_iterator@V?$_List_val@U?$_List_simple_types@U?$pair@QADPAD@std@@@std@@@std@@@std@@_N@1@AAU?$pair@QADPAD@1@V?$_List_unchecked_iterator@V?$_List_val@U?$_List_simple_types@U?$pair@QADPAD@std@@@std@@@std@@@1@@Z 1009e470 f   Hooks.obj
 0001:0009d490       __ehhandler$??$_Insert_nohint@V?$basic_string@DU?$char_traits@D@std@@V?$allocator@D@2@@std@@U_Not_a_node_tag@2@@?$_Tree@V?$_Tset_traits@V?$basic_string@DU?$char_traits@D@std@@V?$allocator@D@2@@std@@U?$less@V?$basic_string@DU?$char_traits@D@std@@V?$allocator@D@2@@std@@@2@V?$allocator@V?$basic_string@DU?$char_traits@D@std@@V?$allocator@D@2@@std@@@2@$0A@@std@@@std@@IAE?AU?$pair@V?$_Tree_const_iterator@V?$_Tree_val@U?$_Tree_simple_types@V?$basic_string@DU?$char_traits@D@std@@V?$allocator@D@2@@std@@@std@@@std@@@std@@_N@1@_N$$QAV?$basic_string@DU?$char_traits@D@std@@V?$allocator@D@2@@1@U_Not_a_node_tag@1@@Z 1009e490 f   Hooks.obj
 0001:0009d4b0       __ehhandler$??$_Range_construct_or_tidy@PBV?$basic_string@DU?$char_traits@D@std@@V?$allocator@D@2@@std@@@?$vector@V?$basic_string@DU?$char_traits@D@std@@V?$allocator@D@2@@std@@V?$allocator@V?$basic_string@DU?$char_traits@D@std@@V?$allocator@D@2@@std@@@2@@std@@AAEXPBV?$basic_string@DU?$char_traits@D@std@@V?$allocator@D@2@@1@0Uforward_iterator_tag@1@@Z 1009e4b0 f   Hooks.obj
 0001:0009d4d0       __unwindfunclet$??$_Uninitialized_copy_al_unchecked@PBV?$basic_string@DU?$char_traits@D@std@@V?$allocator@D@2@@std@@PAV12@V?$allocator@V?$basic_string@DU?$char_traits@D@std@@V?$allocator@D@2@@std@@@2@@std@@YAPAV?$basic_string@DU?$char_traits@D@std@@V?$allocator@D@2@@0@PBV10@0PAV10@AAV?$allocator@V?$basic_string@DU?$char_traits@D@std@@V?$allocator@D@2@@std@@@0@U_General_ptr_iterator_tag@0@U_Unused_parameter@0@@Z$2 1009e4d0 f   Hooks.obj
 0001:0009d4e1       __ehhandler$??$_Uninitialized_copy_al_unchecked@PBV?$basic_string@DU?$char_traits@D@std@@V?$allocator@D@2@@std@@PAV12@V?$allocator@V?$basic_string@DU?$char_traits@D@std@@V?$allocator@D@2@@std@@@2@@std@@YAPAV?$basic_string@DU?$char_traits@D@std@@V?$allocator@D@2@@0@PBV10@0PAV10@AAV?$allocator@V?$basic_string@DU?$char_traits@D@std@@V?$allocator@D@2@@std@@@0@U_General_ptr_iterator_tag@0@U_Unused_parameter@0@@Z 1009e4e1 f   Hooks.obj
 0001:0009d500       __ehhandler$??1?$ImVector@D@@QAE@XZ 1009e500 f   Hooks.obj
 0001:0009d500       __ehhandler$??1?$ImVector@UImGuiColMod@@@@QAE@XZ 1009e500 f   imgui.obj
 0001:0009d500       __ehhandler$??1?$ImVector@UImGuiStyleMod@@@@QAE@XZ 1009e500 f   imgui.obj
 0001:0009d500       __ehhandler$??1?$ImVector@I@@QAE@XZ 1009e500 f   imgui.obj
 0001:0009d500       __ehhandler$??1?$ImVector@UImGuiIniData@@@@QAE@XZ 1009e500 f   imgui.obj
 0001:0009d500       __ehhandler$??1?$ImVector@PAUImDrawList@@@@QAE@XZ 1009e500 f   imgui.obj
 0001:0009d500       __ehhandler$??1?$ImVector@UImGuiPopupRef@@@@QAE@XZ 1009e500 f   imgui.obj
 0001:0009d500       __ehhandler$??1locale@std@@QAE@XZ 1009e500 f   Utilities.obj
 0001:0009d500       __ehhandler$??1?$ImVector@PAUImGuiWindow@@@@QAE@XZ 1009e500 f   imgui.obj
 0001:0009d500       __ehhandler$??1?$ImVector@Ustbrp_rect@@@@QAE@XZ 1009e500 f   imgui_draw.obj
 0001:0009d500       __ehhandler$??1?$ImVector@PAUImFont@@@@QAE@XZ 1009e500 f   imgui.obj
 0001:0009d500       __ehhandler$??1?$ImVector@UImDrawChannel@@@@QAE@XZ 1009e500 f   imgui.obj
 0001:0009d500       __ehhandler$??1?$ImVector@UImVec2@@@@QAE@XZ 1009e500 f   imgui.obj
 0001:0009d500       __ehhandler$??1?$ImVector@PAX@@QAE@XZ 1009e500 f   imgui.obj
 0001:0009d500       __ehhandler$??1?$ImVector@UImVec4@@@@QAE@XZ 1009e500 f   imgui.obj
 0001:0009d500       __ehhandler$??1?$ImVector@UImDrawVert@@@@QAE@XZ 1009e500 f   imgui.obj
 0001:0009d500       __ehhandler$??1?$ImVector@G@@QAE@XZ 1009e500 f   imgui.obj
 0001:0009d500       __ehhandler$??1?$ImVector@UImDrawCmd@@@@QAE@XZ 1009e500 f   imgui.obj
 0001:0009d500       __ehhandler$??1?$ImVector@UGlyph@ImFont@@@@QAE@XZ 1009e500 f   imgui_draw.obj
 0001:0009d500       __ehhandler$??1?$ImVector@M@@QAE@XZ 1009e500 f   imgui_draw.obj
 0001:0009d520       __ehhandler$??_G?$basic_streambuf@DU?$char_traits@D@std@@@std@@UAEPAXI@Z 1009e520 f   Utilities.obj
 0001:0009d520       __ehhandler$??1?$basic_filebuf@DU?$char_traits@D@std@@@std@@UAE@XZ 1009e520 f   Utilities.obj
 0001:0009d520       __ehhandler$??1?$pair@$$CBV?$basic_string@DU?$char_traits@D@std@@V?$allocator@D@2@@std@@V?$set@V?$basic_string@DU?$char_traits@D@std@@V?$allocator@D@2@@std@@U?$less@V?$basic_string@DU?$char_traits@D@std@@V?$allocator@D@2@@std@@@2@V?$allocator@V?$basic_string@DU?$char_traits@D@std@@V?$allocator@D@2@@std@@@2@@2@@std@@QAE@XZ 1009e520 f   Hooks.obj
 0001:0009d540       __unwindfunclet$??__EItemDefinitionIndexMap@@YAXXZ$0 1009e540 f   Hooks.obj
 0001:0009d54a       __ehhandler$??__EItemDefinitionIndexMap@@YAXXZ 1009e54a f   Hooks.obj
 0001:0009d580       __unwindfunclet$??__EkillIcons@@YAXXZ$1 1009e580 f   Hooks.obj
 0001:0009d58a       __unwindfunclet$??__EkillIcons@@YAXXZ$2 1009e58a f   Hooks.obj
 0001:0009d594       __ehhandler$??__EkillIcons@@YAXXZ 1009e594 f   Hooks.obj
 0001:0009d5b0       __ehhandler$??__Flog@?1??on_fire_event@item_purchase@@QAEXPAVIGameEvent@@_N@Z@YAXXZ 1009e5b0 f   Hooks.obj
 0001:0009d5d0       __unwindfunclet$?BreadthFirstSearch@Document@valve_parser@@QAE?AV?$shared_ptr@VNode@valve_parser@@@std@@PAD_N@Z$0 1009e5d0 f   Hooks.obj
 0001:0009d5d8       __unwindfunclet$?BreadthFirstSearch@Document@valve_parser@@QAE?AV?$shared_ptr@VNode@valve_parser@@@std@@PAD_N@Z$1 1009e5d8 f   Hooks.obj
 0001:0009d5e0       __unwindfunclet$?BreadthFirstSearch@Document@valve_parser@@QAE?AV?$shared_ptr@VNode@valve_parser@@@std@@PAD_N@Z$7 1009e5e0 f   Hooks.obj
 0001:0009d5e8       __ehhandler$?BreadthFirstSearch@Document@valve_parser@@QAE?AV?$shared_ptr@VNode@valve_parser@@@std@@PAD_N@Z 1009e5e8 f   Hooks.obj
 0001:0009d610       __unwindfunclet$?BreadthFirstSearchMultiple@Document@valve_parser@@QAE?AV?$vector@V?$shared_ptr@VNode@valve_parser@@@std@@V?$allocator@V?$shared_ptr@VNode@valve_parser@@@std@@@2@@std@@PAD_N@Z$0 1009e610 f   Hooks.obj
 0001:0009d62c       __unwindfunclet$?BreadthFirstSearchMultiple@Document@valve_parser@@QAE?AV?$vector@V?$shared_ptr@VNode@valve_parser@@@std@@V?$allocator@V?$shared_ptr@VNode@valve_parser@@@std@@@2@@std@@PAD_N@Z$1 1009e62c f   Hooks.obj
 0001:0009d634       __unwindfunclet$?BreadthFirstSearchMultiple@Document@valve_parser@@QAE?AV?$vector@V?$shared_ptr@VNode@valve_parser@@@std@@V?$allocator@V?$shared_ptr@VNode@valve_parser@@@std@@@2@@std@@PAD_N@Z$2 1009e634 f   Hooks.obj
 0001:0009d63c       __unwindfunclet$?BreadthFirstSearchMultiple@Document@valve_parser@@QAE?AV?$vector@V?$shared_ptr@VNode@valve_parser@@@std@@V?$allocator@V?$shared_ptr@VNode@valve_parser@@@std@@@2@@std@@PAD_N@Z$7 1009e63c f   Hooks.obj
 0001:0009d644       __unwindfunclet$?BreadthFirstSearchMultiple@Document@valve_parser@@QAE?AV?$vector@V?$shared_ptr@VNode@valve_parser@@@std@@V?$allocator@V?$shared_ptr@VNode@valve_parser@@@std@@@2@@std@@PAD_N@Z$22 1009e644 f   Hooks.obj
 0001:0009d64c       __ehhandler$?BreadthFirstSearchMultiple@Document@valve_parser@@QAE?AV?$vector@V?$shared_ptr@VNode@valve_parser@@@std@@V?$allocator@V?$shared_ptr@VNode@valve_parser@@@std@@@2@@std@@PAD_N@Z 1009e64c f   Hooks.obj
 0001:0009d680       __unwindfunclet$?CHLCreateMove@@YGXHM_NAA_N@Z$1 1009e680 f   Hooks.obj
 0001:0009d68c       __unwindfunclet$?CHLCreateMove@@YGXHM_NAA_N@Z$3 1009e68c f   Hooks.obj
 0001:0009d698       __unwindfunclet$?CHLCreateMove@@YGXHM_NAA_N@Z$4 1009e698 f   Hooks.obj
 0001:0009d6a4       __ehhandler$?CHLCreateMove@@YGXHM_NAA_N@Z 1009e6a4 f   Hooks.obj
 0001:0009d6c0       __unwindfunclet$?GloveChanger@@YAXXZ$0 1009e6c0 f   Hooks.obj
 0001:0009d6cc       __ehhandler$?GloveChanger@@YAXXZ 1009e6cc f   Hooks.obj
 0001:0009d700       __unwindfunclet$?IsConnected@@YG_NXZ$0 1009e700 f   Hooks.obj
 0001:0009d70c       __ehhandler$?IsConnected@@YG_NXZ 1009e70c f   Hooks.obj
 0001:0009d730       __unwindfunclet$?ParseSkins@@YAHXZ$0 1009e730 f   Hooks.obj
 0001:0009d73b       __unwindfunclet$?ParseSkins@@YAHXZ$1 1009e73b f   Hooks.obj
 0001:0009d746       __unwindfunclet$?ParseSkins@@YAHXZ$2 1009e746 f   Hooks.obj
 0001:0009d751       __unwindfunclet$?ParseSkins@@YAHXZ$3 1009e751 f   Hooks.obj
 0001:0009d75c       __unwindfunclet$?ParseSkins@@YAHXZ$4 1009e75c f   Hooks.obj
 0001:0009d767       __unwindfunclet$?ParseSkins@@YAHXZ$5 1009e767 f   Hooks.obj
 0001:0009d772       __unwindfunclet$?ParseSkins@@YAHXZ$6 1009e772 f   Hooks.obj
 0001:0009d77d       __unwindfunclet$?ParseSkins@@YAHXZ$7 1009e77d f   Hooks.obj
 0001:0009d788       __unwindfunclet$?ParseSkins@@YAHXZ$8 1009e788 f   Hooks.obj
 0001:0009d793       __unwindfunclet$?ParseSkins@@YAHXZ$9 1009e793 f   Hooks.obj
 0001:0009d79e       __unwindfunclet$?ParseSkins@@YAHXZ$10 1009e79e f   Hooks.obj
 0001:0009d7a9       __unwindfunclet$?ParseSkins@@YAHXZ$11 1009e7a9 f   Hooks.obj
 0001:0009d7b4       __unwindfunclet$?ParseSkins@@YAHXZ$12 1009e7b4 f   Hooks.obj
 0001:0009d7bf       __unwindfunclet$?ParseSkins@@YAHXZ$13 1009e7bf f   Hooks.obj
 0001:0009d7ca       __unwindfunclet$?ParseSkins@@YAHXZ$14 1009e7ca f   Hooks.obj
 0001:0009d7d5       __unwindfunclet$?ParseSkins@@YAHXZ$15 1009e7d5 f   Hooks.obj
 0001:0009d7e0       __unwindfunclet$?ParseSkins@@YAHXZ$16 1009e7e0 f   Hooks.obj
 0001:0009d7eb       __unwindfunclet$?ParseSkins@@YAHXZ$17 1009e7eb f   Hooks.obj
 0001:0009d7f6       __unwindfunclet$?ParseSkins@@YAHXZ$18 1009e7f6 f   Hooks.obj
 0001:0009d801       __unwindfunclet$?ParseSkins@@YAHXZ$19 1009e801 f   Hooks.obj
 0001:0009d80c       __unwindfunclet$?ParseSkins@@YAHXZ$20 1009e80c f   Hooks.obj
 0001:0009d817       __unwindfunclet$?ParseSkins@@YAHXZ$21 1009e817 f   Hooks.obj
 0001:0009d822       __unwindfunclet$?ParseSkins@@YAHXZ$22 1009e822 f   Hooks.obj
 0001:0009d82d       __unwindfunclet$?ParseSkins@@YAHXZ$23 1009e82d f   Hooks.obj
 0001:0009d838       __unwindfunclet$?ParseSkins@@YAHXZ$24 1009e838 f   Hooks.obj
 0001:0009d843       __unwindfunclet$?ParseSkins@@YAHXZ$25 1009e843 f   Hooks.obj
 0001:0009d84e       __unwindfunclet$?ParseSkins@@YAHXZ$26 1009e84e f   Hooks.obj
 0001:0009d859       __unwindfunclet$?ParseSkins@@YAHXZ$27 1009e859 f   Hooks.obj
 0001:0009d864       __unwindfunclet$?ParseSkins@@YAHXZ$28 1009e864 f   Hooks.obj
 0001:0009d86f       __unwindfunclet$?ParseSkins@@YAHXZ$29 1009e86f f   Hooks.obj
 0001:0009d87a       __unwindfunclet$?ParseSkins@@YAHXZ$30 1009e87a f   Hooks.obj
 0001:0009d885       __unwindfunclet$?ParseSkins@@YAHXZ$31 1009e885 f   Hooks.obj
 0001:0009d890       __unwindfunclet$?ParseSkins@@YAHXZ$32 1009e890 f   Hooks.obj
 0001:0009d89b       __unwindfunclet$?ParseSkins@@YAHXZ$33 1009e89b f   Hooks.obj
 0001:0009d8a6       __unwindfunclet$?ParseSkins@@YAHXZ$34 1009e8a6 f   Hooks.obj
 0001:0009d8b1       __unwindfunclet$?ParseSkins@@YAHXZ$35 1009e8b1 f   Hooks.obj
 0001:0009d8bc       __unwindfunclet$?ParseSkins@@YAHXZ$36 1009e8bc f   Hooks.obj
 0001:0009d8c7       __unwindfunclet$?ParseSkins@@YAHXZ$37 1009e8c7 f   Hooks.obj
 0001:0009d8d2       __unwindfunclet$?ParseSkins@@YAHXZ$38 1009e8d2 f   Hooks.obj
 0001:0009d8dd       __unwindfunclet$?ParseSkins@@YAHXZ$39 1009e8dd f   Hooks.obj
 0001:0009d8e8       __unwindfunclet$?ParseSkins@@YAHXZ$40 1009e8e8 f   Hooks.obj
 0001:0009d8f3       __unwindfunclet$?ParseSkins@@YAHXZ$41 1009e8f3 f   Hooks.obj
 0001:0009d8fe       __unwindfunclet$?ParseSkins@@YAHXZ$42 1009e8fe f   Hooks.obj
 0001:0009d909       __unwindfunclet$?ParseSkins@@YAHXZ$43 1009e909 f   Hooks.obj
 0001:0009d914       __unwindfunclet$?ParseSkins@@YAHXZ$44 1009e914 f   Hooks.obj
 0001:0009d91f       __unwindfunclet$?ParseSkins@@YAHXZ$45 1009e91f f   Hooks.obj
 0001:0009d92a       __unwindfunclet$?ParseSkins@@YAHXZ$46 1009e92a f   Hooks.obj
 0001:0009d935       __unwindfunclet$?ParseSkins@@YAHXZ$47 1009e935 f   Hooks.obj
 0001:0009d940       __unwindfunclet$?ParseSkins@@YAHXZ$48 1009e940 f   Hooks.obj
 0001:0009d94b       __unwindfunclet$?ParseSkins@@YAHXZ$49 1009e94b f   Hooks.obj
 0001:0009d956       __unwindfunclet$?ParseSkins@@YAHXZ$50 1009e956 f   Hooks.obj
 0001:0009d961       __unwindfunclet$?ParseSkins@@YAHXZ$51 1009e961 f   Hooks.obj
 0001:0009d96c       __unwindfunclet$?ParseSkins@@YAHXZ$52 1009e96c f   Hooks.obj
 0001:0009d977       __unwindfunclet$?ParseSkins@@YAHXZ$53 1009e977 f   Hooks.obj
 0001:0009d982       __unwindfunclet$?ParseSkins@@YAHXZ$55 1009e982 f   Hooks.obj
 0001:0009d998       __unwindfunclet$?ParseSkins@@YAHXZ$56 1009e998 f   Hooks.obj
 0001:0009d9a3       __unwindfunclet$?ParseSkins@@YAHXZ$57 1009e9a3 f   Hooks.obj
 0001:0009d9ae       __unwindfunclet$?ParseSkins@@YAHXZ$58 1009e9ae f   Hooks.obj
 0001:0009d9b6       __unwindfunclet$?ParseSkins@@YAHXZ$59 1009e9b6 f   Hooks.obj
 0001:0009d9c1       __unwindfunclet$?ParseSkins@@YAHXZ$60 1009e9c1 f   Hooks.obj
 0001:0009d9c9       __unwindfunclet$?ParseSkins@@YAHXZ$61 1009e9c9 f   Hooks.obj
 0001:0009d9d4       __unwindfunclet$?ParseSkins@@YAHXZ$62 1009e9d4 f   Hooks.obj
 0001:0009d9df       __unwindfunclet$?ParseSkins@@YAHXZ$63 1009e9df f   Hooks.obj
 0001:0009d9ea       __unwindfunclet$?ParseSkins@@YAHXZ$64 1009e9ea f   Hooks.obj
 0001:0009d9f2       __unwindfunclet$?ParseSkins@@YAHXZ$65 1009e9f2 f   Hooks.obj
 0001:0009d9fd       __unwindfunclet$?ParseSkins@@YAHXZ$66 1009e9fd f   Hooks.obj
 0001:0009da05       __unwindfunclet$?ParseSkins@@YAHXZ$67 1009ea05 f   Hooks.obj
 0001:0009da10       __unwindfunclet$?ParseSkins@@YAHXZ$68 1009ea10 f   Hooks.obj
 0001:0009da18       __unwindfunclet$?ParseSkins@@YAHXZ$70 1009ea18 f   Hooks.obj
 0001:0009da23       __unwindfunclet$?ParseSkins@@YAHXZ$71 1009ea23 f   Hooks.obj
 0001:0009da2e       __unwindfunclet$?ParseSkins@@YAHXZ$72 1009ea2e f   Hooks.obj
 0001:0009da36       __unwindfunclet$?ParseSkins@@YAHXZ$73 1009ea36 f   Hooks.obj
 0001:0009da41       __ehhandler$?ParseSkins@@YAHXZ 1009ea41 f   Hooks.obj
 0001:0009da70       __unwindfunclet$?RenderInterface@@YAXXZ$2 1009ea70 f   Hooks.obj
 0001:0009da92       __unwindfunclet$?RenderInterface@@YAXXZ$5 1009ea92 f   Hooks.obj
 0001:0009da9d       __unwindfunclet$?RenderInterface@@YAXXZ$6 1009ea9d f   Hooks.obj
 0001:0009daa8       __unwindfunclet$?RenderInterface@@YAXXZ$7 1009eaa8 f   Hooks.obj
 0001:0009dab3       __unwindfunclet$?RenderInterface@@YAXXZ$8 1009eab3 f   Hooks.obj
 0001:0009dabe       __unwindfunclet$?RenderInterface@@YAXXZ$9 1009eabe f   Hooks.obj
 0001:0009dac9       __unwindfunclet$?RenderInterface@@YAXXZ$11 1009eac9 f   Hooks.obj
 0001:0009dad4       __unwindfunclet$?RenderInterface@@YAXXZ$0 1009ead4 f   Hooks.obj
 0001:0009dae0       __unwindfunclet$?RenderInterface@@YAXXZ$17 1009eae0 f   Hooks.obj
 0001:0009daec       __ehhandler$?RenderInterface@@YAXXZ 1009eaec f   Hooks.obj
 0001:0009db20       __ehhandler$?SkinChanger@@YAXXZ 1009eb20 f   Hooks.obj
 0001:0009db40       __unwindfunclet$?StrEqu@Util@valve_parser@@SA_NVStr@2@PAD@Z$0 1009eb40 f   Hooks.obj
 0001:0009db48       __ehhandler$?StrEqu@Util@valve_parser@@SA_NVStr@2@PAD@Z 1009eb48 f   Hooks.obj
 0001:0009db70       __unwindfunclet$?hkDrawModelExecute@@YIXPAXH00ABUModelRenderInfo_t@@PAY123M@Z$1 1009eb70 f   Hooks.obj
 0001:0009db7c       __unwindfunclet$?hkDrawModelExecute@@YIXPAXH00ABUModelRenderInfo_t@@PAY123M@Z$2 1009eb7c f   Hooks.obj
 0001:0009db88       __unwindfunclet$?hkDrawModelExecute@@YIXPAXH00ABUModelRenderInfo_t@@PAY123M@Z$3 1009eb88 f   Hooks.obj
 0001:0009db94       __unwindfunclet$?hkDrawModelExecute@@YIXPAXH00ABUModelRenderInfo_t@@PAY123M@Z$4 1009eb94 f   Hooks.obj
 0001:0009dba0       __unwindfunclet$?hkDrawModelExecute@@YIXPAXH00ABUModelRenderInfo_t@@PAY123M@Z$5 1009eba0 f   Hooks.obj
 0001:0009dbac       __unwindfunclet$?hkDrawModelExecute@@YIXPAXH00ABUModelRenderInfo_t@@PAY123M@Z$6 1009ebac f   Hooks.obj
 0001:0009dbb8       __unwindfunclet$?hkDrawModelExecute@@YIXPAXH00ABUModelRenderInfo_t@@PAY123M@Z$7 1009ebb8 f   Hooks.obj
 0001:0009dbc4       __unwindfunclet$?hkDrawModelExecute@@YIXPAXH00ABUModelRenderInfo_t@@PAY123M@Z$8 1009ebc4 f   Hooks.obj
 0001:0009dbd0       __ehhandler$?hkDrawModelExecute@@YIXPAXH00ABUModelRenderInfo_t@@PAY123M@Z 1009ebd0 f   Hooks.obj
 0001:0009dbf0       __unwindfunclet$?hkPaintTraverse@@YIXPAXHI_N1@Z$1 1009ebf0 f   Hooks.obj
 0001:0009dbfc       __unwindfunclet$?hkPaintTraverse@@YIXPAXHI_N1@Z$3 1009ebfc f   Hooks.obj
 0001:0009dc08       __ehhandler$?hkPaintTraverse@@YIXPAXHI_N1@Z 1009ec08 f   Hooks.obj
 0001:0009dc30       __unwindfunclet$?hkPlaySound@@YGXPBD@Z$1 1009ec30 f   Hooks.obj
 0001:0009dc3c       __ehhandler$?hkPlaySound@@YGXPBD@Z 1009ec3c f   Hooks.obj
 0001:0009dc60       __unwindfunclet$?on_fire_event@item_purchase@@QAEXPAVIGameEvent@@_N@Z$1 1009ec60 f   Hooks.obj
 0001:0009dc68       __unwindfunclet$?on_fire_event@item_purchase@@QAEXPAVIGameEvent@@_N@Z$0 1009ec68 f   Hooks.obj
 0001:0009dc74       __unwindfunclet$?on_fire_event@item_purchase@@QAEXPAVIGameEvent@@_N@Z$4 1009ec74 f   Hooks.obj
 0001:0009dc7f       __ehhandler$?on_fire_event@item_purchase@@QAEXPAVIGameEvent@@_N@Z 1009ec7f f   Hooks.obj
 0001:0009dcb0       __unwindfunclet$?singleton@item_purchase@@SAPAV1@XZ$0 1009ecb0 f   Hooks.obj
 0001:0009dcbc       __ehhandler$?singleton@item_purchase@@SAPAV1@XZ 1009ecbc f   Hooks.obj
 0001:0009dce0       __unwindfunclet$??0failure@ios_base@std@@QAE@PBDABVerror_code@2@@Z$1 1009ece0 f   Utilities.obj
 0001:0009dce0       __unwindfunclet$?toInt@Str@valve_parser@@QAEHXZ$0 1009ece0 f   Hooks.obj
 0001:0009dce0       __unwindfunclet$?_Endwrite@?$basic_filebuf@DU?$char_traits@D@std@@@std@@IAE_NXZ$0 1009ece0 f   Utilities.obj
 0001:0009dce8       __ehhandler$?toInt@Str@valve_parser@@QAEHXZ 1009ece8 f   Hooks.obj
 0001:0009dce8       __ehhandler$?_Endwrite@?$basic_filebuf@DU?$char_traits@D@std@@@std@@IAE_NXZ 1009ece8 f   Utilities.obj
 0001:0009dce8       __ehhandler$??0failure@ios_base@std@@QAE@PBDABVerror_code@2@@Z 1009ece8 f   Utilities.obj
 0001:0009dd10       __ehhandler$?unhook_all@vfunc_hook@@QAEXXZ 1009ed10 f   Hooks.obj
 0001:0009dd30       __unwindfunclet$??0ImDrawList@@QAE@XZ$0 1009ed30 f   imgui.obj
 0001:0009dd38       __unwindfunclet$??0ImDrawList@@QAE@XZ$1 1009ed38 f   imgui.obj
 0001:0009dd43       __unwindfunclet$??0ImDrawList@@QAE@XZ$2 1009ed43 f   imgui.obj
 0001:0009dd4e       __unwindfunclet$??0ImDrawList@@QAE@XZ$3 1009ed4e f   imgui.obj
 0001:0009dd59       __unwindfunclet$??0ImDrawList@@QAE@XZ$4 1009ed59 f   imgui.obj
 0001:0009dd64       __unwindfunclet$??0ImDrawList@@QAE@XZ$5 1009ed64 f   imgui.obj
 0001:0009dd6f       __unwindfunclet$??0ImDrawList@@QAE@XZ$6 1009ed6f f   imgui.obj
 0001:0009dd7a       __ehhandler$??0ImDrawList@@QAE@XZ 1009ed7a f   imgui.obj
 0001:0009dda0       __unwindfunclet$??0ImGuiContext@@QAE@XZ$0 1009eda0 f   imgui.obj
 0001:0009ddae       __unwindfunclet$??0ImGuiContext@@QAE@XZ$1 1009edae f   imgui.obj
 0001:0009ddbc       __unwindfunclet$??0ImGuiContext@@QAE@XZ$2 1009edbc f   imgui.obj
 0001:0009ddca       __unwindfunclet$??0ImGuiContext@@QAE@XZ$3 1009edca f   imgui.obj
 0001:0009ddd8       __unwindfunclet$??0ImGuiContext@@QAE@XZ$4 1009edd8 f   imgui.obj
 0001:0009dde6       __unwindfunclet$??0ImGuiContext@@QAE@XZ$5 1009ede6 f   imgui.obj
 0001:0009ddf4       __unwindfunclet$??0ImGuiContext@@QAE@XZ$6 1009edf4 f   imgui.obj
 0001:0009de02       __unwindfunclet$??0ImGuiContext@@QAE@XZ$7 1009ee02 f   imgui.obj
 0001:0009de10       __unwindfunclet$??0ImGuiContext@@QAE@XZ$8 1009ee10 f   imgui.obj
 0001:0009de1e       __unwindfunclet$??0ImGuiContext@@QAE@XZ$9 1009ee1e f   imgui.obj
 0001:0009de36       __unwindfunclet$??0ImGuiContext@@QAE@XZ$10 1009ee36 f   imgui.obj
 0001:0009de44       __unwindfunclet$??0ImGuiContext@@QAE@XZ$11 1009ee44 f   imgui.obj
 0001:0009de52       __ehhandler$??0ImGuiContext@@QAE@XZ 1009ee52 f   imgui.obj
 0001:0009de70       __unwindfunclet$??0ImGuiWindow@@QAE@PBD@Z$0 1009ee70 f   imgui.obj
 0001:0009de7e       __unwindfunclet$??0ImGuiWindow@@QAE@PBD@Z$1 1009ee7e f   imgui.obj
 0001:0009de8c       __unwindfunclet$??0ImGuiWindow@@QAE@PBD@Z$2 1009ee8c f   imgui.obj
 0001:0009de9a       __unwindfunclet$??0ImGuiWindow@@QAE@PBD@Z$3 1009ee9a f   imgui.obj
 0001:0009deb8       __ehhandler$??0ImGuiWindow@@QAE@PBD@Z 1009eeb8 f   imgui.obj
 0001:0009dee0       __ehhandler$??1ImDrawList@@QAE@XZ 1009eee0 f   imgui.obj
 0001:0009dee0       __ehhandler$??1ImGuiDrawContext@@QAE@XZ 1009eee0 f   imgui.obj
 0001:0009df00       __ehhandler$??1ImGuiContext@@QAE@XZ 1009ef00 f   imgui.obj
 0001:0009df20       __ehhandler$??1ImGuiStorage@@QAE@XZ 1009ef20 f   imgui.obj
 0001:0009df20       __ehhandler$??1?$basic_ios@DU?$char_traits@D@std@@@std@@UAE@XZ 1009ef20 f   Utilities.obj
 0001:0009df40       __ehhandler$??1ImFont@@QAE@XZ 1009ef40 f   imgui_draw.obj
 0001:0009df40       __ehhandler$??1ImGuiTextEditState@@QAE@XZ 1009ef40 f   imgui.obj
 0001:0009df60       __ehhandler$??__Fbuf_local@?1??GetClipboardTextFn_DefaultImpl@@YAPBDPAX@Z@YAXXZ 1009ef60 f   imgui.obj
 0001:0009df80       __unwindfunclet$?CreateNewWindow@@YAPAUImGuiWindow@@PBDUImVec2@@H@Z$0 1009ef80 f   imgui.obj
 0001:0009df98       __ehhandler$?CreateNewWindow@@YAPAUImGuiWindow@@PBDUImVec2@@H@Z 1009ef98 f   imgui.obj
 0001:0009dfc0       __unwindfunclet$?ImFileOpen@@YAPAU_iobuf@@PBD0@Z$0 1009efc0 f   imgui.obj
 0001:0009dfc8       __ehhandler$?ImFileOpen@@YAPAU_iobuf@@PBD0@Z 1009efc8 f   imgui.obj
 0001:0009dff0       __unwindfunclet$?NewFrame@ImGui@@YAXXZ$0 1009eff0 f   imgui.obj
 0001:0009e00e       __unwindfunclet$?NewFrame@ImGui@@YAXXZ$1 1009f00e f   imgui.obj
 0001:0009e016       __ehhandler$?NewFrame@ImGui@@YAXXZ 1009f016 f   imgui.obj
 0001:0009e040       __unwindfunclet$??0ImFont@@QAE@XZ$0 1009f040 f   imgui_draw.obj
 0001:0009e04b       __unwindfunclet$??0ImFont@@QAE@XZ$1 1009f04b f   imgui_draw.obj
 0001:0009e056       __unwindfunclet$??0ImFont@@QAE@XZ$2 1009f056 f   imgui_draw.obj
 0001:0009e061       __ehhandler$??0ImFont@@QAE@XZ 1009f061 f   imgui_draw.obj
 0001:0009e080       __ehhandler$??1ImFontAtlas@@QAE@XZ 1009f080 f   imgui_draw.obj
 0001:0009e0a0       __unwindfunclet$?AddFont@ImFontAtlas@@QAEPAUImFont@@PBUImFontConfig@@@Z$0 1009f0a0 f   imgui_draw.obj
 0001:0009e0b8       __unwindfunclet$?AddFont@ImFontAtlas@@QAEPAUImFont@@PBUImFontConfig@@@Z$1 1009f0b8 f   imgui_draw.obj
 0001:0009e0c3       __unwindfunclet$?AddFont@ImFontAtlas@@QAEPAUImFont@@PBUImFontConfig@@@Z$2 1009f0c3 f   imgui_draw.obj
 0001:0009e0ce       __unwindfunclet$?AddFont@ImFontAtlas@@QAEPAUImFont@@PBUImFontConfig@@@Z$3 1009f0ce f   imgui_draw.obj
 0001:0009e0d9       __ehhandler$?AddFont@ImFontAtlas@@QAEPAUImFont@@PBUImFontConfig@@@Z 1009f0d9 f   imgui_draw.obj
 0001:0009e100       __unwindfunclet$?Build@ImFontAtlas@@QAE_NXZ$0 1009f100 f   imgui_draw.obj
 0001:0009e108       __ehhandler$?Build@ImFontAtlas@@QAE_NXZ 1009f108 f   imgui_draw.obj
 0001:0009e130       __unwindfunclet$??__EItemDefinitionIndexMap@@YAXXZ$0 1009f130 f   Interfaces.obj
 0001:0009e13a       __ehhandler$??__EItemDefinitionIndexMap@@YAXXZ 1009f13a f   Interfaces.obj
 0001:0009e170       __unwindfunclet$?InitialiseInterfaces@@YAXXZ$4 1009f170 f   Interfaces.obj
 0001:0009e17c       __unwindfunclet$?InitialiseInterfaces@@YAXXZ$5 1009f17c f   Interfaces.obj
 0001:0009e188       __ehhandler$?InitialiseInterfaces@@YAXXZ 1009f188 f   Interfaces.obj
 0001:0009e1b0       __unwindfunclet$??__EItemDefinitionIndexMap@@YAXXZ$0 1009f1b0 f   LagComp.obj
 0001:0009e1ba       __ehhandler$??__EItemDefinitionIndexMap@@YAXXZ 1009f1ba f   LagComp.obj
 0001:0009e1f0       __unwindfunclet$??__EItemDefinitionIndexMap@@YAXXZ$0 1009f1f0 f   LegitBot.obj
 0001:0009e1fa       __ehhandler$??__EItemDefinitionIndexMap@@YAXXZ 1009f1fa f   LegitBot.obj
 0001:0009e230       __unwindfunclet$?get_hitbox@legitbot@@AAE_NPAVC_BaseEntity@@0AAVVector@@@Z$0 1009f230 f   LegitBot.obj
 0001:0009e23c       __ehhandler$?get_hitbox@legitbot@@AAE_NPAVC_BaseEntity@@0AAVVector@@@Z 1009f23c f   LegitBot.obj
 0001:0009e270       __unwindfunclet$?get_target@legitbot@@AAEHPAVC_BaseEntity@@PAVCBaseCombatWeapon@@PAVCUserCmd@CInput@@AAVVector@@@Z$0 1009f270 f   LegitBot.obj
 0001:0009e27c       __ehhandler$?get_target@legitbot@@AAEHPAVC_BaseEntity@@PAVCBaseCombatWeapon@@PAVCUserCmd@CInput@@AAVVector@@@Z 1009f27c f   LegitBot.obj
 0001:0009e2a0       __unwindfunclet$?m_iShotsFired@C_BaseEntity@@QAEHXZ$0 1009f2a0 f   LegitBot.obj
 0001:0009e2ac       __ehhandler$?m_iShotsFired@C_BaseEntity@@QAEHXZ 1009f2ac f   LegitBot.obj
 0001:0009e2d0       __unwindfunclet$??__EItemDefinitionIndexMap@@YAXXZ$0 1009f2d0 f   memesets.obj
 0001:0009e2da       __ehhandler$??__EItemDefinitionIndexMap@@YAXXZ 1009f2da f   memesets.obj
 0001:0009e310       __unwindfunclet$??__EItemDefinitionIndexMap@@YAXXZ$0 1009f310 f   Misc.obj
 0001:0009e31a       __ehhandler$??__EItemDefinitionIndexMap@@YAXXZ 1009f31a f   Misc.obj
 0001:0009e350       __unwindfunclet$?OnCreateMove@misc@@QAEXPAVCUserCmd@CInput@@PAVC_BaseEntity@@AA_N@Z$0 1009f350 f   Misc.obj
 0001:0009e35c       __ehhandler$?OnCreateMove@misc@@QAEXPAVCUserCmd@CInput@@PAVC_BaseEntity@@AA_N@Z 1009f35c f   Misc.obj
 0001:0009e390       __unwindfunclet$?logsrun2@misc@@QAEXXZ$0 1009f390 f   Misc.obj
 0001:0009e39c       __unwindfunclet$?logsrun2@misc@@QAEXXZ$1 1009f39c f   Misc.obj
 0001:0009e3a8       __unwindfunclet$?logsrun2@misc@@QAEXXZ$2 1009f3a8 f   Misc.obj
 0001:0009e3b4       __unwindfunclet$?logsrun2@misc@@QAEXXZ$3 1009f3b4 f   Misc.obj
 0001:0009e3c0       __ehhandler$?logsrun2@misc@@QAEXXZ 1009f3c0 f   Misc.obj
 0001:0009e3e0       __unwindfunclet$?logsrun@misc@@QAEXXZ$0 1009f3e0 f   Misc.obj
 0001:0009e3ec       __unwindfunclet$?logsrun@misc@@QAEXXZ$1 1009f3ec f   Misc.obj
 0001:0009e3f8       __unwindfunclet$?logsrun@misc@@QAEXXZ$2 1009f3f8 f   Misc.obj
 0001:0009e404       __unwindfunclet$?logsrun@misc@@QAEXXZ$3 1009f404 f   Misc.obj
 0001:0009e410       __ehhandler$?logsrun@misc@@QAEXXZ 1009f410 f   Misc.obj
 0001:0009e430       __unwindfunclet$?setclantag@@YAXPBD@Z$2 1009f430 f   Misc.obj
 0001:0009e438       __unwindfunclet$?setclantag@@YAXPBD@Z$0 1009f438 f   Misc.obj
 0001:0009e444       __ehhandler$?setclantag@@YAXPBD@Z 1009f444 f   Misc.obj
 0001:0009e470       __unwindfunclet$??__EItemDefinitionIndexMap@@YAXXZ$0 1009f470 f   NetVarManager.obj
 0001:0009e47a       __ehhandler$??__EItemDefinitionIndexMap@@YAXXZ 1009f47a f   NetVarManager.obj
 0001:0009e4b0       __unwindfunclet$??__EItemDefinitionIndexMap@@YAXXZ$0 1009f4b0 f   RageBot.obj
 0001:0009e4ba       __ehhandler$??__EItemDefinitionIndexMap@@YAXXZ 1009f4ba f   RageBot.obj
 0001:0009e4f0       __unwindfunclet$?DoAimbot@ragebot@@AAEXPAVCUserCmd@CInput@@AA_N@Z$0 1009f4f0 f   RageBot.obj
 0001:0009e4fc       __ehhandler$?DoAimbot@ragebot@@AAEXPAVCUserCmd@CInput@@AA_N@Z 1009f4fc f   RageBot.obj
 0001:0009e520       __unwindfunclet$?HitScan@ragebot@@AAEHPAVC_BaseEntity@@@Z$0 1009f520 f   RageBot.obj
 0001:0009e528       __unwindfunclet$?HitScan@ragebot@@AAEHPAVC_BaseEntity@@@Z$1 1009f528 f   RageBot.obj
 0001:0009e534       __ehhandler$?HitScan@ragebot@@AAEHPAVC_BaseEntity@@@Z 1009f534 f   RageBot.obj
 0001:0009e560       __unwindfunclet$??__EItemDefinitionIndexMap@@YAXXZ$0 1009f560 f   Render.obj
 0001:0009e56a       __ehhandler$??__EItemDefinitionIndexMap@@YAXXZ 1009f56a f   Render.obj
 0001:0009e5a0       __unwindfunclet$??__EItemDefinitionIndexMap@@YAXXZ$0 1009f5a0 f   SpoofedConvar.obj
 0001:0009e5aa       __ehhandler$??__EItemDefinitionIndexMap@@YAXXZ 1009f5aa f   SpoofedConvar.obj
 0001:0009e5e0       __unwindfunclet$??__EItemDefinitionIndexMap@@YAXXZ$0 1009f5e0 f   MiscFunctions.obj
 0001:0009e5ea       __ehhandler$??__EItemDefinitionIndexMap@@YAXXZ 1009f5ea f   MiscFunctions.obj
 0001:0009e620       __unwindfunclet$?TraceToExit@@YA_NAAVVector@@AAVCGameTrace@@V1@2PAV2@@Z$0 1009f620 f   MiscFunctions.obj
 0001:0009e62c       __ehhandler$?TraceToExit@@YA_NAAVVector@@AAVCGameTrace@@V1@2PAV2@@Z 1009f62c f   MiscFunctions.obj
 0001:0009e650       __unwindfunclet$??$use_facet@V?$codecvt@DDU_Mbstatet@@@std@@@std@@YAABV?$codecvt@DDU_Mbstatet@@@0@ABVlocale@0@@Z$0 1009f650 f   Utilities.obj
 0001:0009e658       __unwindfunclet$??$use_facet@V?$codecvt@DDU_Mbstatet@@@std@@@std@@YAABV?$codecvt@DDU_Mbstatet@@@0@ABVlocale@0@@Z$2 1009f658 f   Utilities.obj
 0001:0009e667       __ehhandler$??$use_facet@V?$codecvt@DDU_Mbstatet@@@std@@@std@@YAABV?$codecvt@DDU_Mbstatet@@@0@ABVlocale@0@@Z 1009f667 f   Utilities.obj
 0001:0009e690       __unwindfunclet$??$use_facet@V?$ctype@D@std@@@std@@YAABV?$ctype@D@0@ABVlocale@0@@Z$0 1009f690 f   Utilities.obj
 0001:0009e698       __unwindfunclet$??$use_facet@V?$ctype@D@std@@@std@@YAABV?$ctype@D@0@ABVlocale@0@@Z$2 1009f698 f   Utilities.obj
 0001:0009e6a7       __ehhandler$??$use_facet@V?$ctype@D@std@@@std@@YAABV?$ctype@D@0@ABVlocale@0@@Z 1009f6a7 f   Utilities.obj
 0001:0009e6d0       __unwindfunclet$??0?$basic_ostream@DU?$char_traits@D@std@@@std@@QAE@PAV?$basic_streambuf@DU?$char_traits@D@std@@@1@_N@Z$0 1009f6d0 f   Utilities.obj
 0001:0009e6ec       __ehhandler$??0?$basic_ostream@DU?$char_traits@D@std@@@std@@QAE@PAV?$basic_streambuf@DU?$char_traits@D@std@@@1@_N@Z 1009f6ec f   Utilities.obj
 0001:0009e710       __unwindfunclet$??0_Locinfo@std@@QAE@PBD@Z$0 1009f710 f   Utilities.obj
 0001:0009e718       __unwindfunclet$??0_Locinfo@std@@QAE@PBD@Z$1 1009f718 f   Utilities.obj
 0001:0009e723       __unwindfunclet$??0_Locinfo@std@@QAE@PBD@Z$2 1009f723 f   Utilities.obj
 0001:0009e72e       __unwindfunclet$??0_Locinfo@std@@QAE@PBD@Z$3 1009f72e f   Utilities.obj
 0001:0009e739       __unwindfunclet$??0_Locinfo@std@@QAE@PBD@Z$4 1009f739 f   Utilities.obj
 0001:0009e744       __unwindfunclet$??0_Locinfo@std@@QAE@PBD@Z$5 1009f744 f   Utilities.obj
 0001:0009e74f       __unwindfunclet$??0_Locinfo@std@@QAE@PBD@Z$6 1009f74f f   Utilities.obj
 0001:0009e75a       __ehhandler$??0_Locinfo@std@@QAE@PBD@Z 1009f75a f   Utilities.obj
 0001:0009e780       __ehhandler$??1_Locinfo@std@@QAE@XZ 1009f780 f   Utilities.obj
 0001:0009e780       __ehhandler$??1_Locimp@locale@std@@MAE@XZ 1009f780 f   libcpmt:locale0.obj
 0001:0009e780       __ehhandler$??1_Init_atexit@@QAE@XZ 1009f780 f   libcpmt:iosptrs.obj
 0001:0009e780       __ehhandler$??1vfunc_hook@@QAE@XZ 1009f780 f   Utilities.obj
 0001:0009e7a0       __unwindfunclet$??R<lambda_7ed3db406aacb01baf79d13e7359de19>@@QBE?AV?$vector@HV?$allocator@H@std@@@std@@PBD@Z$0 1009f7a0 f   Utilities.obj
 0001:0009e7b9       __ehhandler$??R<lambda_7ed3db406aacb01baf79d13e7359de19>@@QBE?AV?$vector@HV?$allocator@H@std@@@std@@PBD@Z 1009f7b9 f   Utilities.obj
 0001:0009e7e0       __ehhandler$??_Gios_base@std@@UAEPAXI@Z 1009f7e0 f   Utilities.obj
 0001:0009e7e0       __ehhandler$??_D?$basic_ofstream@DU?$char_traits@D@std@@@std@@QAEXXZ 1009f7e0 f   Utilities.obj
 0001:0009e7e0       __ehhandler$??_G?$basic_ostream@DU?$char_traits@D@std@@@std@@UAEPAXI@Z 1009f7e0 f   Utilities.obj
 0001:0009e7e0       __ehhandler$??_G?$basic_ios@DU?$char_traits@D@std@@@std@@UAEPAXI@Z 1009f7e0 f   Utilities.obj
 0001:0009e800       __unwindfunclet$??__ElogFile@@YAXXZ$0 1009f800 f   Utilities.obj
 0001:0009e81b       __unwindfunclet$??__ElogFile@@YAXXZ$1 1009f81b f   Utilities.obj
 0001:0009e825       __ehhandler$??__ElogFile@@YAXXZ 1009f825 f   Utilities.obj
 0001:0009e840       __unwindfunclet$?FindPattern@U@@YAKV?$basic_string@DU?$char_traits@D@std@@V?$allocator@D@2@@std@@PAEPAD@Z$0 1009f840 f   Utilities.obj
 0001:0009e848       __ehhandler$?FindPattern@U@@YAKV?$basic_string@DU?$char_traits@D@std@@V?$allocator@D@2@@std@@PAEPAD@Z 1009f848 f   Utilities.obj
 0001:0009e870       __unwindfunclet$?_Makestr@_System_error@std@@CA?AV?$basic_string@DU?$char_traits@D@std@@V?$allocator@D@2@@2@Verror_code@2@V32@@Z$0 1009f870 f   Utilities.obj
 0001:0009e878       __unwindfunclet$?_Makestr@_System_error@std@@CA?AV?$basic_string@DU?$char_traits@D@std@@V?$allocator@D@2@@2@Verror_code@2@V32@@Z$1 1009f878 f   Utilities.obj
 0001:0009e880       __ehhandler$?_Makestr@_System_error@std@@CA?AV?$basic_string@DU?$char_traits@D@std@@V?$allocator@D@2@@2@Verror_code@2@V32@@Z 1009f880 f   Utilities.obj
 0001:0009e8b0       __unwindfunclet$?overflow@?$basic_filebuf@DU?$char_traits@D@std@@@std@@MAEHH@Z$0 1009f8b0 f   Utilities.obj
 0001:0009e8b8       __ehhandler$?overflow@?$basic_filebuf@DU?$char_traits@D@std@@@std@@MAEHH@Z 1009f8b8 f   Utilities.obj
 0001:0009e8e0       __ehhandler$?setup@vfunc_hook@@QAE_NPAX@Z 1009f8e0 f   Utilities.obj
 0001:0009e900       __unwindfunclet$?uflow@?$basic_filebuf@DU?$char_traits@D@std@@@std@@MAEHXZ$0 1009f900 f   Utilities.obj
 0001:0009e908       __ehhandler$?uflow@?$basic_filebuf@DU?$char_traits@D@std@@@std@@MAEHXZ 1009f908 f   Utilities.obj
 0001:0009e930       __unwindfunclet$?widen@?$basic_ios@DU?$char_traits@D@std@@@std@@QBEDD@Z$0 1009f930 f   Utilities.obj
 0001:0009e938       __ehhandler$?widen@?$basic_ios@DU?$char_traits@D@std@@@std@@QBEDD@Z 1009f938 f   Utilities.obj
 0001:0009e953       __ehhandler$??1_Fac_node@std@@QAE@XZ 1009f953 f   libcpmt:locale0.obj
 0001:0009e96e       __unwindfunclet$?_Init@locale@std@@CAPAV_Locimp@12@_N@Z$0 1009f96e f   libcpmt:locale0.obj
 0001:0009e976       __ehhandler$?_Init@locale@std@@CAPAV_Locimp@12@_N@Z 1009f976 f   libcpmt:locale0.obj
 0001:0009e991       __unwindfunclet$?_Locimp_dtor@_Locimp@locale@std@@CAXPAV123@@Z$0 1009f991 f   libcpmt:locale0.obj
 0001:0009e999       __ehhandler$?_Locimp_dtor@_Locimp@locale@std@@CAXPAV123@@Z 1009f999 f   libcpmt:locale0.obj
 0001:0009e9b4       __ehhandler$?CallUnexpected@@YAXPBU_s_ESTypeList@@@Z 1009f9b4 f   libvcruntime:frame.obj
 0001:0009e9d0       ??__FItemDefinitionIndexMap@@YAXXZ 1009f9d0 f   recvproxy.obj
 0001:0009e9e0       ??__FItemDefinitionIndexMap@@YAXXZ 1009f9e0 f   Autowall.obj
 0001:0009e9f0       ??__FItemDefinitionIndexMap@@YAXXZ 1009f9f0 f   Chams.obj
 0001:0009ea00       ??__FItemDefinitionIndexMap@@YAXXZ 1009fa00 f   Configuration.obj
 0001:0009ea10       ??__Fg_Options@@YAXXZ      1009fa10 f   Configuration.obj
 0001:0009ea20       ??__FItemDefinitionIndexMap@@YAXXZ 1009fa20 f   DLLMain.obj
 0001:0009ea30       ??__FItemDefinitionIndexMap@@YAXXZ 1009fa30 f   EnginePrediction.obj
 0001:0009ea40       ??__FItemDefinitionIndexMap@@YAXXZ 1009fa40 f   ESP.obj
 0001:0009ead0       ??__FItemDefinitionIndexMap@@YAXXZ 1009fad0 f   Global.obj
 0001:0009eae0       ??__FItemDefinitionIndexMap@@YAXXZ 1009fae0 f   GrenadePrediction.obj
 0001:0009eaf0       ??__FEngineHook@hooks@@YAXXZ 1009faf0 f   Hooks.obj
 0001:0009eb00       ??__FItemDefinitionIndexMap@@YAXXZ 1009fb00 f   Hooks.obj
 0001:0009eb10       ??__Fclient@hooks@@YAXXZ   1009fb10 f   Hooks.obj
 0001:0009eb20       ??__Fclientmode@hooks@@YAXXZ 1009fb20 f   Hooks.obj
 0001:0009eb30       ??__Fd3d@hooks@@YAXXZ      1009fb30 f   Hooks.obj
 0001:0009eb40       ??__Fengine@hooks@@YAXXZ   1009fb40 f   Hooks.obj
 0001:0009eb50       ??__Feventmanager@hooks@@YAXXZ 1009fb50 f   Hooks.obj
 0001:0009eba0       ??__FkillIcons@@YAXXZ      1009fba0 f   Hooks.obj
 0001:0009ec20       ??__Fmodelrender@hooks@@YAXXZ 1009fc20 f   Hooks.obj
 0001:0009ec30       ??__Fpanel@hooks@@YAXXZ    1009fc30 f   Hooks.obj
 0001:0009ec40       ??__Fprediction@hooks@@YAXXZ 1009fc40 f   Hooks.obj
 0001:0009ec50       ??__Fpurchase@@YAXXZ       1009fc50 f   Hooks.obj
 0001:0009ec60       ??__Fsurface@hooks@@YAXXZ  1009fc60 f   Hooks.obj
 0001:0009ec70       ??__Fsv_cheats@hooks@@YAXXZ 1009fc70 f   Hooks.obj
 0001:0009ec80       ??__Fviewrender@hooks@@YAXXZ 1009fc80 f   Hooks.obj
 0001:0009ec90       ??__FGImDefaultContext@@YAXXZ 1009fc90 f   imgui.obj
 0001:0009eca0       ??__FGImDefaultFontAtlas@@YAXXZ 1009fca0 f   imgui.obj
 0001:0009ecb0       ??__Fbuf_local@?1??GetClipboardTextFn_DefaultImpl@@YAPBDPAX@Z@YAXXZ 1009fcb0 f   imgui.obj
 0001:0009ed10       ??__FItemDefinitionIndexMap@@YAXXZ 1009fd10 f   Interfaces.obj
 0001:0009ed20       ??__FItemDefinitionIndexMap@@YAXXZ 1009fd20 f   LagComp.obj
 0001:0009ed30       ??__Fsequences@@YAXXZ      1009fd30 f   LagComp.obj
 0001:0009ee00       ??__FItemDefinitionIndexMap@@YAXXZ 1009fe00 f   LegitBot.obj
 0001:0009ee10       ??__Fhitboxes@?1??get_hitbox@legitbot@@AAE_NPAVC_BaseEntity@@0AAVVector@@@Z@YAXXZ 1009fe10 f   LegitBot.obj
 0001:0009ee70       ??__FItemDefinitionIndexMap@@YAXXZ 1009fe70 f   memesets.obj
 0001:0009ee80       ??__FItemDefinitionIndexMap@@YAXXZ 1009fe80 f   Misc.obj
 0001:0009ee90       ??__Fanimatedclantag@@YAXXZ 1009fe90 f   Misc.obj
 0001:0009eef0       ??__FItemDefinitionIndexMap@@YAXXZ 1009fef0 f   NetVarManager.obj
 0001:0009ef00       ??__FItemDefinitionIndexMap@@YAXXZ 1009ff00 f   RageBot.obj
 0001:0009ef10       ??__Fbaim@?1??HitScan@ragebot@@AAEHPAVC_BaseEntity@@@Z@YAXXZ 1009ff10 f   RageBot.obj
 0001:0009ef70       ??__FItemDefinitionIndexMap@@YAXXZ 1009ff70 f   Render.obj
 0001:0009ef80       ??__FItemDefinitionIndexMap@@YAXXZ 1009ff80 f   SpoofedConvar.obj
 0001:0009ef90       ??__FItemDefinitionIndexMap@@YAXXZ 1009ff90 f   MiscFunctions.obj
 0001:0009efa0       ??__FlogFile@@YAXXZ        1009ffa0 f   Utilities.obj
 0001:0009efaa       ??__Finitlocks@std@@YAXXZ  1009ffaa f   libcpmt:xlock.obj
 0001:0009efb4       ??__F_Fac_tidy_reg@std@@YAXXZ 1009ffb4 f   libcpmt:locale0.obj
 0001:0009efbe       ??__Fclassic_locale@std@@YAXXZ 1009ffbe f   libcpmt:locale0.obj
 0001:0009efc8       ??__Finit_atexit@@YAXXZ    1009ffc8 f   libcpmt:iosptrs.obj
 0001:0009efd2       ??__Finitlocks@std@@YAXXZ  1009ffd2 f   libcpmt:iosptrs.obj
 0002:000001dc       ?initlocks$initializer$@std@@3P6AXXZA 100a01dc     libcpmt:xlock.obj
 0002:000001e0       ?initlocks$initializer$@std@@3P6AXXZA 100a01e0     libcpmt:iosptrs.obj
 0002:000001e4       ?init_atexit$initializer$@@3P6AXXZA 100a01e4     libcpmt:iosptrs.obj
 0002:000001e8       ?_Fac_tidy_reg$initializer$@std@@3P6AXXZA 100a01e8     libcpmt:locale0.obj
 0002:000001ec       ?classic_locale$initializer$@std@@3P6AXXZA 100a01ec     libcpmt:locale0.obj
 0002:000001f0       ?ItemDefinitionIndexMap$initializer$@@3P6AXXZA 100a01f0     recvproxy.obj
 0002:000001f4       ?ItemDefinitionIndexMap$initializer$@@3P6AXXZA 100a01f4     Autowall.obj
 0002:000001f8       ?ItemDefinitionIndexMap$initializer$@@3P6AXXZA 100a01f8     Chams.obj
 0002:000001fc       ?ItemDefinitionIndexMap$initializer$@@3P6AXXZA 100a01fc     Configuration.obj
 0002:00000200       ?Config$initializer$@@3P6AXXZA 100a0200     Configuration.obj
 0002:00000204       ?g_Options$initializer$@@3P6AXXZA 100a0204     Configuration.obj
 0002:00000208       ?ItemDefinitionIndexMap$initializer$@@3P6AXXZA 100a0208     DLLMain.obj
 0002:0000020c       ?ItemDefinitionIndexMap$initializer$@@3P6AXXZA 100a020c     EnginePrediction.obj
 0002:00000210       ?ItemDefinitionIndexMap$initializer$@@3P6AXXZA 100a0210     ESP.obj
 0002:00000214       ?ItemDefinitionIndexMap$initializer$@@3P6AXXZA 100a0214     Global.obj
 0002:00000218       ?Msg$initializer$@G@@3P6AXXZA 100a0218     Global.obj
 0002:0000021c       ?ItemDefinitionIndexMap$initializer$@@3P6AXXZA 100a021c     GrenadePrediction.obj
 0002:00000220       ?ItemDefinitionIndexMap$initializer$@@3P6AXXZA 100a0220     Hooks.obj
 0002:00000224       ?m_RecordWaypoints$initializer$@@3P6AXXZA 100a0224     Hooks.obj
 0002:00000228       ?killIcons$initializer$@@3P6AXXZA 100a0228     Hooks.obj
 0002:0000022c       ?dwCAM_Think$initializer$@@3P6AXXZA 100a022c     Hooks.obj
 0002:00000230       ?purchase$initializer$@@3P6AXXZA 100a0230     Hooks.obj
 0002:00000234       ?panel$initializer$@hooks@@3P6AXXZA 100a0234     Hooks.obj
 0002:00000238       ?client$initializer$@hooks@@3P6AXXZA 100a0238     Hooks.obj
 0002:0000023c       ?clientmode$initializer$@hooks@@3P6AXXZA 100a023c     Hooks.obj
 0002:00000240       ?modelrender$initializer$@hooks@@3P6AXXZA 100a0240     Hooks.obj
 0002:00000244       ?prediction$initializer$@hooks@@3P6AXXZA 100a0244     Hooks.obj
 0002:00000248       ?surface$initializer$@hooks@@3P6AXXZA 100a0248     Hooks.obj
 0002:0000024c       ?eventmanager$initializer$@hooks@@3P6AXXZA 100a024c     Hooks.obj
 0002:00000250       ?d3d$initializer$@hooks@@3P6AXXZA 100a0250     Hooks.obj
 0002:00000254       ?viewrender$initializer$@hooks@@3P6AXXZA 100a0254     Hooks.obj
 0002:00000258       ?engine$initializer$@hooks@@3P6AXXZA 100a0258     Hooks.obj
 0002:0000025c       ?sv_cheats$initializer$@hooks@@3P6AXXZA 100a025c     Hooks.obj
 0002:00000260       ?EngineHook$initializer$@hooks@@3P6AXXZA 100a0260     Hooks.obj
 0002:00000264       ?GImDefaultFontAtlas$initializer$@@3P6AXXZA 100a0264     imgui.obj
 0002:00000268       ?GImDefaultContext$initializer$@@3P6AXXZA 100a0268     imgui.obj
 0002:0000026c       ?ItemDefinitionIndexMap$initializer$@@3P6AXXZA 100a026c     Interfaces.obj
 0002:00000270       ?ItemDefinitionIndexMap$initializer$@@3P6AXXZA 100a0270     LagComp.obj
 0002:00000274       ?sequences$initializer$@@3P6AXXZA 100a0274     LagComp.obj
 0002:00000278       ?backtracking$initializer$@@3P6AXXZA 100a0278     LagComp.obj
 0002:0000027c       ?ItemDefinitionIndexMap$initializer$@@3P6AXXZA 100a027c     LegitBot.obj
 0002:00000280       ?ItemDefinitionIndexMap$initializer$@@3P6AXXZA 100a0280     memesets.obj
 0002:00000284       ?g_Netvars$initializer$@@3P6AXXZA 100a0284     memesets.obj
 0002:00000288       ?ItemDefinitionIndexMap$initializer$@@3P6AXXZA 100a0288     Misc.obj
 0002:0000028c       ?animatedclantag$initializer$@@3P6AXXZA 100a028c     Misc.obj
 0002:00000290       ?ItemDefinitionIndexMap$initializer$@@3P6AXXZA 100a0290     NetVarManager.obj
 0002:00000294       ?NetVarManager$initializer$@@3P6AXXZA 100a0294     NetVarManager.obj
 0002:00000298       ?ItemDefinitionIndexMap$initializer$@@3P6AXXZA 100a0298     RageBot.obj
 0002:0000029c       ?renderer$initializer$@@3P6AXXZA 100a029c     Renderer.obj
 0002:000002a0       ?ItemDefinitionIndexMap$initializer$@@3P6AXXZA 100a02a0     Render.obj
 0002:000002a4       ?g_Render$initializer$@@3P6AXXZA 100a02a4     Render.obj
 0002:000002a8       ?ItemDefinitionIndexMap$initializer$@@3P6AXXZA 100a02a8     SpoofedConvar.obj
 0002:000002ac       ?ItemDefinitionIndexMap$initializer$@@3P6AXXZA 100a02ac     MiscFunctions.obj
 0002:000002b0       ?logFile$initializer$@@3P6AXXZA 100a02b0     Utilities.obj
 0002:000002bc       ?__scrt_initialize_tss_var@@3P6AHXZA 100a02bc     LIBCMT:thread_safe_statics.obj
 0002:000002c0       ?pinit@@3P6AHXZA           100a02c0     libcpmt:winapisupp.obj
 0002:00001c28       ?tmp@?1??CreateMaterial@@YAPAVIMaterial@@_N00@Z@4QBDB 100a1c28     Chams.obj
 0002:00002f9c       ?power@?1??Setup@grenade_prediction@@AAEXAAVVector@@0V3@@Z@4QBMB 100a2f9c     GrenadePrediction.obj
 0002:00003ed0       ?piecewise_construct@std@@3Upiecewise_construct_t@1@B 100a3ed0     Hooks.obj
 0002:00003ed8       ?pulCRCTable@@3QBKB        100a3ed8     Hooks.obj
 0002:00005650       ?GStyleVarInfo@@3QBUImGuiStyleVarInfo@@B 100a5650     imgui.obj
 0002:000056b0       ?KeyNames@@3QBQBDB         100a56b0     imgui.obj
 0002:000059c8       ?min_steps@?1??RoundScalar@ImGui@@YAMMH@Z@4QBMB 100a59c8     imgui.obj
 0002:000060d0       ?proggy_clean_ttf_compressed_data_base85@@3QBDB 100a60d0     imgui_draw.obj
 0002:00009988       ?ranges@?1??GetGlyphRangesDefault@ImFontAtlas@@QAEPBGXZ@4QBGB 100a9988     imgui_draw.obj
 0002:0000af28       ?tuxlist@@3QBQADB          100aaf28     Misc.obj
 0002:0000af2c       ?ezfragslist@@3QBQADB      100aaf2c     Misc.obj
 0002:0000af48       ?phooklist@@3QBQADB        100aaf48     Misc.obj
 0002:0000af50       ?skybox_models@@3QBQADB    100aaf50     Misc.obj
 0002:0000ba30       _Int32ToUInt32             100aba30     LIBCMT:_ftol3_.obj
 0002:0000ba38       _DP2to32                   100aba38     LIBCMT:_ftol3_.obj
 0002:0000ba40       _MantissaMask              100aba40     LIBCMT:_ftol3_.obj
 0002:0000ba48       _IntegerBit                100aba48     LIBCMT:_ftol3_.obj
 0002:0000ba50       _SignBit64                 100aba50     LIBCMT:_ftol3_.obj
 0002:0000ba58       _MinFP64                   100aba58     LIBCMT:_ftol3_.obj
 0002:0000ba60       _MinInt64                  100aba60     LIBCMT:_ftol3_.obj
 0002:0000ba68       _MaxInt64                  100aba68     LIBCMT:_ftol3_.obj
 0002:0000ba70       _MaxUInt64                 100aba70     LIBCMT:_ftol3_.obj
 0002:0000ba78       _MaxFP32                   100aba78     LIBCMT:_ftol3_.obj
 0002:0000ba80       _MinFP32                   100aba80     LIBCMT:_ftol3_.obj
 0002:0000ba88       _MinSubInexact             100aba88     LIBCMT:_ftol3_.obj
 0002:0000ba90       _FpExcptTable              100aba90     LIBCMT:_ftol3_.obj
 0002:0000baa0       _i1075                     100abaa0     LIBCMT:_ftol3_.obj
 0002:0000baa4       _i1087                     100abaa4     LIBCMT:_ftol3_.obj
 0002:0000baa8       _x0800                     100abaa8     LIBCMT:_ftol3_.obj
 0002:0000baac       _x17FF                     100abaac     LIBCMT:_ftol3_.obj
 0002:0000bab0       _CWMask                    100abab0     LIBCMT:_ftol3_.obj
 0002:0000bac0       L_abs_mask                 100abac0     LIBCMT:_svml_dsin2_dispatch_.obj
 0002:0000bad0       L_real_one                 100abad0     LIBCMT:_svml_dsin2_dispatch_.obj
 0002:0000bae0       L_one_half                 100abae0     LIBCMT:_svml_dsin2_dispatch_.obj
 0002:0000baf0       L_two_to_neg_27            100abaf0     LIBCMT:_svml_dsin2_dispatch_.obj
 0002:0000bb00       L_pi_over_two              100abb00     LIBCMT:_svml_dsin2_dispatch_.obj
 0002:0000bb10       _GS_ExceptionPointers      100abb10     LIBCMT:gs_report.obj
 0002:0000bbd8       ?_Win_errtab@std@@3QBU_Win_errtab_t@1@B 100abbd8     libcpmt:syserror.obj
 0002:0000be28       ?_Sys_errtab@std@@3QBU_Sys_errtab_t@1@B 100abe28     libcpmt:syserror.obj
 0002:0000cb98       ?LcidToLocaleNameTable@@3QBULcidToLocaleName@@B 100acb98     libcpmt:winapinls.obj
 0002:0000d2b8       ?LocaleNameToIndexTable@@3QBULocaleNameIndex@@B 100ad2b8     libcpmt:winapinls.obj
 0002:0000ea9c       _digits                    100aea9c     libcpmt:xstoul.obj
 0002:0000eac4       _ndigs                     100aeac4     libcpmt:xstoul.obj
 0002:0000eaec       _digits                    100aeaec     libcpmt:xstoull.obj
 0002:0000eb14       _ndigs                     100aeb14     libcpmt:xstoull.obj
 0002:0000eb3c       ?ExceptionTemplate@?1??_CxxThrowException@@9@8@4UEHExceptionRecord@@B 100aeb3c     libvcruntime:throw.obj
 0002:0000eb60       ?module_names@?A0x5c10d368@@3QBQB_WB 100aeb60     libvcruntime:winapi_downlevel.obj
 0002:0000ec18       ?candidate_modules@?1??try_get_FlsAlloc@@YAP6GKP6GXPAX@Z@ZXZ@4QBW4module_id@?A0x5c10d368@@B 100aec18     libvcruntime:winapi_downlevel.obj
 0002:0000ec20       ?candidate_modules@?1??try_get_FlsFree@@YAP6GHK@ZXZ@4QBW4module_id@?A0x5c10d368@@B 100aec20     libvcruntime:winapi_downlevel.obj
 0002:0000ec28       ?candidate_modules@?1??try_get_FlsGetValue@@YAP6GPAXK@ZXZ@4QBW4module_id@?A0x5c10d368@@B 100aec28     libvcruntime:winapi_downlevel.obj
 0002:0000ec30       ?candidate_modules@?1??try_get_FlsSetValue@@YAP6GHKPAX@ZXZ@4QBW4module_id@?A0x5c10d368@@B 100aec30     libvcruntime:winapi_downlevel.obj
 0002:0000ec38       ?candidate_modules@?1??try_get_InitializeCriticalSectionEx@@YAP6GHPAU_RTL_CRITICAL_SECTION@@KK@ZXZ@4QBW4module_id@?A0x5c10d368@@B 100aec38     libvcruntime:winapi_downlevel.obj
 0002:0000ec60       ?tokenTable@@3QBQBDB       100aec60     libvcruntime:undname.obj
 0002:0000ec98       ?nameTable@@3QBQBDB        100aec98     libvcruntime:undname.obj
 0002:0000ede0       ?rttiTable@@3QBQBDB        100aede0     libvcruntime:undname.obj
 0002:0000ffa0       Shifter                    100affa0     libucrt:pow_sse2_precise.obj
 0002:0000ffb0       SIGMASK                    100affb0     libucrt:pow_sse2_precise.obj
 0002:0000ffc0       ONEMASK                    100affc0     libucrt:pow_sse2_precise.obj
 0002:0000ffd0       ABSVALMASK                 100affd0     libucrt:pow_sse2_precise.obj
 0002:0000ffe0       cev                        100affe0     libucrt:pow_sse2_precise.obj
 0002:00010008       HALFSIG                    100b0008     libucrt:pow_sse2_precise.obj
 0002:00010010       LHN                        100b0010     libucrt:pow_sse2_precise.obj
 0002:00010018       sNaN                       100b0018     libucrt:pow_sse2_precise.obj
 0002:00010020       INF                        100b0020     libucrt:pow_sse2_precise.obj
 0002:00010028       NEG_INF                    100b0028     libucrt:pow_sse2_precise.obj
 0002:00010030       NEG_ZERO                   100b0030     libucrt:pow_sse2_precise.obj
 0002:00010038       NEG_BIG                    100b0038     libucrt:pow_sse2_precise.obj
 0002:00010040       POS_BIG                    100b0040     libucrt:pow_sse2_precise.obj
 0002:00010048       EMIN                       100b0048     libucrt:pow_sse2_precise.obj
 0002:00010050       QIND                       100b0050     libucrt:pow_sse2_precise.obj
 0002:00010170       SC_1                       100b0170     libucrt:cos_sse2_precise.obj
 0002:00010180       SC_2                       100b0180     libucrt:cos_sse2_precise.obj
 0002:00010190       SC_3                       100b0190     libucrt:cos_sse2_precise.obj
 0002:000101a0       SC_4                       100b01a0     libucrt:cos_sse2_precise.obj
 0002:000101b0       PI32INV                    100b01b0     libucrt:cos_sse2_precise.obj
 0002:000101b8       SHIFTER                    100b01b8     libucrt:cos_sse2_precise.obj
 0002:000101c0       P_2                        100b01c0     libucrt:cos_sse2_precise.obj
 0002:000101d0       P_1                        100b01d0     libucrt:cos_sse2_precise.obj
 0002:000101d8       P_3                        100b01d8     libucrt:cos_sse2_precise.obj
 0002:000101e0       TWO_POW_55                 100b01e0     libucrt:cos_sse2_precise.obj
 0002:000101e8       TWO_POW_M55                100b01e8     libucrt:cos_sse2_precise.obj
 0002:000101f0       ALL_ONES                   100b01f0     libucrt:cos_sse2_precise.obj
 0002:000101f8       NEG_ZERO                   100b01f8     libucrt:cos_sse2_precise.obj
 0002:00010200       ONE                        100b0200     libucrt:cos_sse2_precise.obj
 0002:00010210       SIGN_MASK                  100b0210     libucrt:cos_sse2_precise.obj
 0002:00010220       smask                      100b0220     libucrt:exp_sse2_precise.obj
 0002:00010230       emask                      100b0230     libucrt:exp_sse2_precise.obj
 0002:00010240       mmask                      100b0240     libucrt:exp_sse2_precise.obj
 0002:00010250       bias                       100b0250     libucrt:exp_sse2_precise.obj
 0002:00010260       Shifter                    100b0260     libucrt:exp_sse2_precise.obj
 0002:00010270       twom60                     100b0270     libucrt:exp_sse2_precise.obj
 0002:00010280       cv                         100b0280     libucrt:exp_sse2_precise.obj
 0002:000102d0       ONE_val                    100b02d0     libucrt:exp_sse2_precise.obj
 0002:000102d8       EMIN                       100b02d8     libucrt:exp_sse2_precise.obj
 0002:000102e0       MAX_ARG                    100b02e0     libucrt:exp_sse2_precise.obj
 0002:000102e8       MIN_ARG                    100b02e8     libucrt:exp_sse2_precise.obj
 0002:000102f0       INF                        100b02f0     libucrt:exp_sse2_precise.obj
 0002:000102f8       QNAN_BIT                   100b02f8     libucrt:exp_sse2_precise.obj
 0002:00010300       ZERO                       100b0300     libucrt:exp_sse2_precise.obj
 0002:00010308       XMAX                       100b0308     libucrt:exp_sse2_precise.obj
 0002:00010310       XMIN                       100b0310     libucrt:exp_sse2_precise.obj
 0002:00010318       Sm_Thres                   100b0318     libucrt:exp_sse2_precise.obj
 0002:00010320       Del_Thres                  100b0320     libucrt:exp_sse2_precise.obj
 0002:00010330       SC_1                       100b0330     libucrt:sin_sse2_precise.obj
 0002:00010340       SC_2                       100b0340     libucrt:sin_sse2_precise.obj
 0002:00010350       SC_3                       100b0350     libucrt:sin_sse2_precise.obj
 0002:00010360       SC_4                       100b0360     libucrt:sin_sse2_precise.obj
 0002:00010370       PI32INV                    100b0370     libucrt:sin_sse2_precise.obj
 0002:00010378       SHIFTER                    100b0378     libucrt:sin_sse2_precise.obj
 0002:00010380       P_2                        100b0380     libucrt:sin_sse2_precise.obj
 0002:00010390       P_1                        100b0390     libucrt:sin_sse2_precise.obj
 0002:00010398       P_3                        100b0398     libucrt:sin_sse2_precise.obj
 0002:000103a0       TWO_POW_55                 100b03a0     libucrt:sin_sse2_precise.obj
 0002:000103a8       TWO_POW_M55                100b03a8     libucrt:sin_sse2_precise.obj
 0002:000103b0       ALL_ONES                   100b03b0     libucrt:sin_sse2_precise.obj
 0002:000103b8       NEG_ZERO                   100b03b8     libucrt:sin_sse2_precise.obj
 0002:000103c0       ONE                        100b03c0     libucrt:sin_sse2_precise.obj
 0002:000103d0       _One                       100b03d0     libucrt:ceil_pentium4.obj
 0002:000103e0       _Bns                       100b03e0     libucrt:ceil_pentium4.obj
 0002:000103f0       _Zero                      100b03f0     libucrt:ceil_pentium4.obj
 0002:00010400       _S                         100b0400     libucrt:ceil_pentium4.obj
 0002:00010410       _NegZero                   100b0410     libucrt:ceil_pentium4.obj
 0002:00010420       _One                       100b0420     libucrt:floor_pentium4.obj
 0002:00010430       _Bns                       100b0430     libucrt:floor_pentium4.obj
 0002:00010440       _NegOne                    100b0440     libucrt:floor_pentium4.obj
 0002:00010450       _NegZero                   100b0450     libucrt:floor_pentium4.obj
 0002:00010460       _S                         100b0460     libucrt:floor_pentium4.obj
 0002:00010470       ?errtable@@3QBUerrentry@?A0x31fdb9ec@@B 100b0470     libucrt:errno.obj
 0002:000106b0       Shifter                    100b06b0     libucrt:acos_sse2_precise.obj
 0002:000106c0       PI_BY_2                    100b06c0     libucrt:acos_sse2_precise.obj
 0002:000106d0       NEG_PI                     100b06d0     libucrt:acos_sse2_precise.obj
 0002:000106e0       PI                         100b06e0     libucrt:acos_sse2_precise.obj
 0002:000106f0       SIGNMASK                   100b06f0     libucrt:acos_sse2_precise.obj
 0002:00010700       HALFMASK                   100b0700     libucrt:acos_sse2_precise.obj
 0002:00010710       HALFMASK2                  100b0710     libucrt:acos_sse2_precise.obj
 0002:00010720       cv                         100b0720     libucrt:acos_sse2_precise.obj
 0002:00010740       cv2                        100b0740     libucrt:acos_sse2_precise.obj
 0002:00010780       ABSVALMASK                 100b0780     libucrt:acos_sse2_precise.obj
 0002:00010788       TMASK                      100b0788     libucrt:acos_sse2_precise.obj
 0002:00010790       ONEMASK                    100b0790     libucrt:acos_sse2_precise.obj
 0002:00010798       ONE_BY_2                   100b0798     libucrt:acos_sse2_precise.obj
 0002:000107a0       EMIN                       100b07a0     libucrt:acos_sse2_precise.obj
 0002:000107a8       MAX_ARG                    100b07a8     libucrt:acos_sse2_precise.obj
 0002:000107b0       MIN_ARG                    100b07b0     libucrt:acos_sse2_precise.obj
 0002:000107b8       INF                        100b07b8     libucrt:acos_sse2_precise.obj
 0002:000107c0       ZERO                       100b07c0     libucrt:acos_sse2_precise.obj
 0002:000107c8       ALPHA                      100b07c8     libucrt:acos_sse2_precise.obj
 0002:000107d0       Shifter                    100b07d0     libucrt:asin_sse2_precise.obj
 0002:000107e0       PI_BY_2                    100b07e0     libucrt:asin_sse2_precise.obj
 0002:000107f0       SIGNMASK                   100b07f0     libucrt:asin_sse2_precise.obj
 0002:00010800       HALFMASK                   100b0800     libucrt:asin_sse2_precise.obj
 0002:00010810       HALFMASK2                  100b0810     libucrt:asin_sse2_precise.obj
 0002:00010818       cv                         100b0818     libucrt:asin_sse2_precise.obj
 0002:00010830       cv2                        100b0830     libucrt:asin_sse2_precise.obj
 0002:00010870       ABSVALMASK                 100b0870     libucrt:asin_sse2_precise.obj
 0002:00010878       TMASK                      100b0878     libucrt:asin_sse2_precise.obj
 0002:00010880       ONEMASK                    100b0880     libucrt:asin_sse2_precise.obj
 0002:00010888       EMIN                       100b0888     libucrt:asin_sse2_precise.obj
 0002:00010890       MAX_ARG                    100b0890     libucrt:asin_sse2_precise.obj
 0002:00010898       MIN_ARG                    100b0898     libucrt:asin_sse2_precise.obj
 0002:000108a0       INF                        100b08a0     libucrt:asin_sse2_precise.obj
 0002:000108a8       ZERO                       100b08a8     libucrt:asin_sse2_precise.obj
 0002:000108b0       _mexp                      100b08b0     libucrt:atan_sse2_precise.obj
 0002:000108c0       _mabs                      100b08c0     libucrt:atan_sse2_precise.obj
 0002:000108d0       _pi_2d                     100b08d0     libucrt:atan_sse2_precise.obj
 0002:000108e0       _d1400                     100b08e0     libucrt:atan_sse2_precise.obj
 0002:000108f0       _d1213                     100b08f0     libucrt:atan_sse2_precise.obj
 0002:00010900       _d1011                     100b0900     libucrt:atan_sse2_precise.obj
 0002:00010910       _d89                       100b0910     libucrt:atan_sse2_precise.obj
 0002:00010920       _d67                       100b0920     libucrt:atan_sse2_precise.obj
 0002:00010930       _d45                       100b0930     libucrt:atan_sse2_precise.obj
 0002:00010940       _d23                       100b0940     libucrt:atan_sse2_precise.obj
 0002:00010950       _d01                       100b0950     libucrt:atan_sse2_precise.obj
 0002:00010960       _p60                       100b0960     libucrt:atan_sse2_precise.obj
 0002:00010970       _p45                       100b0970     libucrt:atan_sse2_precise.obj
 0002:00010980       _p23                       100b0980     libucrt:atan_sse2_precise.obj
 0002:00010990       _p01                       100b0990     libucrt:atan_sse2_precise.obj
 0002:000109a0       _qnan_bit                  100b09a0     libucrt:atan_sse2_precise.obj
 0002:000109a8       _cntshf                    100b09a8     libucrt:atan_sse2_precise.obj
 0002:000109b0       _zero                      100b09b0     libucrt:atan_sse2_precise.obj
 0002:000109b8       _onen                      100b09b8     libucrt:atan_sse2_precise.obj
 0002:000109c0       _one                       100b09c0     libucrt:atan_sse2_precise.obj
 0002:000109c8       _cnst8                     100b09c8     libucrt:atan_sse2_precise.obj
 0002:000109d0       _in3                       100b09d0     libucrt:atan_sse2_precise.obj
 0002:000109d8       _in2                       100b09d8     libucrt:atan_sse2_precise.obj
 0002:000109e0       _in1                       100b09e0     libucrt:atan_sse2_precise.obj
 0002:000109e8       _in0                       100b09e8     libucrt:atan_sse2_precise.obj
 0002:000109f0       _in                        100b09f0     libucrt:atan_sse2_precise.obj
 0002:000109f8       _minval                    100b09f8     libucrt:atan_sse2_precise.obj
 0002:00010a00       libm_small                 100b0a00     libucrt:atan_sse2_precise.obj
 0002:00010ad0       ___acrt_initializers       100b0ad0     libucrt:initialization.obj
 0002:00010b50       ?_names@?1??_get_fname@@9@9 100b0b50     libucrt:fpexcept.obj
 0002:00011510       POW_name                   100b1510     libucrt:pow_impl.obj
 0002:00011520       __first_127char            100b1520     libucrt:wsetlocale.obj
 0002:00015410       _NAME_                     100b5410     libucrt:cos_impl.obj
 0002:00016020       _NAME_                     100b6020     libucrt:sin_impl.obj
 0002:00016128       ?module_names@?A0x391cf84c@@3QBQB_WB 100b6128     libucrt:winapi_thunks.obj
 0002:00016590       ?candidate_modules@?1??try_get_AreFileApisANSI@@YAP6GHXZXZ@4QBW4module_id@?A0x391cf84c@@B 100b6590     libucrt:winapi_thunks.obj
 0002:000165a4       ?candidate_modules@?1??try_get_CompareStringEx@@YAP6GHPB_WK0H0HPAU_nlsversioninfo@@PAXJ@ZXZ@4QBW4module_id@?A0x391cf84c@@B 100b65a4     libucrt:winapi_thunks.obj
 0002:000165ac       ?candidate_modules@?1??try_get_EnumSystemLocalesEx@@YAP6GHP6GHPA_WKJ@ZKJPAX@ZXZ@4QBW4module_id@?A0x391cf84c@@B 100b65ac     libucrt:winapi_thunks.obj
 0002:000165c8       ?candidate_modules@?1??try_get_FlsAlloc@@YAP6GKP6GXPAX@Z@ZXZ@4QBW4module_id@?A0x391cf84c@@B 100b65c8     libucrt:winapi_thunks.obj
 0002:000165d0       ?candidate_modules@?1??try_get_FlsFree@@YAP6GHK@ZXZ@4QBW4module_id@?A0x391cf84c@@B 100b65d0     libucrt:winapi_thunks.obj
 0002:000165d8       ?candidate_modules@?1??try_get_FlsGetValue@@YAP6GPAXK@ZXZ@4QBW4module_id@?A0x391cf84c@@B 100b65d8     libucrt:winapi_thunks.obj
 0002:000165e0       ?candidate_modules@?1??try_get_FlsSetValue@@YAP6GHKPAX@ZXZ@4QBW4module_id@?A0x391cf84c@@B 100b65e0     libucrt:winapi_thunks.obj
 0002:000165e8       ?candidate_modules@?1??try_get_GetDateFormatEx@@YAP6GHPB_WKPBU_SYSTEMTIME@@0PA_WH0@ZXZ@4QBW4module_id@?A0x391cf84c@@B 100b65e8     libucrt:winapi_thunks.obj
 0002:00016600       ?candidate_modules@?1??try_get_GetLocaleInfoEx@@YAP6GHPB_WKPA_WH@ZXZ@4QBW4module_id@?A0x391cf84c@@B 100b6600     libucrt:winapi_thunks.obj
 0002:00016608       ?candidate_modules@?1??try_get_GetSystemTimePreciseAsFileTime@@YAP6GXPAU_FILETIME@@@ZXZ@4QBW4module_id@?A0x391cf84c@@B 100b6608     libucrt:winapi_thunks.obj
 0002:0001660c       ?candidate_modules@?1??try_get_GetTimeFormatEx@@YAP6GHPB_WKPBU_SYSTEMTIME@@0PA_WH@ZXZ@4QBW4module_id@?A0x391cf84c@@B 100b660c     libucrt:winapi_thunks.obj
 0002:00016624       ?candidate_modules@?1??try_get_GetUserDefaultLocaleName@@YAP6GHPA_WH@ZXZ@4QBW4module_id@?A0x391cf84c@@B 100b6624     libucrt:winapi_thunks.obj
 0002:00016648       ?candidate_modules@?1??try_get_InitializeCriticalSectionEx@@YAP6GHPAU_RTL_CRITICAL_SECTION@@KK@ZXZ@4QBW4module_id@?A0x391cf84c@@B 100b6648     libucrt:winapi_thunks.obj
 0002:00016650       ?candidate_modules@?1??try_get_IsValidLocaleName@@YAP6GHPB_W@ZXZ@4QBW4module_id@?A0x391cf84c@@B 100b6650     libucrt:winapi_thunks.obj
 0002:0001666c       ?candidate_modules@?1??try_get_LCMapStringEx@@YAP6GHPB_WK0HPA_WHPAU_nlsversioninfo@@PAXJ@ZXZ@4QBW4module_id@?A0x391cf84c@@B 100b666c     libucrt:winapi_thunks.obj
 0002:00016674       ?candidate_modules@?1??try_get_LCIDToLocaleName@@YAP6GHKPA_WHK@ZXZ@4QBW4module_id@?A0x391cf84c@@B 100b6674     libucrt:winapi_thunks.obj
 0002:00016690       ?candidate_modules@?1??try_get_LocaleNameToLCID@@YAP6GKPB_WK@ZXZ@4QBW4module_id@?A0x391cf84c@@B 100b6690     libucrt:winapi_thunks.obj
 0002:000166ac       ?candidate_modules@?1??try_get_AppPolicyGetProcessTerminationMethod@@YAP6GJPAXPAW4AppPolicyProcessTerminationMethod@@@ZXZ@4QBW4module_id@?A0x391cf84c@@B 100b66ac     libucrt:winapi_thunks.obj
 0002:000166d8       ?candidate_modules@?1??try_get_SystemFunction036@@YAP6GEPAXK@ZXZ@4QBW4module_id@?A0x391cf84c@@B 100b66d8     libucrt:winapi_thunks.obj
 0002:00016750       DblMax                     100b6750     libucrt:87cdisp.obj
 0002:00016758       DblMin                     100b6758     libucrt:87cdisp.obj
 0002:00016760       IeeeAdjO                   100b6760     libucrt:87cdisp.obj
 0002:00016768       IeeeAdjU                   100b6768     libucrt:87cdisp.obj
 0002:00016770       _infinity                  100b6770     libucrt:87cdisp.obj
 0002:00016778       _zero                      100b6778     libucrt:87cdisp.obj
 0002:0001679e       One                        100b679e     libucrt:87disp.obj
 0002:000167a6       Three                      100b67a6     libucrt:87disp.obj
 0002:000167ae       XAMtoTagTab                100b67ae     libucrt:87disp.obj
 0002:000167d0       _NAME_                     100b67d0     libucrt:acos_impl.obj
 0002:00017ee0       _NAME_                     100b7ee0     libucrt:asin_impl.obj
 0002:00017ef0       _NAME_                     100b7ef0     libucrt:atan_impl.obj
 0002:00019720       _over                      100b9720     libucrt:fpctrl.obj
 0002:0001972c       _under                     100b972c     libucrt:fpctrl.obj
 0002:00019740       _NAME_                     100b9740     libucrt:sqrt_impl.obj
 0002:00019748       ?_mb_locale_names@@3QBQB_WB 100b9748     libucrt:mbctype.obj
 0002:00019760       Shifter                    100b9760     libucrt:pow_pentium4.obj
 0002:00019770       SIGMASK                    100b9770     libucrt:pow_pentium4.obj
 0002:00019780       ONEMASK                    100b9780     libucrt:pow_pentium4.obj
 0002:00019790       ABSVALMASK                 100b9790     libucrt:pow_pentium4.obj
 0002:000197a0       cev                        100b97a0     libucrt:pow_pentium4.obj
 0002:000197c8       HALFSIG                    100b97c8     libucrt:pow_pentium4.obj
 0002:000197d0       LHN                        100b97d0     libucrt:pow_pentium4.obj
 0002:000197d8       sNaN                       100b97d8     libucrt:pow_pentium4.obj
 0002:000197e0       INF                        100b97e0     libucrt:pow_pentium4.obj
 0002:000197e8       NEG_INF                    100b97e8     libucrt:pow_pentium4.obj
 0002:000197f0       NEG_ZERO                   100b97f0     libucrt:pow_pentium4.obj
 0002:000197f8       NEG_BIG                    100b97f8     libucrt:pow_pentium4.obj
 0002:00019800       POS_BIG                    100b9800     libucrt:pow_pentium4.obj
 0002:00019808       EMIN                       100b9808     libucrt:pow_pentium4.obj
 0002:00019810       QIND                       100b9810     libucrt:pow_pentium4.obj
 0002:0001983e       _log2max                   100b983e     libucrt:87tran.obj
 0002:00019848       _smallarg                  100b9848     libucrt:87tran.obj
 0002:00019852       _half                      100b9852     libucrt:87tran.obj
 0002:00019880       One                        100b9880     libucrt:common.obj
 0002:00019894       DblMax                     100b9894     libucrt:common.obj
 0002:0001989c       DblMin                     100b989c     libucrt:common.obj
 0002:000198a4       IeeeAdjO                   100b98a4     libucrt:common.obj
 0002:000198ac       IeeeAdjU                   100b98ac     libucrt:common.obj
 0002:000198b4       _infinity                  100b98b4     libucrt:common.obj
 0002:000198bc       _zero                      100b98bc     libucrt:common.obj
 0002:0001a6a0       SC_1                       100ba6a0     libucrt:cos_pentium4.obj
 0002:0001a6b0       SC_2                       100ba6b0     libucrt:cos_pentium4.obj
 0002:0001a6c0       SC_3                       100ba6c0     libucrt:cos_pentium4.obj
 0002:0001a6d0       SC_4                       100ba6d0     libucrt:cos_pentium4.obj
 0002:0001a6e0       PI32INV                    100ba6e0     libucrt:cos_pentium4.obj
 0002:0001a6e8       SHIFTER                    100ba6e8     libucrt:cos_pentium4.obj
 0002:0001a6f0       P_2                        100ba6f0     libucrt:cos_pentium4.obj
 0002:0001a700       P_1                        100ba700     libucrt:cos_pentium4.obj
 0002:0001a708       P_3                        100ba708     libucrt:cos_pentium4.obj
 0002:0001a710       TWO_POW_55                 100ba710     libucrt:cos_pentium4.obj
 0002:0001a718       TWO_POW_M55                100ba718     libucrt:cos_pentium4.obj
 0002:0001a720       ALL_ONES                   100ba720     libucrt:cos_pentium4.obj
 0002:0001a728       NEG_ZERO                   100ba728     libucrt:cos_pentium4.obj
 0002:0001a730       ONE                        100ba730     libucrt:cos_pentium4.obj
 0002:0001a740       SIGN_MASK                  100ba740     libucrt:cos_pentium4.obj
 0002:0001a750       smask                      100ba750     libucrt:exp_pentium4.obj
 0002:0001a760       emask                      100ba760     libucrt:exp_pentium4.obj
 0002:0001a770       mmask                      100ba770     libucrt:exp_pentium4.obj
 0002:0001a780       bias                       100ba780     libucrt:exp_pentium4.obj
 0002:0001a790       Shifter                    100ba790     libucrt:exp_pentium4.obj
 0002:0001a7a0       twom60                     100ba7a0     libucrt:exp_pentium4.obj
 0002:0001a7b0       cv                         100ba7b0     libucrt:exp_pentium4.obj
 0002:0001a800       ONE_val                    100ba800     libucrt:exp_pentium4.obj
 0002:0001a808       EMIN                       100ba808     libucrt:exp_pentium4.obj
 0002:0001a810       MAX_ARG                    100ba810     libucrt:exp_pentium4.obj
 0002:0001a818       MIN_ARG                    100ba818     libucrt:exp_pentium4.obj
 0002:0001a820       INF                        100ba820     libucrt:exp_pentium4.obj
 0002:0001a828       ZERO                       100ba828     libucrt:exp_pentium4.obj
 0002:0001a830       XMAX                       100ba830     libucrt:exp_pentium4.obj
 0002:0001a838       XMIN                       100ba838     libucrt:exp_pentium4.obj
 0002:0001a840       Sm_Thres                   100ba840     libucrt:exp_pentium4.obj
 0002:0001a848       Del_Thres                  100ba848     libucrt:exp_pentium4.obj
 0002:0001a850       SC_1                       100ba850     libucrt:sin_pentium4.obj
 0002:0001a860       SC_2                       100ba860     libucrt:sin_pentium4.obj
 0002:0001a870       SC_3                       100ba870     libucrt:sin_pentium4.obj
 0002:0001a880       SC_4                       100ba880     libucrt:sin_pentium4.obj
 0002:0001a890       PI32INV                    100ba890     libucrt:sin_pentium4.obj
 0002:0001a898       SHIFTER                    100ba898     libucrt:sin_pentium4.obj
 0002:0001a8a0       P_2                        100ba8a0     libucrt:sin_pentium4.obj
 0002:0001a8b0       P_1                        100ba8b0     libucrt:sin_pentium4.obj
 0002:0001a8b8       P_3                        100ba8b8     libucrt:sin_pentium4.obj
 0002:0001a8c0       TWO_POW_55                 100ba8c0     libucrt:sin_pentium4.obj
 0002:0001a8c8       TWO_POW_M55                100ba8c8     libucrt:sin_pentium4.obj
 0002:0001a8d0       ALL_ONES                   100ba8d0     libucrt:sin_pentium4.obj
 0002:0001a8d8       NEG_ZERO                   100ba8d8     libucrt:sin_pentium4.obj
 0002:0001a8e0       ONE                        100ba8e0     libucrt:sin_pentium4.obj
 0002:0001a8f0       ?LcidToLocaleNameTable@?A0x881e4c05@@3QBULcidToLocaleName@1@B 100ba8f0     libucrt:lcidtoname_downlevel.obj
 0002:0001b010       ?LocaleNameToIndexTable@?A0x881e4c05@@3QBULocaleNameIndex@1@B 100bb010     libucrt:lcidtoname_downlevel.obj
 0002:0001b730       Shifter                    100bb730     libucrt:acos_pentium4.obj
 0002:0001b740       PI_BY_2                    100bb740     libucrt:acos_pentium4.obj
 0002:0001b750       NEG_PI                     100bb750     libucrt:acos_pentium4.obj
 0002:0001b760       PI                         100bb760     libucrt:acos_pentium4.obj
 0002:0001b770       SIGNMASK                   100bb770     libucrt:acos_pentium4.obj
 0002:0001b780       HALFMASK                   100bb780     libucrt:acos_pentium4.obj
 0002:0001b790       HALFMASK2                  100bb790     libucrt:acos_pentium4.obj
 0002:0001b7a0       cv                         100bb7a0     libucrt:acos_pentium4.obj
 0002:0001b7c0       cv2                        100bb7c0     libucrt:acos_pentium4.obj
 0002:0001b800       ABSVALMASK                 100bb800     libucrt:acos_pentium4.obj
 0002:0001b808       TMASK                      100bb808     libucrt:acos_pentium4.obj
 0002:0001b810       ONEMASK                    100bb810     libucrt:acos_pentium4.obj
 0002:0001b818       ONE_BY_2                   100bb818     libucrt:acos_pentium4.obj
 0002:0001b820       EMIN                       100bb820     libucrt:acos_pentium4.obj
 0002:0001b828       MAX_ARG                    100bb828     libucrt:acos_pentium4.obj
 0002:0001b830       MIN_ARG                    100bb830     libucrt:acos_pentium4.obj
 0002:0001b838       INF                        100bb838     libucrt:acos_pentium4.obj
 0002:0001b840       ZERO                       100bb840     libucrt:acos_pentium4.obj
 0002:0001b848       ALPHA                      100bb848     libucrt:acos_pentium4.obj
 0002:0001b850       Shifter                    100bb850     libucrt:asin_pentium4.obj
 0002:0001b860       PI_BY_2                    100bb860     libucrt:asin_pentium4.obj
 0002:0001b870       SIGNMASK                   100bb870     libucrt:asin_pentium4.obj
 0002:0001b880       HALFMASK                   100bb880     libucrt:asin_pentium4.obj
 0002:0001b890       HALFMASK2                  100bb890     libucrt:asin_pentium4.obj
 0002:0001b898       cv                         100bb898     libucrt:asin_pentium4.obj
 0002:0001b8b0       cv2                        100bb8b0     libucrt:asin_pentium4.obj
 0002:0001b8f0       ABSVALMASK                 100bb8f0     libucrt:asin_pentium4.obj
 0002:0001b8f8       TMASK                      100bb8f8     libucrt:asin_pentium4.obj
 0002:0001b900       ONEMASK                    100bb900     libucrt:asin_pentium4.obj
 0002:0001b908       EMIN                       100bb908     libucrt:asin_pentium4.obj
 0002:0001b910       MAX_ARG                    100bb910     libucrt:asin_pentium4.obj
 0002:0001b918       MIN_ARG                    100bb918     libucrt:asin_pentium4.obj
 0002:0001b920       INF                        100bb920     libucrt:asin_pentium4.obj
 0002:0001b928       ZERO                       100bb928     libucrt:asin_pentium4.obj
 0002:0001b930       _mexp                      100bb930     libucrt:atan_pentium4.obj
 0002:0001b940       _mabs                      100bb940     libucrt:atan_pentium4.obj
 0002:0001b950       _pi_2d                     100bb950     libucrt:atan_pentium4.obj
 0002:0001b960       _d1400                     100bb960     libucrt:atan_pentium4.obj
 0002:0001b970       _d1213                     100bb970     libucrt:atan_pentium4.obj
 0002:0001b980       _d1011                     100bb980     libucrt:atan_pentium4.obj
 0002:0001b990       _d89                       100bb990     libucrt:atan_pentium4.obj
 0002:0001b9a0       _d67                       100bb9a0     libucrt:atan_pentium4.obj
 0002:0001b9b0       _d45                       100bb9b0     libucrt:atan_pentium4.obj
 0002:0001b9c0       _d23                       100bb9c0     libucrt:atan_pentium4.obj
 0002:0001b9d0       _d01                       100bb9d0     libucrt:atan_pentium4.obj
 0002:0001b9e0       _p60                       100bb9e0     libucrt:atan_pentium4.obj
 0002:0001b9f0       _p45                       100bb9f0     libucrt:atan_pentium4.obj
 0002:0001ba00       _p23                       100bba00     libucrt:atan_pentium4.obj
 0002:0001ba10       _p01                       100bba10     libucrt:atan_pentium4.obj
 0002:0001ba20       _cntshf                    100bba20     libucrt:atan_pentium4.obj
 0002:0001ba28       _zero                      100bba28     libucrt:atan_pentium4.obj
 0002:0001ba30       _onen                      100bba30     libucrt:atan_pentium4.obj
 0002:0001ba38       _one                       100bba38     libucrt:atan_pentium4.obj
 0002:0001ba40       _cnst8                     100bba40     libucrt:atan_pentium4.obj
 0002:0001ba48       _in3                       100bba48     libucrt:atan_pentium4.obj
 0002:0001ba50       _in2                       100bba50     libucrt:atan_pentium4.obj
 0002:0001ba58       _in1                       100bba58     libucrt:atan_pentium4.obj
 0002:0001ba60       _in0                       100bba60     libucrt:atan_pentium4.obj
 0002:0001ba68       _in                        100bba68     libucrt:atan_pentium4.obj
 0002:0001ba70       _minval                    100bba70     libucrt:atan_pentium4.obj
 0002:0001ba78       libm_small                 100bba78     libucrt:atan_pentium4.obj
 0002:0001ba80       LOG_name                   100bba80     libucrt:log10_impl.obj
 0002:0001baa0       emask                      100bbaa0     libucrt:log10_pentium4.obj
 0002:0001bab0       CC                         100bbab0     libucrt:log10_pentium4.obj
 0002:0001bac0       Magic                      100bbac0     libucrt:log10_pentium4.obj
 0002:0001bad0       hi_mask                    100bbad0     libucrt:log10_pentium4.obj
 0002:0001bae0       LOG10_2                    100bbae0     libucrt:log10_pentium4.obj
 0002:0001baf0       place_L                    100bbaf0     libucrt:log10_pentium4.obj
 0002:0001bb10       One                        100bbb10     libucrt:log10_pentium4.obj
 0002:0001bb20       Zero                       100bbb20     libucrt:log10_pentium4.obj
 0002:0001bb30       Two52                      100bbb30     libucrt:log10_pentium4.obj
 0002:0001bb40       Infs                       100bbb40     libucrt:log10_pentium4.obj
 0002:0001bb50       NaN                        100bbb50     libucrt:log10_pentium4.obj
 0002:0001bb60       coeff                      100bbb60     libucrt:log10_pentium4.obj
 0002:0001d7c0       __unwindtable$?toString@Str@valve_parser@@QAE?AV?$basic_string@DU?$char_traits@D@std@@V?$allocator@D@2@@std@@XZ 100bd7c0     Parser.obj
 0002:0001d7c8       __ehfuncinfo$?toString@Str@valve_parser@@QAE?AV?$basic_string@DU?$char_traits@D@std@@V?$allocator@D@2@@std@@XZ 100bd7c8     Parser.obj
 0002:0001d7ec       __unwindtable$?Parse@Node@valve_parser@@UAE_NXZ 100bd7ec     Parser.obj
 0002:0001d7ec       __unwindtable$?Parse@Object@valve_parser@@UAE_NXZ 100bd7ec     Parser.obj
 0002:0001d7f4       __ehfuncinfo$?Parse@Object@valve_parser@@UAE_NXZ 100bd7f4     Parser.obj
 0002:0001d7f4       __ehfuncinfo$?Parse@Node@valve_parser@@UAE_NXZ 100bd7f4     Parser.obj
 0002:0001d818       __unwindtable$?GetKeyByName@Object@valve_parser@@QAE?AV?$shared_ptr@VNode@valve_parser@@@std@@PAD@Z 100bd818     Parser.obj
 0002:0001d820       __ehfuncinfo$?GetKeyByName@Object@valve_parser@@QAE?AV?$shared_ptr@VNode@valve_parser@@@std@@PAD@Z 100bd820     Parser.obj
 0002:0001d844       __catchsym$??$emplace_back@ABV?$shared_ptr@VNode@valve_parser@@@std@@@?$vector@V?$shared_ptr@VNode@valve_parser@@@std@@V?$allocator@V?$shared_ptr@VNode@valve_parser@@@std@@@2@@std@@QAEXABV?$shared_ptr@VNode@valve_parser@@@1@@Z$2 100bd844     Parser.obj
 0002:0001d854       __unwindtable$??$emplace_back@ABV?$shared_ptr@VNode@valve_parser@@@std@@@?$vector@V?$shared_ptr@VNode@valve_parser@@@std@@V?$allocator@V?$shared_ptr@VNode@valve_parser@@@std@@@2@@std@@QAEXABV?$shared_ptr@VNode@valve_parser@@@1@@Z 100bd854     Parser.obj
 0002:0001d864       __tryblocktable$??$emplace_back@ABV?$shared_ptr@VNode@valve_parser@@@std@@@?$vector@V?$shared_ptr@VNode@valve_parser@@@std@@V?$allocator@V?$shared_ptr@VNode@valve_parser@@@std@@@2@@std@@QAEXABV?$shared_ptr@VNode@valve_parser@@@1@@Z 100bd864     Parser.obj
 0002:0001d878       __ehfuncinfo$??$emplace_back@ABV?$shared_ptr@VNode@valve_parser@@@std@@@?$vector@V?$shared_ptr@VNode@valve_parser@@@std@@V?$allocator@V?$shared_ptr@VNode@valve_parser@@@std@@@2@@std@@QAEXABV?$shared_ptr@VNode@valve_parser@@@1@@Z 100bd878     Parser.obj
 0002:0001d89c       __catchsym$??$_Construct@PA_S@?$basic_string@DU?$char_traits@D@std@@V?$allocator@D@2@@std@@QAEXPA_SQA_SUinput_iterator_tag@1@@Z$2 100bd89c     Parser.obj
 0002:0001d8ac       __unwindtable$??$_Construct@PA_S@?$basic_string@DU?$char_traits@D@std@@V?$allocator@D@2@@std@@QAEXPA_SQA_SUinput_iterator_tag@1@@Z 100bd8ac     Parser.obj
 0002:0001d8bc       __tryblocktable$??$_Construct@PA_S@?$basic_string@DU?$char_traits@D@std@@V?$allocator@D@2@@std@@QAEXPA_SQA_SUinput_iterator_tag@1@@Z 100bd8bc     Parser.obj
 0002:0001d8d0       __ehfuncinfo$??$_Construct@PA_S@?$basic_string@DU?$char_traits@D@std@@V?$allocator@D@2@@std@@QAEXPA_SQA_SUinput_iterator_tag@1@@Z 100bd8d0     Parser.obj
 0002:0001d8f4       __unwindtable$??1?$pair@$$CBV?$basic_string@DU?$char_traits@D@std@@V?$allocator@D@2@@std@@V?$set@V?$basic_string@DU?$char_traits@D@std@@V?$allocator@D@2@@std@@U?$less@V?$basic_string@DU?$char_traits@D@std@@V?$allocator@D@2@@std@@@2@V?$allocator@V?$basic_string@DU?$char_traits@D@std@@V?$allocator@D@2@@std@@@2@@2@@std@@QAE@XZ 100bd8f4     Hooks.obj
 0002:0001d8f4       __unwindtable$??1ImGuiStorage@@QAE@XZ 100bd8f4     imgui.obj
 0002:0001d8f4       __unwindtable$??_G?$basic_streambuf@DU?$char_traits@D@std@@@std@@UAEPAXI@Z 100bd8f4     Utilities.obj
 0002:0001d8f4       __unwindtable$??_Gios_base@std@@UAEPAXI@Z 100bd8f4     Utilities.obj
 0002:0001d8f4       __unwindtable$??_G?$basic_ostream@DU?$char_traits@D@std@@@std@@UAEPAXI@Z 100bd8f4     Utilities.obj
 0002:0001d8f4       __unwindtable$??1?$list@U?$pair@$$CBV?$basic_string@DU?$char_traits@D@std@@V?$allocator@D@2@@std@@V?$set@V?$basic_string@DU?$char_traits@D@std@@V?$allocator@D@2@@std@@U?$less@V?$basic_string@DU?$char_traits@D@std@@V?$allocator@D@2@@std@@@2@V?$allocator@V?$basic_string@DU?$char_traits@D@std@@V?$allocator@D@2@@std@@@2@@2@@std@@V?$allocator@U?$pair@$$CBV?$basic_string@DU?$char_traits@D@std@@V?$allocator@D@2@@std@@V?$set@V?$basic_string@DU?$char_traits@D@std@@V?$allocator@D@2@@std@@U?$less@V?$basic_string@DU?$char_traits@D@std@@V?$allocator@D@2@@std@@@2@V?$allocator@V?$basic_string@DU?$char_traits@D@std@@V?$allocator@D@2@@std@@@2@@2@@std@@@2@@std@@QAE@XZ 100bd8f4     Configuration.obj
 0002:0001d8f4       __unwindtable$??_D?$basic_ofstream@DU?$char_traits@D@std@@@std@@QAEXXZ 100bd8f4     Utilities.obj
 0002:0001d8f4       __unwindtable$??_G?$basic_ios@DU?$char_traits@D@std@@@std@@UAEPAXI@Z 100bd8f4     Utilities.obj
 0002:0001d8f4       __unwindtable$??1?$basic_filebuf@DU?$char_traits@D@std@@@std@@UAE@XZ 100bd8f4     Utilities.obj
 0002:0001d8f4       __unwindtable$??1?$basic_ios@DU?$char_traits@D@std@@@std@@UAE@XZ 100bd8f4     Utilities.obj
 0002:0001d8f4       __unwindtable$??1?$_Tree@V?$_Tmap_traits@W4ItemDefinitionIndexx@@UDefItem_t@@U?$less@W4ItemDefinitionIndexx@@@std@@V?$allocator@U?$pair@$$CBW4ItemDefinitionIndexx@@UDefItem_t@@@std@@@4@$0A@@std@@@std@@QAE@XZ 100bd8f4     recvproxy.obj
 0002:0001d8fc       __ehfuncinfo$??1?$basic_ios@DU?$char_traits@D@std@@@std@@UAE@XZ 100bd8fc     Utilities.obj
 0002:0001d8fc       __ehfuncinfo$??1ImGuiStorage@@QAE@XZ 100bd8fc     imgui.obj
 0002:0001d8fc       __ehfuncinfo$??1?$pair@$$CBV?$basic_string@DU?$char_traits@D@std@@V?$allocator@D@2@@std@@V?$set@V?$basic_string@DU?$char_traits@D@std@@V?$allocator@D@2@@std@@U?$less@V?$basic_string@DU?$char_traits@D@std@@V?$allocator@D@2@@std@@@2@V?$allocator@V?$basic_string@DU?$char_traits@D@std@@V?$allocator@D@2@@std@@@2@@2@@std@@QAE@XZ 100bd8fc     Hooks.obj
 0002:0001d8fc       __ehfuncinfo$??_D?$basic_ofstream@DU?$char_traits@D@std@@@std@@QAEXXZ 100bd8fc     Utilities.obj
 0002:0001d8fc       __ehfuncinfo$??_G?$basic_ios@DU?$char_traits@D@std@@@std@@UAEPAXI@Z 100bd8fc     Utilities.obj
 0002:0001d8fc       __ehfuncinfo$??1?$basic_filebuf@DU?$char_traits@D@std@@@std@@UAE@XZ 100bd8fc     Utilities.obj
 0002:0001d8fc       __ehfuncinfo$??1?$list@U?$pair@$$CBV?$basic_string@DU?$char_traits@D@std@@V?$allocator@D@2@@std@@V?$set@V?$basic_string@DU?$char_traits@D@std@@V?$allocator@D@2@@std@@U?$less@V?$basic_string@DU?$char_traits@D@std@@V?$allocator@D@2@@std@@@2@V?$allocator@V?$basic_string@DU?$char_traits@D@std@@V?$allocator@D@2@@std@@@2@@2@@std@@V?$allocator@U?$pair@$$CBV?$basic_string@DU?$char_traits@D@std@@V?$allocator@D@2@@std@@V?$set@V?$basic_string@DU?$char_traits@D@std@@V?$allocator@D@2@@std@@U?$less@V?$basic_string@DU?$char_traits@D@std@@V?$allocator@D@2@@std@@@2@V?$allocator@V?$basic_string@DU?$char_traits@D@std@@V?$allocator@D@2@@std@@@2@@2@@std@@@2@@std@@QAE@XZ 100bd8fc     Configuration.obj
 0002:0001d8fc       __ehfuncinfo$??1?$_Tree@V?$_Tmap_traits@W4ItemDefinitionIndexx@@UDefItem_t@@U?$less@W4ItemDefinitionIndexx@@@std@@V?$allocator@U?$pair@$$CBW4ItemDefinitionIndexx@@UDefItem_t@@@std@@@4@$0A@@std@@@std@@QAE@XZ 100bd8fc     recvproxy.obj
 0002:0001d8fc       __ehfuncinfo$??_G?$basic_ostream@DU?$char_traits@D@std@@@std@@UAEPAXI@Z 100bd8fc     Utilities.obj
 0002:0001d8fc       __ehfuncinfo$??_Gios_base@std@@UAEPAXI@Z 100bd8fc     Utilities.obj
 0002:0001d8fc       __ehfuncinfo$??_G?$basic_streambuf@DU?$char_traits@D@std@@@std@@UAEPAXI@Z 100bd8fc     Utilities.obj
 0002:0001d920       __unwindtable$??__EItemDefinitionIndexMap@@YAXXZ 100bd920     recvproxy.obj
 0002:0001d928       __ehfuncinfo$??__EItemDefinitionIndexMap@@YAXXZ 100bd928     recvproxy.obj
 0002:0001d94c       __catchsym$??$_Insert_hint@AAU?$pair@$$CBW4ItemDefinitionIndexx@@UDefItem_t@@@std@@PAU?$_Tree_node@U?$pair@$$CBW4ItemDefinitionIndexx@@UDefItem_t@@@std@@PAX@2@@?$_Tree@V?$_Tmap_traits@W4ItemDefinitionIndexx@@UDefItem_t@@U?$less@W4ItemDefinitionIndexx@@@std@@V?$allocator@U?$pair@$$CBW4ItemDefinitionIndexx@@UDefItem_t@@@std@@@4@$0A@@std@@@std@@IAE?AV?$_Tree_iterator@V?$_Tree_val@U?$_Tree_simple_types@U?$pair@$$CBW4ItemDefinitionIndexx@@UDefItem_t@@@std@@@std@@@std@@@1@V?$_Tree_const_iterator@V?$_Tree_val@U?$_Tree_simple_types@U?$pair@$$CBW4ItemDefinitionIndexx@@UDefItem_t@@@std@@@std@@@std@@@1@AAU?$pair@$$CBW4ItemDefinitionIndexx@@UDefItem_t@@@1@PAU?$_Tree_node@U?$pair@$$CBW4ItemDefinitionIndexx@@UDefItem_t@@@std@@PAX@1@@Z$2 100bd94c     recvproxy.obj
 0002:0001d95c       __unwindtable$??$_Insert_hint@AAU?$pair@$$CBW4ItemDefinitionIndexx@@UDefItem_t@@@std@@PAU?$_Tree_node@U?$pair@$$CBW4ItemDefinitionIndexx@@UDefItem_t@@@std@@PAX@2@@?$_Tree@V?$_Tmap_traits@W4ItemDefinitionIndexx@@UDefItem_t@@U?$less@W4ItemDefinitionIndexx@@@std@@V?$allocator@U?$pair@$$CBW4ItemDefinitionIndexx@@UDefItem_t@@@std@@@4@$0A@@std@@@std@@IAE?AV?$_Tree_iterator@V?$_Tree_val@U?$_Tree_simple_types@U?$pair@$$CBW4ItemDefinitionIndexx@@UDefItem_t@@@std@@@std@@@std@@@1@V?$_Tree_const_iterator@V?$_Tree_val@U?$_Tree_simple_types@U?$pair@$$CBW4ItemDefinitionIndexx@@UDefItem_t@@@std@@@std@@@std@@@1@AAU?$pair@$$CBW4ItemDefinitionIndexx@@UDefItem_t@@@1@PAU?$_Tree_node@U?$pair@$$CBW4ItemDefinitionIndexx@@UDefItem_t@@@std@@PAX@1@@Z 100bd95c     recvproxy.obj
 0002:0001d96c       __tryblocktable$??$_Insert_hint@AAU?$pair@$$CBW4ItemDefinitionIndexx@@UDefItem_t@@@std@@PAU?$_Tree_node@U?$pair@$$CBW4ItemDefinitionIndexx@@UDefItem_t@@@std@@PAX@2@@?$_Tree@V?$_Tmap_traits@W4ItemDefinitionIndexx@@UDefItem_t@@U?$less@W4ItemDefinitionIndexx@@@std@@V?$allocator@U?$pair@$$CBW4ItemDefinitionIndexx@@UDefItem_t@@@std@@@4@$0A@@std@@@std@@IAE?AV?$_Tree_iterator@V?$_Tree_val@U?$_Tree_simple_types@U?$pair@$$CBW4ItemDefinitionIndexx@@UDefItem_t@@@std@@@std@@@std@@@1@V?$_Tree_const_iterator@V?$_Tree_val@U?$_Tree_simple_types@U?$pair@$$CBW4ItemDefinitionIndexx@@UDefItem_t@@@std@@@std@@@std@@@1@AAU?$pair@$$CBW4ItemDefinitionIndexx@@UDefItem_t@@@1@PAU?$_Tree_node@U?$pair@$$CBW4ItemDefinitionIndexx@@UDefItem_t@@@std@@PAX@1@@Z 100bd96c     recvproxy.obj
 0002:0001d980       __ehfuncinfo$??$_Insert_hint@AAU?$pair@$$CBW4ItemDefinitionIndexx@@UDefItem_t@@@std@@PAU?$_Tree_node@U?$pair@$$CBW4ItemDefinitionIndexx@@UDefItem_t@@@std@@PAX@2@@?$_Tree@V?$_Tmap_traits@W4ItemDefinitionIndexx@@UDefItem_t@@U?$less@W4ItemDefinitionIndexx@@@std@@V?$allocator@U?$pair@$$CBW4ItemDefinitionIndexx@@UDefItem_t@@@std@@@4@$0A@@std@@@std@@IAE?AV?$_Tree_iterator@V?$_Tree_val@U?$_Tree_simple_types@U?$pair@$$CBW4ItemDefinitionIndexx@@UDefItem_t@@@std@@@std@@@std@@@1@V?$_Tree_const_iterator@V?$_Tree_val@U?$_Tree_simple_types@U?$pair@$$CBW4ItemDefinitionIndexx@@UDefItem_t@@@std@@@std@@@std@@@1@AAU?$pair@$$CBW4ItemDefinitionIndexx@@UDefItem_t@@@1@PAU?$_Tree_node@U?$pair@$$CBW4ItemDefinitionIndexx@@UDefItem_t@@@std@@PAX@1@@Z 100bd980     recvproxy.obj
 0002:0001d9a4       __catchsym$??$_Insert_nohint@AAU?$pair@$$CBW4ItemDefinitionIndexx@@UDefItem_t@@@std@@PAU?$_Tree_node@U?$pair@$$CBW4ItemDefinitionIndexx@@UDefItem_t@@@std@@PAX@2@@?$_Tree@V?$_Tmap_traits@W4ItemDefinitionIndexx@@UDefItem_t@@U?$less@W4ItemDefinitionIndexx@@@std@@V?$allocator@U?$pair@$$CBW4ItemDefinitionIndexx@@UDefItem_t@@@std@@@4@$0A@@std@@@std@@IAE?AU?$pair@V?$_Tree_iterator@V?$_Tree_val@U?$_Tree_simple_types@U?$pair@$$CBW4ItemDefinitionIndexx@@UDefItem_t@@@std@@@std@@@std@@@std@@_N@1@_NAAU?$pair@$$CBW4ItemDefinitionIndexx@@UDefItem_t@@@1@PAU?$_Tree_node@U?$pair@$$CBW4ItemDefinitionIndexx@@UDefItem_t@@@std@@PAX@1@@Z$2 100bd9a4     recvproxy.obj
 0002:0001d9b4       __unwindtable$??$_Insert_nohint@AAU?$pair@$$CBW4ItemDefinitionIndexx@@UDefItem_t@@@std@@PAU?$_Tree_node@U?$pair@$$CBW4ItemDefinitionIndexx@@UDefItem_t@@@std@@PAX@2@@?$_Tree@V?$_Tmap_traits@W4ItemDefinitionIndexx@@UDefItem_t@@U?$less@W4ItemDefinitionIndexx@@@std@@V?$allocator@U?$pair@$$CBW4ItemDefinitionIndexx@@UDefItem_t@@@std@@@4@$0A@@std@@@std@@IAE?AU?$pair@V?$_Tree_iterator@V?$_Tree_val@U?$_Tree_simple_types@U?$pair@$$CBW4ItemDefinitionIndexx@@UDefItem_t@@@std@@@std@@@std@@@std@@_N@1@_NAAU?$pair@$$CBW4ItemDefinitionIndexx@@UDefItem_t@@@1@PAU?$_Tree_node@U?$pair@$$CBW4ItemDefinitionIndexx@@UDefItem_t@@@std@@PAX@1@@Z 100bd9b4     recvproxy.obj
 0002:0001d9c4       __tryblocktable$??$_Insert_nohint@AAU?$pair@$$CBW4ItemDefinitionIndexx@@UDefItem_t@@@std@@PAU?$_Tree_node@U?$pair@$$CBW4ItemDefinitionIndexx@@UDefItem_t@@@std@@PAX@2@@?$_Tree@V?$_Tmap_traits@W4ItemDefinitionIndexx@@UDefItem_t@@U?$less@W4ItemDefinitionIndexx@@@std@@V?$allocator@U?$pair@$$CBW4ItemDefinitionIndexx@@UDefItem_t@@@std@@@4@$0A@@std@@@std@@IAE?AU?$pair@V?$_Tree_iterator@V?$_Tree_val@U?$_Tree_simple_types@U?$pair@$$CBW4ItemDefinitionIndexx@@UDefItem_t@@@std@@@std@@@std@@@std@@_N@1@_NAAU?$pair@$$CBW4ItemDefinitionIndexx@@UDefItem_t@@@1@PAU?$_Tree_node@U?$pair@$$CBW4ItemDefinitionIndexx@@UDefItem_t@@@std@@PAX@1@@Z 100bd9c4     recvproxy.obj
 0002:0001d9d8       __ehfuncinfo$??$_Insert_nohint@AAU?$pair@$$CBW4ItemDefinitionIndexx@@UDefItem_t@@@std@@PAU?$_Tree_node@U?$pair@$$CBW4ItemDefinitionIndexx@@UDefItem_t@@@std@@PAX@2@@?$_Tree@V?$_Tmap_traits@W4ItemDefinitionIndexx@@UDefItem_t@@U?$less@W4ItemDefinitionIndexx@@@std@@V?$allocator@U?$pair@$$CBW4ItemDefinitionIndexx@@UDefItem_t@@@std@@@4@$0A@@std@@@std@@IAE?AU?$pair@V?$_Tree_iterator@V?$_Tree_val@U?$_Tree_simple_types@U?$pair@$$CBW4ItemDefinitionIndexx@@UDefItem_t@@@std@@@std@@@std@@@std@@_N@1@_NAAU?$pair@$$CBW4ItemDefinitionIndexx@@UDefItem_t@@@1@PAU?$_Tree_node@U?$pair@$$CBW4ItemDefinitionIndexx@@UDefItem_t@@@std@@PAX@1@@Z 100bd9d8     recvproxy.obj
 0002:0001d9fc       __unwindtable$??__EItemDefinitionIndexMap@@YAXXZ 100bd9fc     Autowall.obj
 0002:0001da04       __ehfuncinfo$??__EItemDefinitionIndexMap@@YAXXZ 100bda04     Autowall.obj
 0002:0001da28       __unwindtable$??__EItemDefinitionIndexMap@@YAXXZ 100bda28     Chams.obj
 0002:0001da30       __ehfuncinfo$??__EItemDefinitionIndexMap@@YAXXZ 100bda30     Chams.obj
 0002:0001da54       __ehfuncinfo$?SetupValue@CConfig@@AAEXAA_N_NV?$basic_string@DU?$char_traits@D@std@@V?$allocator@D@2@@std@@2@Z 100bda54     Configuration.obj
 0002:0001da54       __ehfuncinfo$?SetupValue@CConfig@@AAEXAAHHV?$basic_string@DU?$char_traits@D@std@@V?$allocator@D@2@@std@@1@Z 100bda54     Configuration.obj
 0002:0001da54       __ehfuncinfo$?SetupValue@CConfig@@AAEXAAMMV?$basic_string@DU?$char_traits@D@std@@V?$allocator@D@2@@std@@1@Z 100bda54     Configuration.obj
 0002:0001da78       __unwindtable$?SetupValue@CConfig@@AAEXAAMMV?$basic_string@DU?$char_traits@D@std@@V?$allocator@D@2@@std@@1@Z 100bda78     Configuration.obj
 0002:0001da78       __unwindtable$?SetupValue@CConfig@@AAEXAAHHV?$basic_string@DU?$char_traits@D@std@@V?$allocator@D@2@@std@@1@Z 100bda78     Configuration.obj
 0002:0001da78       __unwindtable$?SetupValue@CConfig@@AAEXAA_N_NV?$basic_string@DU?$char_traits@D@std@@V?$allocator@D@2@@std@@2@Z 100bda78     Configuration.obj
 0002:0001dab8       __ehfuncinfo$?Setup@CConfig@@QAEXXZ 100bdab8     Configuration.obj
 0002:0001dadc       __unwindtable$?Setup@CConfig@@QAEXXZ 100bdadc     Configuration.obj
 0002:0001e22c       __ehfuncinfo$?Save@CConfig@@QAEXXZ 100be22c     Configuration.obj
 0002:0001e250       __unwindtable$?Save@CConfig@@QAEXXZ 100be250     Configuration.obj
 0002:0001e3d0       __ehfuncinfo$?Load@CConfig@@QAEXXZ 100be3d0     Configuration.obj
 0002:0001e3f4       __unwindtable$?Load@CConfig@@QAEXXZ 100be3f4     Configuration.obj
 0002:0001e56c       __catchsym$?_Reallocate_exactly@?$vector@V?$_List_unchecked_iterator@V?$_List_val@U?$_List_simple_types@U?$pair@$$CBV?$basic_string@DU?$char_traits@D@std@@V?$allocator@D@2@@std@@UskinInfo@@@std@@@std@@@std@@@std@@V?$allocator@V?$_List_unchecked_iterator@V?$_List_val@U?$_List_simple_types@U?$pair@$$CBV?$basic_string@DU?$char_traits@D@std@@V?$allocator@D@2@@std@@UskinInfo@@@std@@@std@@@std@@@std@@@2@@std@@AAEXI@Z$2 100be56c     Configuration.obj
 0002:0001e56c       __catchsym$?_Reallocate_exactly@?$vector@V?$_List_unchecked_iterator@V?$_List_val@U?$_List_simple_types@U?$pair@$$CBV?$basic_string@DU?$char_traits@D@std@@V?$allocator@D@2@@std@@V?$set@V?$basic_string@DU?$char_traits@D@std@@V?$allocator@D@2@@std@@U?$less@V?$basic_string@DU?$char_traits@D@std@@V?$allocator@D@2@@std@@@2@V?$allocator@V?$basic_string@DU?$char_traits@D@std@@V?$allocator@D@2@@std@@@2@@2@@std@@@std@@@std@@@std@@V?$allocator@V?$_List_unchecked_iterator@V?$_List_val@U?$_List_simple_types@U?$pair@$$CBV?$basic_string@DU?$char_traits@D@std@@V?$allocator@D@2@@std@@V?$set@V?$basic_string@DU?$char_traits@D@std@@V?$allocator@D@2@@std@@U?$less@V?$basic_string@DU?$char_traits@D@std@@V?$allocator@D@2@@std@@@2@V?$allocator@V?$basic_string@DU?$char_traits@D@std@@V?$allocator@D@2@@std@@@2@@2@@std@@@std@@@std@@@std@@@2@@std@@AAEXI@Z$2 100be56c     Configuration.obj
 0002:0001e56c       __catchsym$?_Reallocate_exactly@?$vector@V?$_List_unchecked_iterator@V?$_List_val@U?$_List_simple_types@U?$pair@$$CBV?$basic_string@DU?$char_traits@D@std@@V?$allocator@D@2@@std@@V12@@std@@@std@@@std@@@std@@V?$allocator@V?$_List_unchecked_iterator@V?$_List_val@U?$_List_simple_types@U?$pair@$$CBV?$basic_string@DU?$char_traits@D@std@@V?$allocator@D@2@@std@@V12@@std@@@std@@@std@@@std@@@2@@std@@AAEXI@Z$2 100be56c     Configuration.obj
 0002:0001e56c       __catchsym$?_Reallocate_exactly@?$vector@V?$_List_unchecked_iterator@V?$_List_val@U?$_List_simple_types@U?$pair@QADPAD@std@@@std@@@std@@@std@@V?$allocator@V?$_List_unchecked_iterator@V?$_List_val@U?$_List_simple_types@U?$pair@QADPAD@std@@@std@@@std@@@std@@@2@@std@@AAEXI@Z$2 100be56c     Hooks.obj
 0002:0001e57c       __unwindtable$?_Reallocate_exactly@?$vector@V?$_List_unchecked_iterator@V?$_List_val@U?$_List_simple_types@U?$pair@$$CBV?$basic_string@DU?$char_traits@D@std@@V?$allocator@D@2@@std@@UskinInfo@@@std@@@std@@@std@@@std@@V?$allocator@V?$_List_unchecked_iterator@V?$_List_val@U?$_List_simple_types@U?$pair@$$CBV?$basic_string@DU?$char_traits@D@std@@V?$allocator@D@2@@std@@UskinInfo@@@std@@@std@@@std@@@std@@@2@@std@@AAEXI@Z 100be57c     Configuration.obj
 0002:0001e57c       __unwindtable$?_Reallocate_exactly@?$vector@V?$_List_unchecked_iterator@V?$_List_val@U?$_List_simple_types@U?$pair@$$CBV?$basic_string@DU?$char_traits@D@std@@V?$allocator@D@2@@std@@V?$set@V?$basic_string@DU?$char_traits@D@std@@V?$allocator@D@2@@std@@U?$less@V?$basic_string@DU?$char_traits@D@std@@V?$allocator@D@2@@std@@@2@V?$allocator@V?$basic_string@DU?$char_traits@D@std@@V?$allocator@D@2@@std@@@2@@2@@std@@@std@@@std@@@std@@V?$allocator@V?$_List_unchecked_iterator@V?$_List_val@U?$_List_simple_types@U?$pair@$$CBV?$basic_string@DU?$char_traits@D@std@@V?$allocator@D@2@@std@@V?$set@V?$basic_string@DU?$char_traits@D@std@@V?$allocator@D@2@@std@@U?$less@V?$basic_string@DU?$char_traits@D@std@@V?$allocator@D@2@@std@@@2@V?$allocator@V?$basic_string@DU?$char_traits@D@std@@V?$allocator@D@2@@std@@@2@@2@@std@@@std@@@std@@@std@@@2@@std@@AAEXI@Z 100be57c     Configuration.obj
 0002:0001e57c       __unwindtable$?_Reallocate_exactly@?$vector@V?$_List_unchecked_iterator@V?$_List_val@U?$_List_simple_types@U?$pair@QADPAD@std@@@std@@@std@@@std@@V?$allocator@V?$_List_unchecked_iterator@V?$_List_val@U?$_List_simple_types@U?$pair@QADPAD@std@@@std@@@std@@@std@@@2@@std@@AAEXI@Z 100be57c     Hooks.obj
 0002:0001e57c       __unwindtable$?_Reallocate_exactly@?$vector@V?$_List_unchecked_iterator@V?$_List_val@U?$_List_simple_types@U?$pair@$$CBV?$basic_string@DU?$char_traits@D@std@@V?$allocator@D@2@@std@@V12@@std@@@std@@@std@@@std@@V?$allocator@V?$_List_unchecked_iterator@V?$_List_val@U?$_List_simple_types@U?$pair@$$CBV?$basic_string@DU?$char_traits@D@std@@V?$allocator@D@2@@std@@V12@@std@@@std@@@std@@@std@@@2@@std@@AAEXI@Z 100be57c     Configuration.obj
 0002:0001e58c       __tryblocktable$?_Reallocate_exactly@?$vector@V?$_List_unchecked_iterator@V?$_List_val@U?$_List_simple_types@U?$pair@$$CBV?$basic_string@DU?$char_traits@D@std@@V?$allocator@D@2@@std@@V12@@std@@@std@@@std@@@std@@V?$allocator@V?$_List_unchecked_iterator@V?$_List_val@U?$_List_simple_types@U?$pair@$$CBV?$basic_string@DU?$char_traits@D@std@@V?$allocator@D@2@@std@@V12@@std@@@std@@@std@@@std@@@2@@std@@AAEXI@Z 100be58c     Configuration.obj
 0002:0001e58c       __tryblocktable$?_Reallocate_exactly@?$vector@V?$_List_unchecked_iterator@V?$_List_val@U?$_List_simple_types@U?$pair@$$CBV?$basic_string@DU?$char_traits@D@std@@V?$allocator@D@2@@std@@V?$set@V?$basic_string@DU?$char_traits@D@std@@V?$allocator@D@2@@std@@U?$less@V?$basic_string@DU?$char_traits@D@std@@V?$allocator@D@2@@std@@@2@V?$allocator@V?$basic_string@DU?$char_traits@D@std@@V?$allocator@D@2@@std@@@2@@2@@std@@@std@@@std@@@std@@V?$allocator@V?$_List_unchecked_iterator@V?$_List_val@U?$_List_simple_types@U?$pair@$$CBV?$basic_string@DU?$char_traits@D@std@@V?$allocator@D@2@@std@@V?$set@V?$basic_string@DU?$char_traits@D@std@@V?$allocator@D@2@@std@@U?$less@V?$basic_string@DU?$char_traits@D@std@@V?$allocator@D@2@@std@@@2@V?$allocator@V?$basic_string@DU?$char_traits@D@std@@V?$allocator@D@2@@std@@@2@@2@@std@@@std@@@std@@@std@@@2@@std@@AAEXI@Z 100be58c     Configuration.obj
 0002:0001e58c       __tryblocktable$?_Reallocate_exactly@?$vector@V?$_List_unchecked_iterator@V?$_List_val@U?$_List_simple_types@U?$pair@$$CBV?$basic_string@DU?$char_traits@D@std@@V?$allocator@D@2@@std@@UskinInfo@@@std@@@std@@@std@@@std@@V?$allocator@V?$_List_unchecked_iterator@V?$_List_val@U?$_List_simple_types@U?$pair@$$CBV?$basic_string@DU?$char_traits@D@std@@V?$allocator@D@2@@std@@UskinInfo@@@std@@@std@@@std@@@std@@@2@@std@@AAEXI@Z 100be58c     Configuration.obj
 0002:0001e58c       __tryblocktable$?_Reallocate_exactly@?$vector@V?$_List_unchecked_iterator@V?$_List_val@U?$_List_simple_types@U?$pair@QADPAD@std@@@std@@@std@@@std@@V?$allocator@V?$_List_unchecked_iterator@V?$_List_val@U?$_List_simple_types@U?$pair@QADPAD@std@@@std@@@std@@@std@@@2@@std@@AAEXI@Z 100be58c     Hooks.obj
 0002:0001e5a0       __ehfuncinfo$?_Reallocate_exactly@?$vector@V?$_List_unchecked_iterator@V?$_List_val@U?$_List_simple_types@U?$pair@$$CBV?$basic_string@DU?$char_traits@D@std@@V?$allocator@D@2@@std@@V12@@std@@@std@@@std@@@std@@V?$allocator@V?$_List_unchecked_iterator@V?$_List_val@U?$_List_simple_types@U?$pair@$$CBV?$basic_string@DU?$char_traits@D@std@@V?$allocator@D@2@@std@@V12@@std@@@std@@@std@@@std@@@2@@std@@AAEXI@Z 100be5a0     Configuration.obj
 0002:0001e5a0       __ehfuncinfo$?_Reallocate_exactly@?$vector@V?$_List_unchecked_iterator@V?$_List_val@U?$_List_simple_types@U?$pair@$$CBV?$basic_string@DU?$char_traits@D@std@@V?$allocator@D@2@@std@@V?$set@V?$basic_string@DU?$char_traits@D@std@@V?$allocator@D@2@@std@@U?$less@V?$basic_string@DU?$char_traits@D@std@@V?$allocator@D@2@@std@@@2@V?$allocator@V?$basic_string@DU?$char_traits@D@std@@V?$allocator@D@2@@std@@@2@@2@@std@@@std@@@std@@@std@@V?$allocator@V?$_List_unchecked_iterator@V?$_List_val@U?$_List_simple_types@U?$pair@$$CBV?$basic_string@DU?$char_traits@D@std@@V?$allocator@D@2@@std@@V?$set@V?$basic_string@DU?$char_traits@D@std@@V?$allocator@D@2@@std@@U?$less@V?$basic_string@DU?$char_traits@D@std@@V?$allocator@D@2@@std@@@2@V?$allocator@V?$basic_string@DU?$char_traits@D@std@@V?$allocator@D@2@@std@@@2@@2@@std@@@std@@@std@@@std@@@2@@std@@AAEXI@Z 100be5a0     Configuration.obj
 0002:0001e5a0       __ehfuncinfo$?_Reallocate_exactly@?$vector@V?$_List_unchecked_iterator@V?$_List_val@U?$_List_simple_types@U?$pair@$$CBV?$basic_string@DU?$char_traits@D@std@@V?$allocator@D@2@@std@@UskinInfo@@@std@@@std@@@std@@@std@@V?$allocator@V?$_List_unchecked_iterator@V?$_List_val@U?$_List_simple_types@U?$pair@$$CBV?$basic_string@DU?$char_traits@D@std@@V?$allocator@D@2@@std@@UskinInfo@@@std@@@std@@@std@@@std@@@2@@std@@AAEXI@Z 100be5a0     Configuration.obj
 0002:0001e5a0       __ehfuncinfo$?_Reallocate_exactly@?$vector@V?$_List_unchecked_iterator@V?$_List_val@U?$_List_simple_types@U?$pair@QADPAD@std@@@std@@@std@@@std@@V?$allocator@V?$_List_unchecked_iterator@V?$_List_val@U?$_List_simple_types@U?$pair@QADPAD@std@@@std@@@std@@@std@@@2@@std@@AAEXI@Z 100be5a0     Hooks.obj
 0002:0001e5c4       __ehfuncinfo$??0<unnamed-type-Skinchanger>@Variables@@QAE@XZ 100be5c4     Configuration.obj
 0002:0001e5e8       __unwindtable$??0<unnamed-type-Skinchanger>@Variables@@QAE@XZ 100be5e8     Configuration.obj
 0002:0001e628       __unwindtable$??__EItemDefinitionIndexMap@@YAXXZ 100be628     Configuration.obj
 0002:0001e630       __ehfuncinfo$??__EItemDefinitionIndexMap@@YAXXZ 100be630     Configuration.obj
 0002:0001e654       __unwindtable$??__EConfig@@YAXXZ 100be654     Configuration.obj
 0002:0001e674       __ehfuncinfo$??__EConfig@@YAXXZ 100be674     Configuration.obj
 0002:0001e698       __unwindtable$?SkinChanger@@YAXXZ 100be698     Hooks.obj
 0002:0001e698       __unwindtable$??__Fbuf_local@?1??GetClipboardTextFn_DefaultImpl@@YAPBDPAX@Z@YAXXZ 100be698     imgui.obj
 0002:0001e698       __unwindtable$?erase@?$_Tree@V?$_Tset_traits@V?$basic_string@DU?$char_traits@D@std@@V?$allocator@D@2@@std@@U?$less@V?$basic_string@DU?$char_traits@D@std@@V?$allocator@D@2@@std@@@2@V?$allocator@V?$basic_string@DU?$char_traits@D@std@@V?$allocator@D@2@@std@@@2@$0A@@std@@@std@@QAE?AV?$_Tree_const_iterator@V?$_Tree_val@U?$_Tree_simple_types@V?$basic_string@DU?$char_traits@D@std@@V?$allocator@D@2@@std@@@std@@@std@@@2@V32@0@Z 100be698     Configuration.obj
 0002:0001e6a0       __ehfuncinfo$?erase@?$_Tree@V?$_Tset_traits@V?$basic_string@DU?$char_traits@D@std@@V?$allocator@D@2@@std@@U?$less@V?$basic_string@DU?$char_traits@D@std@@V?$allocator@D@2@@std@@@2@V?$allocator@V?$basic_string@DU?$char_traits@D@std@@V?$allocator@D@2@@std@@@2@$0A@@std@@@std@@QAE?AV?$_Tree_const_iterator@V?$_Tree_val@U?$_Tree_simple_types@V?$basic_string@DU?$char_traits@D@std@@V?$allocator@D@2@@std@@@std@@@std@@@2@V32@0@Z 100be6a0     Configuration.obj
 0002:0001e6a0       __ehfuncinfo$?SkinChanger@@YAXXZ 100be6a0     Hooks.obj
 0002:0001e6a0       __ehfuncinfo$??__Fbuf_local@?1??GetClipboardTextFn_DefaultImpl@@YAPBDPAX@Z@YAXXZ 100be6a0     imgui.obj
 0002:0001e6c4       __unwindtable$??__EItemDefinitionIndexMap@@YAXXZ 100be6c4     DLLMain.obj
 0002:0001e6cc       __ehfuncinfo$??__EItemDefinitionIndexMap@@YAXXZ 100be6cc     DLLMain.obj
 0002:0001e6f0       __unwindtable$??__EItemDefinitionIndexMap@@YAXXZ 100be6f0     EnginePrediction.obj
 0002:0001e6f8       __ehfuncinfo$??__EItemDefinitionIndexMap@@YAXXZ 100be6f8     EnginePrediction.obj
 0002:0001e71c       __unwindtable$??__EItemDefinitionIndexMap@@YAXXZ 100be71c     ESP.obj
 0002:0001e724       __ehfuncinfo$??__EItemDefinitionIndexMap@@YAXXZ 100be724     ESP.obj
 0002:0001e748       __ehfuncinfo$?DrawInfo@visuals@@AAEXUtagRECT@@PAVC_BaseEntity@@1@Z 100be748     ESP.obj
 0002:0001e76c       __unwindtable$?DrawInfo@visuals@@AAEXUtagRECT@@PAVC_BaseEntity@@1@Z 100be76c     ESP.obj
 0002:0001e83c       __unwindtable$?NightMode@visuals@@AAEXXZ 100be83c     ESP.obj
 0002:0001e84c       __ehfuncinfo$?NightMode@visuals@@AAEXXZ 100be84c     ESP.obj
 0002:0001e870       __unwindtable$??0Text@?1??DrawInfo@visuals@@AAEXUtagRECT@@PAVC_BaseEntity@@1@Z@QAE@V?$basic_string@DU?$char_traits@D@std@@V?$allocator@D@2@@std@@HHVColor@@@Z 100be870     ESP.obj
 0002:0001e878       __ehfuncinfo$??0Text@?1??DrawInfo@visuals@@AAEXUtagRECT@@PAVC_BaseEntity@@1@Z@QAE@V?$basic_string@DU?$char_traits@D@std@@V?$allocator@D@2@@std@@HHVColor@@@Z 100be878     ESP.obj
 0002:0001e89c       __catchsym$??$emplace_back@VText@?1??DrawInfo@visuals@@AAEXUtagRECT@@PAVC_BaseEntity@@1@Z@@?$vector@VText@?1??DrawInfo@visuals@@AAEXUtagRECT@@PAVC_BaseEntity@@1@Z@V?$allocator@VText@?1??DrawInfo@visuals@@AAEXUtagRECT@@PAVC_BaseEntity@@1@Z@@std@@@std@@QAEX$$QAVText@?1??DrawInfo@visuals@@AAEXUtagRECT@@PAVC_BaseEntity@@1@Z@@Z$6 100be89c     ESP.obj
 0002:0001e8ac       __unwindtable$??$emplace_back@VText@?1??DrawInfo@visuals@@AAEXUtagRECT@@PAVC_BaseEntity@@1@Z@@?$vector@VText@?1??DrawInfo@visuals@@AAEXUtagRECT@@PAVC_BaseEntity@@1@Z@V?$allocator@VText@?1??DrawInfo@visuals@@AAEXUtagRECT@@PAVC_BaseEntity@@1@Z@@std@@@std@@QAEX$$QAVText@?1??DrawInfo@visuals@@AAEXUtagRECT@@PAVC_BaseEntity@@1@Z@@Z 100be8ac     ESP.obj
 0002:0001e8bc       __tryblocktable$??$emplace_back@VText@?1??DrawInfo@visuals@@AAEXUtagRECT@@PAVC_BaseEntity@@1@Z@@?$vector@VText@?1??DrawInfo@visuals@@AAEXUtagRECT@@PAVC_BaseEntity@@1@Z@V?$allocator@VText@?1??DrawInfo@visuals@@AAEXUtagRECT@@PAVC_BaseEntity@@1@Z@@std@@@std@@QAEX$$QAVText@?1??DrawInfo@visuals@@AAEXUtagRECT@@PAVC_BaseEntity@@1@Z@@Z 100be8bc     ESP.obj
 0002:0001e8d0       __ehfuncinfo$??$emplace_back@VText@?1??DrawInfo@visuals@@AAEXUtagRECT@@PAVC_BaseEntity@@1@Z@@?$vector@VText@?1??DrawInfo@visuals@@AAEXUtagRECT@@PAVC_BaseEntity@@1@Z@V?$allocator@VText@?1??DrawInfo@visuals@@AAEXUtagRECT@@PAVC_BaseEntity@@1@Z@@std@@@std@@QAEX$$QAVText@?1??DrawInfo@visuals@@AAEXUtagRECT@@PAVC_BaseEntity@@1@Z@@Z 100be8d0     ESP.obj
 0002:0001e8f4       __unwindtable$??__EItemDefinitionIndexMap@@YAXXZ 100be8f4     Global.obj
 0002:0001e8fc       __ehfuncinfo$??__EItemDefinitionIndexMap@@YAXXZ 100be8fc     Global.obj
 0002:0001e920       __unwindtable$??__EItemDefinitionIndexMap@@YAXXZ 100be920     GrenadePrediction.obj
 0002:0001e928       __ehfuncinfo$??__EItemDefinitionIndexMap@@YAXXZ 100be928     GrenadePrediction.obj
 0002:0001e94c       __catchsym$??$emplace_back@ABVVector@@@?$vector@VVector@@V?$allocator@VVector@@@std@@@std@@QAEXABVVector@@@Z$2 100be94c     GrenadePrediction.obj
 0002:0001e95c       __unwindtable$??$emplace_back@ABVVector@@@?$vector@VVector@@V?$allocator@VVector@@@std@@@std@@QAEXABVVector@@@Z 100be95c     GrenadePrediction.obj
 0002:0001e96c       __tryblocktable$??$emplace_back@ABVVector@@@?$vector@VVector@@V?$allocator@VVector@@@std@@@std@@QAEXABVVector@@@Z 100be96c     GrenadePrediction.obj
 0002:0001e980       __ehfuncinfo$??$emplace_back@ABVVector@@@?$vector@VVector@@V?$allocator@VVector@@@std@@@std@@QAEXABVVector@@@Z 100be980     GrenadePrediction.obj
 0002:0001e9a4       __catchsym$?unhook_all@vfunc_hook@@QAEXXZ$3 100be9a4     Hooks.obj
 0002:0001e9b4       __unwindtable$?unhook_all@vfunc_hook@@QAEXXZ 100be9b4     Hooks.obj
 0002:0001e9c4       __tryblocktable$?unhook_all@vfunc_hook@@QAEXXZ 100be9c4     Hooks.obj
 0002:0001e9d8       __ehfuncinfo$?unhook_all@vfunc_hook@@QAEXXZ 100be9d8     Hooks.obj
 0002:0001e9fc       __unwindtable$??__EItemDefinitionIndexMap@@YAXXZ 100be9fc     Hooks.obj
 0002:0001ea04       __ehfuncinfo$??__EItemDefinitionIndexMap@@YAXXZ 100bea04     Hooks.obj
 0002:0001ea28       __ehfuncinfo$?RenderInterface@@YAXXZ 100bea28     Hooks.obj
 0002:0001ea4c       __unwindtable$?RenderInterface@@YAXXZ 100bea4c     Hooks.obj
 0002:0001ea94       __ehfuncinfo$??1?$ImVector@D@@QAE@XZ 100bea94     Hooks.obj
 0002:0001ea94       __ehfuncinfo$??1_Locimp@locale@std@@MAE@XZ 100bea94     libcpmt:locale0.obj
 0002:0001ea94       __ehfuncinfo$??1?$ImVector@Ustbrp_rect@@@@QAE@XZ 100bea94     imgui_draw.obj
 0002:0001ea94       __ehfuncinfo$??1vfunc_hook@@QAE@XZ 100bea94     Utilities.obj
 0002:0001ea94       __ehfuncinfo$??1?$ImVector@M@@QAE@XZ 100bea94     imgui_draw.obj
 0002:0001ea94       __ehfuncinfo$??1?$ImVector@G@@QAE@XZ 100bea94     imgui.obj
 0002:0001ea94       __ehfuncinfo$??1?$ImVector@UImDrawVert@@@@QAE@XZ 100bea94     imgui.obj
 0002:0001ea94       __ehfuncinfo$??1?$ImVector@UImVec4@@@@QAE@XZ 100bea94     imgui.obj
 0002:0001ea94       __ehfuncinfo$??1?$ImVector@PAX@@QAE@XZ 100bea94     imgui.obj
 0002:0001ea94       __ehfuncinfo$??1?$ImVector@UImVec2@@@@QAE@XZ 100bea94     imgui.obj
 0002:0001ea94       __ehfuncinfo$??1?$ImVector@UImDrawChannel@@@@QAE@XZ 100bea94     imgui.obj
 0002:0001ea94       __ehfuncinfo$??1?$ImVector@PAUImFont@@@@QAE@XZ 100bea94     imgui.obj
 0002:0001ea94       __ehfuncinfo$??1?$ImVector@PAUImGuiWindow@@@@QAE@XZ 100bea94     imgui.obj
 0002:0001ea94       __ehfuncinfo$??1?$ImVector@UImGuiIniData@@@@QAE@XZ 100bea94     imgui.obj
 0002:0001ea94       __ehfuncinfo$??1?$ImVector@UImGuiColMod@@@@QAE@XZ 100bea94     imgui.obj
 0002:0001ea94       __ehfuncinfo$??1?$ImVector@UImGuiStyleMod@@@@QAE@XZ 100bea94     imgui.obj
 0002:0001ea94       __ehfuncinfo$??1?$ImVector@UImGuiPopupRef@@@@QAE@XZ 100bea94     imgui.obj
 0002:0001ea94       __ehfuncinfo$??1?$ImVector@PAUImDrawList@@@@QAE@XZ 100bea94     imgui.obj
 0002:0001ea94       __ehfuncinfo$??1?$ImVector@UImDrawCmd@@@@QAE@XZ 100bea94     imgui.obj
 0002:0001ea94       __ehfuncinfo$??1?$ImVector@I@@QAE@XZ 100bea94     imgui.obj
 0002:0001ea94       __ehfuncinfo$??1_Init_atexit@@QAE@XZ 100bea94     libcpmt:iosptrs.obj
 0002:0001ea94       __ehfuncinfo$??1_Locinfo@std@@QAE@XZ 100bea94     Utilities.obj
 0002:0001ea94       __ehfuncinfo$??1locale@std@@QAE@XZ 100bea94     Utilities.obj
 0002:0001ea94       __ehfuncinfo$??1?$ImVector@UGlyph@ImFont@@@@QAE@XZ 100bea94     imgui_draw.obj
 0002:0001ea94       __ehfuncinfo$??1_Fac_node@std@@QAE@XZ 100bea94     libcpmt:locale0.obj
 0002:0001eab8       __unwindtable$?CHLCreateMove@@YGXHM_NAA_N@Z 100beab8     Hooks.obj
 0002:0001ead0       __ehfuncinfo$?CHLCreateMove@@YGXHM_NAA_N@Z 100bead0     Hooks.obj
 0002:0001eaf4       __unwindtable$??__EkillIcons@@YAXXZ 100beaf4     Hooks.obj
 0002:0001eb04       __ehfuncinfo$??__EkillIcons@@YAXXZ 100beb04     Hooks.obj
 0002:0001eb28       __unwindtable$?GloveChanger@@YAXXZ 100beb28     Hooks.obj
 0002:0001eb30       __ehfuncinfo$?GloveChanger@@YAXXZ 100beb30     Hooks.obj
 0002:0001eb54       __ehfuncinfo$?hkDrawModelExecute@@YIXPAXH00ABUModelRenderInfo_t@@PAY123M@Z 100beb54     Hooks.obj
 0002:0001eb78       __unwindtable$?hkDrawModelExecute@@YIXPAXH00ABUModelRenderInfo_t@@PAY123M@Z 100beb78     Hooks.obj
 0002:0001ebb8       __unwindtable$?hkPaintTraverse@@YIXPAXHI_N1@Z 100bebb8     Hooks.obj
 0002:0001ebc8       __ehfuncinfo$?hkPaintTraverse@@YIXPAXHI_N1@Z 100bebc8     Hooks.obj
 0002:0001ebec       __unwindtable$?singleton@item_purchase@@SAPAV1@XZ 100bebec     Hooks.obj
 0002:0001ebf4       __ehfuncinfo$?singleton@item_purchase@@SAPAV1@XZ 100bebf4     Hooks.obj
 0002:0001ec18       __unwindtable$?on_fire_event@item_purchase@@QAEXPAVIGameEvent@@_N@Z 100bec18     Hooks.obj
 0002:0001ec30       __ehfuncinfo$?on_fire_event@item_purchase@@QAEXPAVIGameEvent@@_N@Z 100bec30     Hooks.obj
 0002:0001ec54       __unwindtable$??__Flog@?1??on_fire_event@item_purchase@@QAEXPAVIGameEvent@@_N@Z@YAXXZ 100bec54     Hooks.obj
 0002:0001ec64       __ehfuncinfo$??__Flog@?1??on_fire_event@item_purchase@@QAEXPAVIGameEvent@@_N@Z@YAXXZ 100bec64     Hooks.obj
 0002:0001ec88       __unwindtable$??0failure@ios_base@std@@QAE@PBDABVerror_code@2@@Z 100bec88     Utilities.obj
 0002:0001ec88       __unwindtable$?toInt@Str@valve_parser@@QAEHXZ 100bec88     Hooks.obj
 0002:0001ec88       __unwindtable$?_Endwrite@?$basic_filebuf@DU?$char_traits@D@std@@@std@@IAE_NXZ 100bec88     Utilities.obj
 0002:0001ec90       __ehfuncinfo$??0failure@ios_base@std@@QAE@PBDABVerror_code@2@@Z 100bec90     Utilities.obj
 0002:0001ec90       __ehfuncinfo$?toInt@Str@valve_parser@@QAEHXZ 100bec90     Hooks.obj
 0002:0001ec90       __ehfuncinfo$?_Endwrite@?$basic_filebuf@DU?$char_traits@D@std@@@std@@IAE_NXZ 100bec90     Utilities.obj
 0002:0001ecb4       __unwindtable$?StrEqu@Util@valve_parser@@SA_NVStr@2@PAD@Z 100becb4     Hooks.obj
 0002:0001ecbc       __ehfuncinfo$?StrEqu@Util@valve_parser@@SA_NVStr@2@PAD@Z 100becbc     Hooks.obj
 0002:0001ece0       __unwindtable$?BreadthFirstSearch@Document@valve_parser@@QAE?AV?$shared_ptr@VNode@valve_parser@@@std@@PAD_N@Z 100bece0     Hooks.obj
 0002:0001ecf8       __ehfuncinfo$?BreadthFirstSearch@Document@valve_parser@@QAE?AV?$shared_ptr@VNode@valve_parser@@@std@@PAD_N@Z 100becf8     Hooks.obj
 0002:0001ed1c       __ehfuncinfo$?BreadthFirstSearchMultiple@Document@valve_parser@@QAE?AV?$vector@V?$shared_ptr@VNode@valve_parser@@@std@@V?$allocator@V?$shared_ptr@VNode@valve_parser@@@std@@@2@@std@@PAD_N@Z 100bed1c     Hooks.obj
 0002:0001ed40       __unwindtable$?BreadthFirstSearchMultiple@Document@valve_parser@@QAE?AV?$vector@V?$shared_ptr@VNode@valve_parser@@@std@@V?$allocator@V?$shared_ptr@VNode@valve_parser@@@std@@@2@@std@@PAD_N@Z 100bed40     Hooks.obj
 0002:0001ed68       __ehfuncinfo$?ParseSkins@@YAHXZ 100bed68     Hooks.obj
 0002:0001ed8c       __unwindtable$?ParseSkins@@YAHXZ 100bed8c     Hooks.obj
 0002:0001efe4       __unwindtable$?hkPlaySound@@YGXPBD@Z 100befe4     Hooks.obj
 0002:0001efec       __ehfuncinfo$?hkPlaySound@@YGXPBD@Z 100befec     Hooks.obj
 0002:0001f010       __unwindtable$?IsConnected@@YG_NXZ 100bf010     Hooks.obj
 0002:0001f018       __ehfuncinfo$?IsConnected@@YG_NXZ 100bf018     Hooks.obj
 0002:0001f03c       __catchsym$??$_Range_construct_or_tidy@PBV?$basic_string@DU?$char_traits@D@std@@V?$allocator@D@2@@std@@@?$vector@V?$basic_string@DU?$char_traits@D@std@@V?$allocator@D@2@@std@@V?$allocator@V?$basic_string@DU?$char_traits@D@std@@V?$allocator@D@2@@std@@@2@@std@@AAEXPBV?$basic_string@DU?$char_traits@D@std@@V?$allocator@D@2@@1@0Uforward_iterator_tag@1@@Z$2 100bf03c     Hooks.obj
 0002:0001f04c       __unwindtable$??$_Range_construct_or_tidy@PBV?$basic_string@DU?$char_traits@D@std@@V?$allocator@D@2@@std@@@?$vector@V?$basic_string@DU?$char_traits@D@std@@V?$allocator@D@2@@std@@V?$allocator@V?$basic_string@DU?$char_traits@D@std@@V?$allocator@D@2@@std@@@2@@std@@AAEXPBV?$basic_string@DU?$char_traits@D@std@@V?$allocator@D@2@@1@0Uforward_iterator_tag@1@@Z 100bf04c     Hooks.obj
 0002:0001f05c       __tryblocktable$??$_Range_construct_or_tidy@PBV?$basic_string@DU?$char_traits@D@std@@V?$allocator@D@2@@std@@@?$vector@V?$basic_string@DU?$char_traits@D@std@@V?$allocator@D@2@@std@@V?$allocator@V?$basic_string@DU?$char_traits@D@std@@V?$allocator@D@2@@std@@@2@@std@@AAEXPBV?$basic_string@DU?$char_traits@D@std@@V?$allocator@D@2@@1@0Uforward_iterator_tag@1@@Z 100bf05c     Hooks.obj
 0002:0001f070       __ehfuncinfo$??$_Range_construct_or_tidy@PBV?$basic_string@DU?$char_traits@D@std@@V?$allocator@D@2@@std@@@?$vector@V?$basic_string@DU?$char_traits@D@std@@V?$allocator@D@2@@std@@V?$allocator@V?$basic_string@DU?$char_traits@D@std@@V?$allocator@D@2@@std@@@2@@std@@AAEXPBV?$basic_string@DU?$char_traits@D@std@@V?$allocator@D@2@@1@0Uforward_iterator_tag@1@@Z 100bf070     Hooks.obj
 0002:0001f094       __catchsym$??$_Insert_nohint@V?$basic_string@DU?$char_traits@D@std@@V?$allocator@D@2@@std@@U_Not_a_node_tag@2@@?$_Tree@V?$_Tset_traits@V?$basic_string@DU?$char_traits@D@std@@V?$allocator@D@2@@std@@U?$less@V?$basic_string@DU?$char_traits@D@std@@V?$allocator@D@2@@std@@@2@V?$allocator@V?$basic_string@DU?$char_traits@D@std@@V?$allocator@D@2@@std@@@2@$0A@@std@@@std@@IAE?AU?$pair@V?$_Tree_const_iterator@V?$_Tree_val@U?$_Tree_simple_types@V?$basic_string@DU?$char_traits@D@std@@V?$allocator@D@2@@std@@@std@@@std@@@std@@_N@1@_N$$QAV?$basic_string@DU?$char_traits@D@std@@V?$allocator@D@2@@1@U_Not_a_node_tag@1@@Z$2 100bf094     Hooks.obj
 0002:0001f0a4       __unwindtable$??$_Insert_nohint@V?$basic_string@DU?$char_traits@D@std@@V?$allocator@D@2@@std@@U_Not_a_node_tag@2@@?$_Tree@V?$_Tset_traits@V?$basic_string@DU?$char_traits@D@std@@V?$allocator@D@2@@std@@U?$less@V?$basic_string@DU?$char_traits@D@std@@V?$allocator@D@2@@std@@@2@V?$allocator@V?$basic_string@DU?$char_traits@D@std@@V?$allocator@D@2@@std@@@2@$0A@@std@@@std@@IAE?AU?$pair@V?$_Tree_const_iterator@V?$_Tree_val@U?$_Tree_simple_types@V?$basic_string@DU?$char_traits@D@std@@V?$allocator@D@2@@std@@@std@@@std@@@std@@_N@1@_N$$QAV?$basic_string@DU?$char_traits@D@std@@V?$allocator@D@2@@1@U_Not_a_node_tag@1@@Z 100bf0a4     Hooks.obj
 0002:0001f0b4       __tryblocktable$??$_Insert_nohint@V?$basic_string@DU?$char_traits@D@std@@V?$allocator@D@2@@std@@U_Not_a_node_tag@2@@?$_Tree@V?$_Tset_traits@V?$basic_string@DU?$char_traits@D@std@@V?$allocator@D@2@@std@@U?$less@V?$basic_string@DU?$char_traits@D@std@@V?$allocator@D@2@@std@@@2@V?$allocator@V?$basic_string@DU?$char_traits@D@std@@V?$allocator@D@2@@std@@@2@$0A@@std@@@std@@IAE?AU?$pair@V?$_Tree_const_iterator@V?$_Tree_val@U?$_Tree_simple_types@V?$basic_string@DU?$char_traits@D@std@@V?$allocator@D@2@@std@@@std@@@std@@@std@@_N@1@_N$$QAV?$basic_string@DU?$char_traits@D@std@@V?$allocator@D@2@@1@U_Not_a_node_tag@1@@Z 100bf0b4     Hooks.obj
 0002:0001f0c8       __ehfuncinfo$??$_Insert_nohint@V?$basic_string@DU?$char_traits@D@std@@V?$allocator@D@2@@std@@U_Not_a_node_tag@2@@?$_Tree@V?$_Tset_traits@V?$basic_string@DU?$char_traits@D@std@@V?$allocator@D@2@@std@@U?$less@V?$basic_string@DU?$char_traits@D@std@@V?$allocator@D@2@@std@@@2@V?$allocator@V?$basic_string@DU?$char_traits@D@std@@V?$allocator@D@2@@std@@@2@$0A@@std@@@std@@IAE?AU?$pair@V?$_Tree_const_iterator@V?$_Tree_val@U?$_Tree_simple_types@V?$basic_string@DU?$char_traits@D@std@@V?$allocator@D@2@@std@@@std@@@std@@@std@@_N@1@_N$$QAV?$basic_string@DU?$char_traits@D@std@@V?$allocator@D@2@@1@U_Not_a_node_tag@1@@Z 100bf0c8     Hooks.obj
 0002:0001f0ec       __catchsym$??$_Insert@AAU?$pair@QADPAD@std@@V?$_List_unchecked_iterator@V?$_List_val@U?$_List_simple_types@U?$pair@QADPAD@std@@@std@@@std@@@2@@?$_Hash@V?$_Umap_traits@PADPADV?$_Uhash_compare@PADU?$hash@PAD@std@@U?$equal_to@PAD@2@@std@@V?$allocator@U?$pair@QADPAD@std@@@2@$0A@@std@@@std@@IAE?AU?$pair@V?$_List_iterator@V?$_List_val@U?$_List_simple_types@U?$pair@QADPAD@std@@@std@@@std@@@std@@_N@1@AAU?$pair@QADPAD@1@V?$_List_unchecked_iterator@V?$_List_val@U?$_List_simple_types@U?$pair@QADPAD@std@@@std@@@std@@@1@@Z$4 100bf0ec     Hooks.obj
 0002:0001f0fc       __tryblocktable$??$_Insert@AAU?$pair@QADPAD@std@@V?$_List_unchecked_iterator@V?$_List_val@U?$_List_simple_types@U?$pair@QADPAD@std@@@std@@@std@@@2@@?$_Hash@V?$_Umap_traits@PADPADV?$_Uhash_compare@PADU?$hash@PAD@std@@U?$equal_to@PAD@2@@std@@V?$allocator@U?$pair@QADPAD@std@@@2@$0A@@std@@@std@@IAE?AU?$pair@V?$_List_iterator@V?$_List_val@U?$_List_simple_types@U?$pair@QADPAD@std@@@std@@@std@@@std@@_N@1@AAU?$pair@QADPAD@1@V?$_List_unchecked_iterator@V?$_List_val@U?$_List_simple_types@U?$pair@QADPAD@std@@@std@@@std@@@1@@Z 100bf0fc     Hooks.obj
 0002:0001f110       __unwindtable$??$_Insert@AAU?$pair@QADPAD@std@@V?$_List_unchecked_iterator@V?$_List_val@U?$_List_simple_types@U?$pair@QADPAD@std@@@std@@@std@@@2@@?$_Hash@V?$_Umap_traits@PADPADV?$_Uhash_compare@PADU?$hash@PAD@std@@U?$equal_to@PAD@2@@std@@V?$allocator@U?$pair@QADPAD@std@@@2@$0A@@std@@@std@@IAE?AU?$pair@V?$_List_iterator@V?$_List_val@U?$_List_simple_types@U?$pair@QADPAD@std@@@std@@@std@@@std@@_N@1@AAU?$pair@QADPAD@1@V?$_List_unchecked_iterator@V?$_List_val@U?$_List_simple_types@U?$pair@QADPAD@std@@@std@@@std@@@1@@Z 100bf110     Hooks.obj
 0002:0001f130       __ehfuncinfo$??$_Insert@AAU?$pair@QADPAD@std@@V?$_List_unchecked_iterator@V?$_List_val@U?$_List_simple_types@U?$pair@QADPAD@std@@@std@@@std@@@2@@?$_Hash@V?$_Umap_traits@PADPADV?$_Uhash_compare@PADU?$hash@PAD@std@@U?$equal_to@PAD@2@@std@@V?$allocator@U?$pair@QADPAD@std@@@2@$0A@@std@@@std@@IAE?AU?$pair@V?$_List_iterator@V?$_List_val@U?$_List_simple_types@U?$pair@QADPAD@std@@@std@@@std@@@std@@_N@1@AAU?$pair@QADPAD@1@V?$_List_unchecked_iterator@V?$_List_val@U?$_List_simple_types@U?$pair@QADPAD@std@@@std@@@std@@@1@@Z 100bf130     Hooks.obj
 0002:0001f154       __catchsym$??$_Uninitialized_copy_al_unchecked@PBV?$basic_string@DU?$char_traits@D@std@@V?$allocator@D@2@@std@@PAV12@V?$allocator@V?$basic_string@DU?$char_traits@D@std@@V?$allocator@D@2@@std@@@2@@std@@YAPAV?$basic_string@DU?$char_traits@D@std@@V?$allocator@D@2@@0@PBV10@0PAV10@AAV?$allocator@V?$basic_string@DU?$char_traits@D@std@@V?$allocator@D@2@@std@@@0@U_General_ptr_iterator_tag@0@U_Unused_parameter@0@@Z$3 100bf154     Hooks.obj
 0002:0001f164       __tryblocktable$??$_Uninitialized_copy_al_unchecked@PBV?$basic_string@DU?$char_traits@D@std@@V?$allocator@D@2@@std@@PAV12@V?$allocator@V?$basic_string@DU?$char_traits@D@std@@V?$allocator@D@2@@std@@@2@@std@@YAPAV?$basic_string@DU?$char_traits@D@std@@V?$allocator@D@2@@0@PBV10@0PAV10@AAV?$allocator@V?$basic_string@DU?$char_traits@D@std@@V?$allocator@D@2@@std@@@0@U_General_ptr_iterator_tag@0@U_Unused_parameter@0@@Z 100bf164     Hooks.obj
 0002:0001f178       __unwindtable$??$_Uninitialized_copy_al_unchecked@PBV?$basic_string@DU?$char_traits@D@std@@V?$allocator@D@2@@std@@PAV12@V?$allocator@V?$basic_string@DU?$char_traits@D@std@@V?$allocator@D@2@@std@@@2@@std@@YAPAV?$basic_string@DU?$char_traits@D@std@@V?$allocator@D@2@@0@PBV10@0PAV10@AAV?$allocator@V?$basic_string@DU?$char_traits@D@std@@V?$allocator@D@2@@std@@@0@U_General_ptr_iterator_tag@0@U_Unused_parameter@0@@Z 100bf178     Hooks.obj
 0002:0001f190       __ehfuncinfo$??$_Uninitialized_copy_al_unchecked@PBV?$basic_string@DU?$char_traits@D@std@@V?$allocator@D@2@@std@@PAV12@V?$allocator@V?$basic_string@DU?$char_traits@D@std@@V?$allocator@D@2@@std@@@2@@std@@YAPAV?$basic_string@DU?$char_traits@D@std@@V?$allocator@D@2@@0@PBV10@0PAV10@AAV?$allocator@V?$basic_string@DU?$char_traits@D@std@@V?$allocator@D@2@@std@@@0@U_General_ptr_iterator_tag@0@U_Unused_parameter@0@@Z 100bf190     Hooks.obj
 0002:0001f1b4       __catchsym$??$_Insert@AAU?$pair@$$CBV?$basic_string@DU?$char_traits@D@std@@V?$allocator@D@2@@std@@V12@@std@@V?$_List_unchecked_iterator@V?$_List_val@U?$_List_simple_types@U?$pair@$$CBV?$basic_string@DU?$char_traits@D@std@@V?$allocator@D@2@@std@@V12@@std@@@std@@@std@@@2@@?$_Hash@V?$_Umap_traits@V?$basic_string@DU?$char_traits@D@std@@V?$allocator@D@2@@std@@V12@V?$_Uhash_compare@V?$basic_string@DU?$char_traits@D@std@@V?$allocator@D@2@@std@@U?$hash@V?$basic_string@DU?$char_traits@D@std@@V?$allocator@D@2@@std@@@2@U?$equal_to@V?$basic_string@DU?$char_traits@D@std@@V?$allocator@D@2@@std@@@2@@2@V?$allocator@U?$pair@$$CBV?$basic_string@DU?$char_traits@D@std@@V?$allocator@D@2@@std@@V12@@std@@@2@$0A@@std@@@std@@IAE?AU?$pair@V?$_List_iterator@V?$_List_val@U?$_List_simple_types@U?$pair@$$CBV?$basic_string@DU?$char_traits@D@std@@V?$allocator@D@2@@std@@V12@@std@@@std@@@std@@@std@@_N@1@AAU?$pair@$$CBV?$basic_string@DU?$char_traits@D@std@@V?$allocator@D@2@@std@@V12@@1@V?$_List_unchecked_iterator@V?$_List_val@U?$_List_simple_types@U?$pair@$$CBV?$basic_string@DU?$char_traits@D@std@@V?$allocator@D@2@@std@@V12@@std@@@std@@@std@@@1@@Z$4 100bf1b4     Hooks.obj
 0002:0001f1c4       __tryblocktable$??$_Insert@AAU?$pair@$$CBV?$basic_string@DU?$char_traits@D@std@@V?$allocator@D@2@@std@@V12@@std@@V?$_List_unchecked_iterator@V?$_List_val@U?$_List_simple_types@U?$pair@$$CBV?$basic_string@DU?$char_traits@D@std@@V?$allocator@D@2@@std@@V12@@std@@@std@@@std@@@2@@?$_Hash@V?$_Umap_traits@V?$basic_string@DU?$char_traits@D@std@@V?$allocator@D@2@@std@@V12@V?$_Uhash_compare@V?$basic_string@DU?$char_traits@D@std@@V?$allocator@D@2@@std@@U?$hash@V?$basic_string@DU?$char_traits@D@std@@V?$allocator@D@2@@std@@@2@U?$equal_to@V?$basic_string@DU?$char_traits@D@std@@V?$allocator@D@2@@std@@@2@@2@V?$allocator@U?$pair@$$CBV?$basic_string@DU?$char_traits@D@std@@V?$allocator@D@2@@std@@V12@@std@@@2@$0A@@std@@@std@@IAE?AU?$pair@V?$_List_iterator@V?$_List_val@U?$_List_simple_types@U?$pair@$$CBV?$basic_string@DU?$char_traits@D@std@@V?$allocator@D@2@@std@@V12@@std@@@std@@@std@@@std@@_N@1@AAU?$pair@$$CBV?$basic_string@DU?$char_traits@D@std@@V?$allocator@D@2@@std@@V12@@1@V?$_List_unchecked_iterator@V?$_List_val@U?$_List_simple_types@U?$pair@$$CBV?$basic_string@DU?$char_traits@D@std@@V?$allocator@D@2@@std@@V12@@std@@@std@@@std@@@1@@Z 100bf1c4     Hooks.obj
 0002:0001f1d8       __unwindtable$??$_Insert@AAU?$pair@$$CBV?$basic_string@DU?$char_traits@D@std@@V?$allocator@D@2@@std@@V12@@std@@V?$_List_unchecked_iterator@V?$_List_val@U?$_List_simple_types@U?$pair@$$CBV?$basic_string@DU?$char_traits@D@std@@V?$allocator@D@2@@std@@V12@@std@@@std@@@std@@@2@@?$_Hash@V?$_Umap_traits@V?$basic_string@DU?$char_traits@D@std@@V?$allocator@D@2@@std@@V12@V?$_Uhash_compare@V?$basic_string@DU?$char_traits@D@std@@V?$allocator@D@2@@std@@U?$hash@V?$basic_string@DU?$char_traits@D@std@@V?$allocator@D@2@@std@@@2@U?$equal_to@V?$basic_string@DU?$char_traits@D@std@@V?$allocator@D@2@@std@@@2@@2@V?$allocator@U?$pair@$$CBV?$basic_string@DU?$char_traits@D@std@@V?$allocator@D@2@@std@@V12@@std@@@2@$0A@@std@@@std@@IAE?AU?$pair@V?$_List_iterator@V?$_List_val@U?$_List_simple_types@U?$pair@$$CBV?$basic_string@DU?$char_traits@D@std@@V?$allocator@D@2@@std@@V12@@std@@@std@@@std@@@std@@_N@1@AAU?$pair@$$CBV?$basic_string@DU?$char_traits@D@std@@V?$allocator@D@2@@std@@V12@@1@V?$_List_unchecked_iterator@V?$_List_val@U?$_List_simple_types@U?$pair@$$CBV?$basic_string@DU?$char_traits@D@std@@V?$allocator@D@2@@std@@V12@@std@@@std@@@std@@@1@@Z 100bf1d8     Hooks.obj
 0002:0001f1f8       __ehfuncinfo$??$_Insert@AAU?$pair@$$CBV?$basic_string@DU?$char_traits@D@std@@V?$allocator@D@2@@std@@V12@@std@@V?$_List_unchecked_iterator@V?$_List_val@U?$_List_simple_types@U?$pair@$$CBV?$basic_string@DU?$char_traits@D@std@@V?$allocator@D@2@@std@@V12@@std@@@std@@@std@@@2@@?$_Hash@V?$_Umap_traits@V?$basic_string@DU?$char_traits@D@std@@V?$allocator@D@2@@std@@V12@V?$_Uhash_compare@V?$basic_string@DU?$char_traits@D@std@@V?$allocator@D@2@@std@@U?$hash@V?$basic_string@DU?$char_traits@D@std@@V?$allocator@D@2@@std@@@2@U?$equal_to@V?$basic_string@DU?$char_traits@D@std@@V?$allocator@D@2@@std@@@2@@2@V?$allocator@U?$pair@$$CBV?$basic_string@DU?$char_traits@D@std@@V?$allocator@D@2@@std@@V12@@std@@@2@$0A@@std@@@std@@IAE?AU?$pair@V?$_List_iterator@V?$_List_val@U?$_List_simple_types@U?$pair@$$CBV?$basic_string@DU?$char_traits@D@std@@V?$allocator@D@2@@std@@V12@@std@@@std@@@std@@@std@@_N@1@AAU?$pair@$$CBV?$basic_string@DU?$char_traits@D@std@@V?$allocator@D@2@@std@@V12@@1@V?$_List_unchecked_iterator@V?$_List_val@U?$_List_simple_types@U?$pair@$$CBV?$basic_string@DU?$char_traits@D@std@@V?$allocator@D@2@@std@@V12@@std@@@std@@@std@@@1@@Z 100bf1f8     Hooks.obj
 0002:0001f21c       __catchsym$??$_Insert@AAU?$pair@$$CBV?$basic_string@DU?$char_traits@D@std@@V?$allocator@D@2@@std@@UskinInfo@@@std@@V?$_List_unchecked_iterator@V?$_List_val@U?$_List_simple_types@U?$pair@$$CBV?$basic_string@DU?$char_traits@D@std@@V?$allocator@D@2@@std@@UskinInfo@@@std@@@std@@@std@@@2@@?$_Hash@V?$_Umap_traits@V?$basic_string@DU?$char_traits@D@std@@V?$allocator@D@2@@std@@UskinInfo@@V?$_Uhash_compare@V?$basic_string@DU?$char_traits@D@std@@V?$allocator@D@2@@std@@U?$hash@V?$basic_string@DU?$char_traits@D@std@@V?$allocator@D@2@@std@@@2@U?$equal_to@V?$basic_string@DU?$char_traits@D@std@@V?$allocator@D@2@@std@@@2@@2@V?$allocator@U?$pair@$$CBV?$basic_string@DU?$char_traits@D@std@@V?$allocator@D@2@@std@@UskinInfo@@@std@@@2@$0A@@std@@@std@@IAE?AU?$pair@V?$_List_iterator@V?$_List_val@U?$_List_simple_types@U?$pair@$$CBV?$basic_string@DU?$char_traits@D@std@@V?$allocator@D@2@@std@@UskinInfo@@@std@@@std@@@std@@@std@@_N@1@AAU?$pair@$$CBV?$basic_string@DU?$char_traits@D@std@@V?$allocator@D@2@@std@@UskinInfo@@@1@V?$_List_unchecked_iterator@V?$_List_val@U?$_List_simple_types@U?$pair@$$CBV?$basic_string@DU?$char_traits@D@std@@V?$allocator@D@2@@std@@UskinInfo@@@std@@@std@@@std@@@1@@Z$4 100bf21c     Hooks.obj
 0002:0001f22c       __tryblocktable$??$_Insert@AAU?$pair@$$CBV?$basic_string@DU?$char_traits@D@std@@V?$allocator@D@2@@std@@UskinInfo@@@std@@V?$_List_unchecked_iterator@V?$_List_val@U?$_List_simple_types@U?$pair@$$CBV?$basic_string@DU?$char_traits@D@std@@V?$allocator@D@2@@std@@UskinInfo@@@std@@@std@@@std@@@2@@?$_Hash@V?$_Umap_traits@V?$basic_string@DU?$char_traits@D@std@@V?$allocator@D@2@@std@@UskinInfo@@V?$_Uhash_compare@V?$basic_string@DU?$char_traits@D@std@@V?$allocator@D@2@@std@@U?$hash@V?$basic_string@DU?$char_traits@D@std@@V?$allocator@D@2@@std@@@2@U?$equal_to@V?$basic_string@DU?$char_traits@D@std@@V?$allocator@D@2@@std@@@2@@2@V?$allocator@U?$pair@$$CBV?$basic_string@DU?$char_traits@D@std@@V?$allocator@D@2@@std@@UskinInfo@@@std@@@2@$0A@@std@@@std@@IAE?AU?$pair@V?$_List_iterator@V?$_List_val@U?$_List_simple_types@U?$pair@$$CBV?$basic_string@DU?$char_traits@D@std@@V?$allocator@D@2@@std@@UskinInfo@@@std@@@std@@@std@@@std@@_N@1@AAU?$pair@$$CBV?$basic_string@DU?$char_traits@D@std@@V?$allocator@D@2@@std@@UskinInfo@@@1@V?$_List_unchecked_iterator@V?$_List_val@U?$_List_simple_types@U?$pair@$$CBV?$basic_string@DU?$char_traits@D@std@@V?$allocator@D@2@@std@@UskinInfo@@@std@@@std@@@std@@@1@@Z 100bf22c     Hooks.obj
 0002:0001f240       __unwindtable$??$_Insert@AAU?$pair@$$CBV?$basic_string@DU?$char_traits@D@std@@V?$allocator@D@2@@std@@UskinInfo@@@std@@V?$_List_unchecked_iterator@V?$_List_val@U?$_List_simple_types@U?$pair@$$CBV?$basic_string@DU?$char_traits@D@std@@V?$allocator@D@2@@std@@UskinInfo@@@std@@@std@@@std@@@2@@?$_Hash@V?$_Umap_traits@V?$basic_string@DU?$char_traits@D@std@@V?$allocator@D@2@@std@@UskinInfo@@V?$_Uhash_compare@V?$basic_string@DU?$char_traits@D@std@@V?$allocator@D@2@@std@@U?$hash@V?$basic_string@DU?$char_traits@D@std@@V?$allocator@D@2@@std@@@2@U?$equal_to@V?$basic_string@DU?$char_traits@D@std@@V?$allocator@D@2@@std@@@2@@2@V?$allocator@U?$pair@$$CBV?$basic_string@DU?$char_traits@D@std@@V?$allocator@D@2@@std@@UskinInfo@@@std@@@2@$0A@@std@@@std@@IAE?AU?$pair@V?$_List_iterator@V?$_List_val@U?$_List_simple_types@U?$pair@$$CBV?$basic_string@DU?$char_traits@D@std@@V?$allocator@D@2@@std@@UskinInfo@@@std@@@std@@@std@@@std@@_N@1@AAU?$pair@$$CBV?$basic_string@DU?$char_traits@D@std@@V?$allocator@D@2@@std@@UskinInfo@@@1@V?$_List_unchecked_iterator@V?$_List_val@U?$_List_simple_types@U?$pair@$$CBV?$basic_string@DU?$char_traits@D@std@@V?$allocator@D@2@@std@@UskinInfo@@@std@@@std@@@std@@@1@@Z 100bf240     Hooks.obj
 0002:0001f260       __ehfuncinfo$??$_Insert@AAU?$pair@$$CBV?$basic_string@DU?$char_traits@D@std@@V?$allocator@D@2@@std@@UskinInfo@@@std@@V?$_List_unchecked_iterator@V?$_List_val@U?$_List_simple_types@U?$pair@$$CBV?$basic_string@DU?$char_traits@D@std@@V?$allocator@D@2@@std@@UskinInfo@@@std@@@std@@@std@@@2@@?$_Hash@V?$_Umap_traits@V?$basic_string@DU?$char_traits@D@std@@V?$allocator@D@2@@std@@UskinInfo@@V?$_Uhash_compare@V?$basic_string@DU?$char_traits@D@std@@V?$allocator@D@2@@std@@U?$hash@V?$basic_string@DU?$char_traits@D@std@@V?$allocator@D@2@@std@@@2@U?$equal_to@V?$basic_string@DU?$char_traits@D@std@@V?$allocator@D@2@@std@@@2@@2@V?$allocator@U?$pair@$$CBV?$basic_string@DU?$char_traits@D@std@@V?$allocator@D@2@@std@@UskinInfo@@@std@@@2@$0A@@std@@@std@@IAE?AU?$pair@V?$_List_iterator@V?$_List_val@U?$_List_simple_types@U?$pair@$$CBV?$basic_string@DU?$char_traits@D@std@@V?$allocator@D@2@@std@@UskinInfo@@@std@@@std@@@std@@@std@@_N@1@AAU?$pair@$$CBV?$basic_string@DU?$char_traits@D@std@@V?$allocator@D@2@@std@@UskinInfo@@@1@V?$_List_unchecked_iterator@V?$_List_val@U?$_List_simple_types@U?$pair@$$CBV?$basic_string@DU?$char_traits@D@std@@V?$allocator@D@2@@std@@UskinInfo@@@std@@@std@@@std@@@1@@Z 100bf260     Hooks.obj
 0002:0001f284       __catchsym$??$_Insert@AAU?$pair@$$CBV?$basic_string@DU?$char_traits@D@std@@V?$allocator@D@2@@std@@V?$set@V?$basic_string@DU?$char_traits@D@std@@V?$allocator@D@2@@std@@U?$less@V?$basic_string@DU?$char_traits@D@std@@V?$allocator@D@2@@std@@@2@V?$allocator@V?$basic_string@DU?$char_traits@D@std@@V?$allocator@D@2@@std@@@2@@2@@std@@V?$_List_unchecked_iterator@V?$_List_val@U?$_List_simple_types@U?$pair@$$CBV?$basic_string@DU?$char_traits@D@std@@V?$allocator@D@2@@std@@V?$set@V?$basic_string@DU?$char_traits@D@std@@V?$allocator@D@2@@std@@U?$less@V?$basic_string@DU?$char_traits@D@std@@V?$allocator@D@2@@std@@@2@V?$allocator@V?$basic_string@DU?$char_traits@D@std@@V?$allocator@D@2@@std@@@2@@2@@std@@@std@@@std@@@2@@?$_Hash@V?$_Umap_traits@V?$basic_string@DU?$char_traits@D@std@@V?$allocator@D@2@@std@@V?$set@V?$basic_string@DU?$char_traits@D@std@@V?$allocator@D@2@@std@@U?$less@V?$basic_string@DU?$char_traits@D@std@@V?$allocator@D@2@@std@@@2@V?$allocator@V?$basic_string@DU?$char_traits@D@std@@V?$allocator@D@2@@std@@@2@@2@V?$_Uhash_compare@V?$basic_string@DU?$char_traits@D@std@@V?$allocator@D@2@@std@@U?$hash@V?$basic_string@DU?$char_traits@D@std@@V?$allocator@D@2@@std@@@2@U?$equal_to@V?$basic_string@DU?$char_traits@D@std@@V?$allocator@D@2@@std@@@2@@2@V?$allocator@U?$pair@$$CBV?$basic_string@DU?$char_traits@D@std@@V?$allocator@D@2@@std@@V?$set@V?$basic_string@DU?$char_traits@D@std@@V?$allocator@D@2@@std@@U?$less@V?$basic_string@DU?$char_traits@D@std@@V?$allocator@D@2@@std@@@2@V?$allocator@V?$basic_string@DU?$char_traits@D@std@@V?$allocator@D@2@@std@@@2@@2@@std@@@2@$0A@@std@@@std@@IAE?AU?$pair@V?$_List_iterator@V?$_List_val@U?$_List_simple_types@U?$pair@$$CBV?$basic_string@DU?$char_traits@D@std@@V?$allocator@D@2@@std@@V?$set@V?$basic_string@DU?$char_traits@D@std@@V?$allocator@D@2@@std@@U?$less@V?$basic_string@DU?$char_traits@D@std@@V?$allocator@D@2@@std@@@2@V?$allocator@V?$basic_string@DU?$char_traits@D@std@@V?$allocator@D@2@@std@@@2@@2@@std@@@std@@@std@@@std@@_N@1@AAU?$pair@$$CBV?$basic_string@DU?$char_traits@D@std@@V?$allocator@D@2@@std@@V?$set@V?$basic_string@DU?$char_traits@D@std@@V?$allocator@D@2@@std@@U?$less@V?$basic_string@DU?$char_traits@D@std@@V?$allocator@D@2@@std@@@2@V?$allocator@V?$basic_string@DU?$char_traits@D@std@@V?$allocator@D@2@@std@@@2@@2@@1@V?$_List_unchecked_iterator@V?$_List_val@U?$_List_simple_types@U?$pair@$$CBV?$basic_string@DU?$char_traits@D@std@@V?$allocator@D@2@@std@@V?$set@V?$basic_string@DU?$char_traits@D@std@@V?$allocator@D@2@@std@@U?$less@V?$basic_string@DU?$char_traits@D@std@@V?$allocator@D@2@@std@@@2@V?$allocator@V?$basic_string@DU?$char_traits@D@std@@V?$allocator@D@2@@std@@@2@@2@@std@@@std@@@std@@@1@@Z$4 100bf284     Hooks.obj
 0002:0001f294       __tryblocktable$??$_Insert@AAU?$pair@$$CBV?$basic_string@DU?$char_traits@D@std@@V?$allocator@D@2@@std@@V?$set@V?$basic_string@DU?$char_traits@D@std@@V?$allocator@D@2@@std@@U?$less@V?$basic_string@DU?$char_traits@D@std@@V?$allocator@D@2@@std@@@2@V?$allocator@V?$basic_string@DU?$char_traits@D@std@@V?$allocator@D@2@@std@@@2@@2@@std@@V?$_List_unchecked_iterator@V?$_List_val@U?$_List_simple_types@U?$pair@$$CBV?$basic_string@DU?$char_traits@D@std@@V?$allocator@D@2@@std@@V?$set@V?$basic_string@DU?$char_traits@D@std@@V?$allocator@D@2@@std@@U?$less@V?$basic_string@DU?$char_traits@D@std@@V?$allocator@D@2@@std@@@2@V?$allocator@V?$basic_string@DU?$char_traits@D@std@@V?$allocator@D@2@@std@@@2@@2@@std@@@std@@@std@@@2@@?$_Hash@V?$_Umap_traits@V?$basic_string@DU?$char_traits@D@std@@V?$allocator@D@2@@std@@V?$set@V?$basic_string@DU?$char_traits@D@std@@V?$allocator@D@2@@std@@U?$less@V?$basic_string@DU?$char_traits@D@std@@V?$allocator@D@2@@std@@@2@V?$allocator@V?$basic_string@DU?$char_traits@D@std@@V?$allocator@D@2@@std@@@2@@2@V?$_Uhash_compare@V?$basic_string@DU?$char_traits@D@std@@V?$allocator@D@2@@std@@U?$hash@V?$basic_string@DU?$char_traits@D@std@@V?$allocator@D@2@@std@@@2@U?$equal_to@V?$basic_string@DU?$char_traits@D@std@@V?$allocator@D@2@@std@@@2@@2@V?$allocator@U?$pair@$$CBV?$basic_string@DU?$char_traits@D@std@@V?$allocator@D@2@@std@@V?$set@V?$basic_string@DU?$char_traits@D@std@@V?$allocator@D@2@@std@@U?$less@V?$basic_string@DU?$char_traits@D@std@@V?$allocator@D@2@@std@@@2@V?$allocator@V?$basic_string@DU?$char_traits@D@std@@V?$allocator@D@2@@std@@@2@@2@@std@@@2@$0A@@std@@@std@@IAE?AU?$pair@V?$_List_iterator@V?$_List_val@U?$_List_simple_types@U?$pair@$$CBV?$basic_string@DU?$char_traits@D@std@@V?$allocator@D@2@@std@@V?$set@V?$basic_string@DU?$char_traits@D@std@@V?$allocator@D@2@@std@@U?$less@V?$basic_string@DU?$char_traits@D@std@@V?$allocator@D@2@@std@@@2@V?$allocator@V?$basic_string@DU?$char_traits@D@std@@V?$allocator@D@2@@std@@@2@@2@@std@@@std@@@std@@@std@@_N@1@AAU?$pair@$$CBV?$basic_string@DU?$char_traits@D@std@@V?$allocator@D@2@@std@@V?$set@V?$basic_string@DU?$char_traits@D@std@@V?$allocator@D@2@@std@@U?$less@V?$basic_string@DU?$char_traits@D@std@@V?$allocator@D@2@@std@@@2@V?$allocator@V?$basic_string@DU?$char_traits@D@std@@V?$allocator@D@2@@std@@@2@@2@@1@V?$_List_unchecked_iterator@V?$_List_val@U?$_List_simple_types@U?$pair@$$CBV?$basic_string@DU?$char_traits@D@std@@V?$allocator@D@2@@std@@V?$set@V?$basic_string@DU?$char_traits@D@std@@V?$allocator@D@2@@std@@U?$less@V?$basic_string@DU?$char_traits@D@std@@V?$allocator@D@2@@std@@@2@V?$allocator@V?$basic_string@DU?$char_traits@D@std@@V?$allocator@D@2@@std@@@2@@2@@std@@@std@@@std@@@1@@Z 100bf294     Hooks.obj
 0002:0001f2a8       __unwindtable$??$_Insert@AAU?$pair@$$CBV?$basic_string@DU?$char_traits@D@std@@V?$allocator@D@2@@std@@V?$set@V?$basic_string@DU?$char_traits@D@std@@V?$allocator@D@2@@std@@U?$less@V?$basic_string@DU?$char_traits@D@std@@V?$allocator@D@2@@std@@@2@V?$allocator@V?$basic_string@DU?$char_traits@D@std@@V?$allocator@D@2@@std@@@2@@2@@std@@V?$_List_unchecked_iterator@V?$_List_val@U?$_List_simple_types@U?$pair@$$CBV?$basic_string@DU?$char_traits@D@std@@V?$allocator@D@2@@std@@V?$set@V?$basic_string@DU?$char_traits@D@std@@V?$allocator@D@2@@std@@U?$less@V?$basic_string@DU?$char_traits@D@std@@V?$allocator@D@2@@std@@@2@V?$allocator@V?$basic_string@DU?$char_traits@D@std@@V?$allocator@D@2@@std@@@2@@2@@std@@@std@@@std@@@2@@?$_Hash@V?$_Umap_traits@V?$basic_string@DU?$char_traits@D@std@@V?$allocator@D@2@@std@@V?$set@V?$basic_string@DU?$char_traits@D@std@@V?$allocator@D@2@@std@@U?$less@V?$basic_string@DU?$char_traits@D@std@@V?$allocator@D@2@@std@@@2@V?$allocator@V?$basic_string@DU?$char_traits@D@std@@V?$allocator@D@2@@std@@@2@@2@V?$_Uhash_compare@V?$basic_string@DU?$char_traits@D@std@@V?$allocator@D@2@@std@@U?$hash@V?$basic_string@DU?$char_traits@D@std@@V?$allocator@D@2@@std@@@2@U?$equal_to@V?$basic_string@DU?$char_traits@D@std@@V?$allocator@D@2@@std@@@2@@2@V?$allocator@U?$pair@$$CBV?$basic_string@DU?$char_traits@D@std@@V?$allocator@D@2@@std@@V?$set@V?$basic_string@DU?$char_traits@D@std@@V?$allocator@D@2@@std@@U?$less@V?$basic_string@DU?$char_traits@D@std@@V?$allocator@D@2@@std@@@2@V?$allocator@V?$basic_string@DU?$char_traits@D@std@@V?$allocator@D@2@@std@@@2@@2@@std@@@2@$0A@@std@@@std@@IAE?AU?$pair@V?$_List_iterator@V?$_List_val@U?$_List_simple_types@U?$pair@$$CBV?$basic_string@DU?$char_traits@D@std@@V?$allocator@D@2@@std@@V?$set@V?$basic_string@DU?$char_traits@D@std@@V?$allocator@D@2@@std@@U?$less@V?$basic_string@DU?$char_traits@D@std@@V?$allocator@D@2@@std@@@2@V?$allocator@V?$basic_string@DU?$char_traits@D@std@@V?$allocator@D@2@@std@@@2@@2@@std@@@std@@@std@@@std@@_N@1@AAU?$pair@$$CBV?$basic_string@DU?$char_traits@D@std@@V?$allocator@D@2@@std@@V?$set@V?$basic_string@DU?$char_traits@D@std@@V?$allocator@D@2@@std@@U?$less@V?$basic_string@DU?$char_traits@D@std@@V?$allocator@D@2@@std@@@2@V?$allocator@V?$basic_string@DU?$char_traits@D@std@@V?$allocator@D@2@@std@@@2@@2@@1@V?$_List_unchecked_iterator@V?$_List_val@U?$_List_simple_types@U?$pair@$$CBV?$basic_string@DU?$char_traits@D@std@@V?$allocator@D@2@@std@@V?$set@V?$basic_string@DU?$char_traits@D@std@@V?$allocator@D@2@@std@@U?$less@V?$basic_string@DU?$char_traits@D@std@@V?$allocator@D@2@@std@@@2@V?$allocator@V?$basic_string@DU?$char_traits@D@std@@V?$allocator@D@2@@std@@@2@@2@@std@@@std@@@std@@@1@@Z 100bf2a8     Hooks.obj
 0002:0001f2c8       __ehfuncinfo$??$_Insert@AAU?$pair@$$CBV?$basic_string@DU?$char_traits@D@std@@V?$allocator@D@2@@std@@V?$set@V?$basic_string@DU?$char_traits@D@std@@V?$allocator@D@2@@std@@U?$less@V?$basic_string@DU?$char_traits@D@std@@V?$allocator@D@2@@std@@@2@V?$allocator@V?$basic_string@DU?$char_traits@D@std@@V?$allocator@D@2@@std@@@2@@2@@std@@V?$_List_unchecked_iterator@V?$_List_val@U?$_List_simple_types@U?$pair@$$CBV?$basic_string@DU?$char_traits@D@std@@V?$allocator@D@2@@std@@V?$set@V?$basic_string@DU?$char_traits@D@std@@V?$allocator@D@2@@std@@U?$less@V?$basic_string@DU?$char_traits@D@std@@V?$allocator@D@2@@std@@@2@V?$allocator@V?$basic_string@DU?$char_traits@D@std@@V?$allocator@D@2@@std@@@2@@2@@std@@@std@@@std@@@2@@?$_Hash@V?$_Umap_traits@V?$basic_string@DU?$char_traits@D@std@@V?$allocator@D@2@@std@@V?$set@V?$basic_string@DU?$char_traits@D@std@@V?$allocator@D@2@@std@@U?$less@V?$basic_string@DU?$char_traits@D@std@@V?$allocator@D@2@@std@@@2@V?$allocator@V?$basic_string@DU?$char_traits@D@std@@V?$allocator@D@2@@std@@@2@@2@V?$_Uhash_compare@V?$basic_string@DU?$char_traits@D@std@@V?$allocator@D@2@@std@@U?$hash@V?$basic_string@DU?$char_traits@D@std@@V?$allocator@D@2@@std@@@2@U?$equal_to@V?$basic_string@DU?$char_traits@D@std@@V?$allocator@D@2@@std@@@2@@2@V?$allocator@U?$pair@$$CBV?$basic_string@DU?$char_traits@D@std@@V?$allocator@D@2@@std@@V?$set@V?$basic_string@DU?$char_traits@D@std@@V?$allocator@D@2@@std@@U?$less@V?$basic_string@DU?$char_traits@D@std@@V?$allocator@D@2@@std@@@2@V?$allocator@V?$basic_string@DU?$char_traits@D@std@@V?$allocator@D@2@@std@@@2@@2@@std@@@2@$0A@@std@@@std@@IAE?AU?$pair@V?$_List_iterator@V?$_List_val@U?$_List_simple_types@U?$pair@$$CBV?$basic_string@DU?$char_traits@D@std@@V?$allocator@D@2@@std@@V?$set@V?$basic_string@DU?$char_traits@D@std@@V?$allocator@D@2@@std@@U?$less@V?$basic_string@DU?$char_traits@D@std@@V?$allocator@D@2@@std@@@2@V?$allocator@V?$basic_string@DU?$char_traits@D@std@@V?$allocator@D@2@@std@@@2@@2@@std@@@std@@@std@@@std@@_N@1@AAU?$pair@$$CBV?$basic_string@DU?$char_traits@D@std@@V?$allocator@D@2@@std@@V?$set@V?$basic_string@DU?$char_traits@D@std@@V?$allocator@D@2@@std@@U?$less@V?$basic_string@DU?$char_traits@D@std@@V?$allocator@D@2@@std@@@2@V?$allocator@V?$basic_string@DU?$char_traits@D@std@@V?$allocator@D@2@@std@@@2@@2@@1@V?$_List_unchecked_iterator@V?$_List_val@U?$_List_simple_types@U?$pair@$$CBV?$basic_string@DU?$char_traits@D@std@@V?$allocator@D@2@@std@@V?$set@V?$basic_string@DU?$char_traits@D@std@@V?$allocator@D@2@@std@@U?$less@V?$basic_string@DU?$char_traits@D@std@@V?$allocator@D@2@@std@@@2@V?$allocator@V?$basic_string@DU?$char_traits@D@std@@V?$allocator@D@2@@std@@@2@@2@@std@@@std@@@std@@@1@@Z 100bf2c8     Hooks.obj
 0002:0001f2ec       __catchsym$??$_Buynode@ABUpiecewise_construct_t@std@@V?$tuple@ABV?$basic_string@DU?$char_traits@D@std@@V?$allocator@D@2@@std@@@2@V?$tuple@$$V@2@@?$_List_buy@U?$pair@$$CBV?$basic_string@DU?$char_traits@D@std@@V?$allocator@D@2@@std@@V12@@std@@V?$allocator@U?$pair@$$CBV?$basic_string@DU?$char_traits@D@std@@V?$allocator@D@2@@std@@V12@@std@@@2@@std@@QAEPAU?$_List_node@U?$pair@$$CBV?$basic_string@DU?$char_traits@D@std@@V?$allocator@D@2@@std@@V12@@std@@PAX@1@PAU21@0ABUpiecewise_construct_t@1@$$QAV?$tuple@ABV?$basic_string@DU?$char_traits@D@std@@V?$allocator@D@2@@std@@@1@$$QAV?$tuple@$$V@1@@Z$7 100bf2ec     Hooks.obj
 0002:0001f2fc       __tryblocktable$??$_Buynode@ABUpiecewise_construct_t@std@@V?$tuple@ABV?$basic_string@DU?$char_traits@D@std@@V?$allocator@D@2@@std@@@2@V?$tuple@$$V@2@@?$_List_buy@U?$pair@$$CBV?$basic_string@DU?$char_traits@D@std@@V?$allocator@D@2@@std@@V12@@std@@V?$allocator@U?$pair@$$CBV?$basic_string@DU?$char_traits@D@std@@V?$allocator@D@2@@std@@V12@@std@@@2@@std@@QAEPAU?$_List_node@U?$pair@$$CBV?$basic_string@DU?$char_traits@D@std@@V?$allocator@D@2@@std@@V12@@std@@PAX@1@PAU21@0ABUpiecewise_construct_t@1@$$QAV?$tuple@ABV?$basic_string@DU?$char_traits@D@std@@V?$allocator@D@2@@std@@@1@$$QAV?$tuple@$$V@1@@Z 100bf2fc     Hooks.obj
 0002:0001f310       __unwindtable$??$_Buynode@ABUpiecewise_construct_t@std@@V?$tuple@ABV?$basic_string@DU?$char_traits@D@std@@V?$allocator@D@2@@std@@@2@V?$tuple@$$V@2@@?$_List_buy@U?$pair@$$CBV?$basic_string@DU?$char_traits@D@std@@V?$allocator@D@2@@std@@V12@@std@@V?$allocator@U?$pair@$$CBV?$basic_string@DU?$char_traits@D@std@@V?$allocator@D@2@@std@@V12@@std@@@2@@std@@QAEPAU?$_List_node@U?$pair@$$CBV?$basic_string@DU?$char_traits@D@std@@V?$allocator@D@2@@std@@V12@@std@@PAX@1@PAU21@0ABUpiecewise_construct_t@1@$$QAV?$tuple@ABV?$basic_string@DU?$char_traits@D@std@@V?$allocator@D@2@@std@@@1@$$QAV?$tuple@$$V@1@@Z 100bf310     Hooks.obj
 0002:0001f328       __ehfuncinfo$??$_Buynode@ABUpiecewise_construct_t@std@@V?$tuple@ABV?$basic_string@DU?$char_traits@D@std@@V?$allocator@D@2@@std@@@2@V?$tuple@$$V@2@@?$_List_buy@U?$pair@$$CBV?$basic_string@DU?$char_traits@D@std@@V?$allocator@D@2@@std@@V12@@std@@V?$allocator@U?$pair@$$CBV?$basic_string@DU?$char_traits@D@std@@V?$allocator@D@2@@std@@V12@@std@@@2@@std@@QAEPAU?$_List_node@U?$pair@$$CBV?$basic_string@DU?$char_traits@D@std@@V?$allocator@D@2@@std@@V12@@std@@PAX@1@PAU21@0ABUpiecewise_construct_t@1@$$QAV?$tuple@ABV?$basic_string@DU?$char_traits@D@std@@V?$allocator@D@2@@std@@@1@$$QAV?$tuple@$$V@1@@Z 100bf328     Hooks.obj
 0002:0001f34c       __catchsym$??$_Buynode@ABUpiecewise_construct_t@std@@V?$tuple@ABV?$basic_string@DU?$char_traits@D@std@@V?$allocator@D@2@@std@@@2@V?$tuple@$$V@2@@?$_List_buy@U?$pair@$$CBV?$basic_string@DU?$char_traits@D@std@@V?$allocator@D@2@@std@@UskinInfo@@@std@@V?$allocator@U?$pair@$$CBV?$basic_string@DU?$char_traits@D@std@@V?$allocator@D@2@@std@@UskinInfo@@@std@@@2@@std@@QAEPAU?$_List_node@U?$pair@$$CBV?$basic_string@DU?$char_traits@D@std@@V?$allocator@D@2@@std@@UskinInfo@@@std@@PAX@1@PAU21@0ABUpiecewise_construct_t@1@$$QAV?$tuple@ABV?$basic_string@DU?$char_traits@D@std@@V?$allocator@D@2@@std@@@1@$$QAV?$tuple@$$V@1@@Z$8 100bf34c     Hooks.obj
 0002:0001f35c       __tryblocktable$??$_Buynode@ABUpiecewise_construct_t@std@@V?$tuple@ABV?$basic_string@DU?$char_traits@D@std@@V?$allocator@D@2@@std@@@2@V?$tuple@$$V@2@@?$_List_buy@U?$pair@$$CBV?$basic_string@DU?$char_traits@D@std@@V?$allocator@D@2@@std@@UskinInfo@@@std@@V?$allocator@U?$pair@$$CBV?$basic_string@DU?$char_traits@D@std@@V?$allocator@D@2@@std@@UskinInfo@@@std@@@2@@std@@QAEPAU?$_List_node@U?$pair@$$CBV?$basic_string@DU?$char_traits@D@std@@V?$allocator@D@2@@std@@UskinInfo@@@std@@PAX@1@PAU21@0ABUpiecewise_construct_t@1@$$QAV?$tuple@ABV?$basic_string@DU?$char_traits@D@std@@V?$allocator@D@2@@std@@@1@$$QAV?$tuple@$$V@1@@Z 100bf35c     Hooks.obj
 0002:0001f370       __unwindtable$??$_Buynode@ABUpiecewise_construct_t@std@@V?$tuple@ABV?$basic_string@DU?$char_traits@D@std@@V?$allocator@D@2@@std@@@2@V?$tuple@$$V@2@@?$_List_buy@U?$pair@$$CBV?$basic_string@DU?$char_traits@D@std@@V?$allocator@D@2@@std@@UskinInfo@@@std@@V?$allocator@U?$pair@$$CBV?$basic_string@DU?$char_traits@D@std@@V?$allocator@D@2@@std@@UskinInfo@@@std@@@2@@std@@QAEPAU?$_List_node@U?$pair@$$CBV?$basic_string@DU?$char_traits@D@std@@V?$allocator@D@2@@std@@UskinInfo@@@std@@PAX@1@PAU21@0ABUpiecewise_construct_t@1@$$QAV?$tuple@ABV?$basic_string@DU?$char_traits@D@std@@V?$allocator@D@2@@std@@@1@$$QAV?$tuple@$$V@1@@Z 100bf370     Hooks.obj
 0002:0001f388       __ehfuncinfo$??$_Buynode@ABUpiecewise_construct_t@std@@V?$tuple@ABV?$basic_string@DU?$char_traits@D@std@@V?$allocator@D@2@@std@@@2@V?$tuple@$$V@2@@?$_List_buy@U?$pair@$$CBV?$basic_string@DU?$char_traits@D@std@@V?$allocator@D@2@@std@@UskinInfo@@@std@@V?$allocator@U?$pair@$$CBV?$basic_string@DU?$char_traits@D@std@@V?$allocator@D@2@@std@@UskinInfo@@@std@@@2@@std@@QAEPAU?$_List_node@U?$pair@$$CBV?$basic_string@DU?$char_traits@D@std@@V?$allocator@D@2@@std@@UskinInfo@@@std@@PAX@1@PAU21@0ABUpiecewise_construct_t@1@$$QAV?$tuple@ABV?$basic_string@DU?$char_traits@D@std@@V?$allocator@D@2@@std@@@1@$$QAV?$tuple@$$V@1@@Z 100bf388     Hooks.obj
 0002:0001f3ac       __catchsym$??$_Buynode@ABUpiecewise_construct_t@std@@V?$tuple@ABV?$basic_string@DU?$char_traits@D@std@@V?$allocator@D@2@@std@@@2@V?$tuple@$$V@2@@?$_List_buy@U?$pair@$$CBV?$basic_string@DU?$char_traits@D@std@@V?$allocator@D@2@@std@@V?$set@V?$basic_string@DU?$char_traits@D@std@@V?$allocator@D@2@@std@@U?$less@V?$basic_string@DU?$char_traits@D@std@@V?$allocator@D@2@@std@@@2@V?$allocator@V?$basic_string@DU?$char_traits@D@std@@V?$allocator@D@2@@std@@@2@@2@@std@@V?$allocator@U?$pair@$$CBV?$basic_string@DU?$char_traits@D@std@@V?$allocator@D@2@@std@@V?$set@V?$basic_string@DU?$char_traits@D@std@@V?$allocator@D@2@@std@@U?$less@V?$basic_string@DU?$char_traits@D@std@@V?$allocator@D@2@@std@@@2@V?$allocator@V?$basic_string@DU?$char_traits@D@std@@V?$allocator@D@2@@std@@@2@@2@@std@@@2@@std@@QAEPAU?$_List_node@U?$pair@$$CBV?$basic_string@DU?$char_traits@D@std@@V?$allocator@D@2@@std@@V?$set@V?$basic_string@DU?$char_traits@D@std@@V?$allocator@D@2@@std@@U?$less@V?$basic_string@DU?$char_traits@D@std@@V?$allocator@D@2@@std@@@2@V?$allocator@V?$basic_string@DU?$char_traits@D@std@@V?$allocator@D@2@@std@@@2@@2@@std@@PAX@1@PAU21@0ABUpiecewise_construct_t@1@$$QAV?$tuple@ABV?$basic_string@DU?$char_traits@D@std@@V?$allocator@D@2@@std@@@1@$$QAV?$tuple@$$V@1@@Z$8 100bf3ac     Hooks.obj
 0002:0001f3bc       __tryblocktable$??$_Buynode@ABUpiecewise_construct_t@std@@V?$tuple@ABV?$basic_string@DU?$char_traits@D@std@@V?$allocator@D@2@@std@@@2@V?$tuple@$$V@2@@?$_List_buy@U?$pair@$$CBV?$basic_string@DU?$char_traits@D@std@@V?$allocator@D@2@@std@@V?$set@V?$basic_string@DU?$char_traits@D@std@@V?$allocator@D@2@@std@@U?$less@V?$basic_string@DU?$char_traits@D@std@@V?$allocator@D@2@@std@@@2@V?$allocator@V?$basic_string@DU?$char_traits@D@std@@V?$allocator@D@2@@std@@@2@@2@@std@@V?$allocator@U?$pair@$$CBV?$basic_string@DU?$char_traits@D@std@@V?$allocator@D@2@@std@@V?$set@V?$basic_string@DU?$char_traits@D@std@@V?$allocator@D@2@@std@@U?$less@V?$basic_string@DU?$char_traits@D@std@@V?$allocator@D@2@@std@@@2@V?$allocator@V?$basic_string@DU?$char_traits@D@std@@V?$allocator@D@2@@std@@@2@@2@@std@@@2@@std@@QAEPAU?$_List_node@U?$pair@$$CBV?$basic_string@DU?$char_traits@D@std@@V?$allocator@D@2@@std@@V?$set@V?$basic_string@DU?$char_traits@D@std@@V?$allocator@D@2@@std@@U?$less@V?$basic_string@DU?$char_traits@D@std@@V?$allocator@D@2@@std@@@2@V?$allocator@V?$basic_string@DU?$char_traits@D@std@@V?$allocator@D@2@@std@@@2@@2@@std@@PAX@1@PAU21@0ABUpiecewise_construct_t@1@$$QAV?$tuple@ABV?$basic_string@DU?$char_traits@D@std@@V?$allocator@D@2@@std@@@1@$$QAV?$tuple@$$V@1@@Z 100bf3bc     Hooks.obj
 0002:0001f3d0       __unwindtable$??$_Buynode@ABUpiecewise_construct_t@std@@V?$tuple@ABV?$basic_string@DU?$char_traits@D@std@@V?$allocator@D@2@@std@@@2@V?$tuple@$$V@2@@?$_List_buy@U?$pair@$$CBV?$basic_string@DU?$char_traits@D@std@@V?$allocator@D@2@@std@@V?$set@V?$basic_string@DU?$char_traits@D@std@@V?$allocator@D@2@@std@@U?$less@V?$basic_string@DU?$char_traits@D@std@@V?$allocator@D@2@@std@@@2@V?$allocator@V?$basic_string@DU?$char_traits@D@std@@V?$allocator@D@2@@std@@@2@@2@@std@@V?$allocator@U?$pair@$$CBV?$basic_string@DU?$char_traits@D@std@@V?$allocator@D@2@@std@@V?$set@V?$basic_string@DU?$char_traits@D@std@@V?$allocator@D@2@@std@@U?$less@V?$basic_string@DU?$char_traits@D@std@@V?$allocator@D@2@@std@@@2@V?$allocator@V?$basic_string@DU?$char_traits@D@std@@V?$allocator@D@2@@std@@@2@@2@@std@@@2@@std@@QAEPAU?$_List_node@U?$pair@$$CBV?$basic_string@DU?$char_traits@D@std@@V?$allocator@D@2@@std@@V?$set@V?$basic_string@DU?$char_traits@D@std@@V?$allocator@D@2@@std@@U?$less@V?$basic_string@DU?$char_traits@D@std@@V?$allocator@D@2@@std@@@2@V?$allocator@V?$basic_string@DU?$char_traits@D@std@@V?$allocator@D@2@@std@@@2@@2@@std@@PAX@1@PAU21@0ABUpiecewise_construct_t@1@$$QAV?$tuple@ABV?$basic_string@DU?$char_traits@D@std@@V?$allocator@D@2@@std@@@1@$$QAV?$tuple@$$V@1@@Z 100bf3d0     Hooks.obj
 0002:0001f3f0       __ehfuncinfo$??$_Buynode@ABUpiecewise_construct_t@std@@V?$tuple@ABV?$basic_string@DU?$char_traits@D@std@@V?$allocator@D@2@@std@@@2@V?$tuple@$$V@2@@?$_List_buy@U?$pair@$$CBV?$basic_string@DU?$char_traits@D@std@@V?$allocator@D@2@@std@@V?$set@V?$basic_string@DU?$char_traits@D@std@@V?$allocator@D@2@@std@@U?$less@V?$basic_string@DU?$char_traits@D@std@@V?$allocator@D@2@@std@@@2@V?$allocator@V?$basic_string@DU?$char_traits@D@std@@V?$allocator@D@2@@std@@@2@@2@@std@@V?$allocator@U?$pair@$$CBV?$basic_string@DU?$char_traits@D@std@@V?$allocator@D@2@@std@@V?$set@V?$basic_string@DU?$char_traits@D@std@@V?$allocator@D@2@@std@@U?$less@V?$basic_string@DU?$char_traits@D@std@@V?$allocator@D@2@@std@@@2@V?$allocator@V?$basic_string@DU?$char_traits@D@std@@V?$allocator@D@2@@std@@@2@@2@@std@@@2@@std@@QAEPAU?$_List_node@U?$pair@$$CBV?$basic_string@DU?$char_traits@D@std@@V?$allocator@D@2@@std@@V?$set@V?$basic_string@DU?$char_traits@D@std@@V?$allocator@D@2@@std@@U?$less@V?$basic_string@DU?$char_traits@D@std@@V?$allocator@D@2@@std@@@2@V?$allocator@V?$basic_string@DU?$char_traits@D@std@@V?$allocator@D@2@@std@@@2@@2@@std@@PAX@1@PAU21@0ABUpiecewise_construct_t@1@$$QAV?$tuple@ABV?$basic_string@DU?$char_traits@D@std@@V?$allocator@D@2@@std@@@1@$$QAV?$tuple@$$V@1@@Z 100bf3f0     Hooks.obj
 0002:0001f468       __unwindtable$?NewFrame@ImGui@@YAXXZ 100bf468     imgui.obj
 0002:0001f478       __ehfuncinfo$?NewFrame@ImGui@@YAXXZ 100bf478     imgui.obj
 0002:0001f49c       __ehfuncinfo$??0ImDrawList@@QAE@XZ 100bf49c     imgui.obj
 0002:0001f4c0       __unwindtable$??0ImDrawList@@QAE@XZ 100bf4c0     imgui.obj
 0002:0001f4f8       __ehfuncinfo$??1ImGuiDrawContext@@QAE@XZ 100bf4f8     imgui.obj
 0002:0001f4f8       __ehfuncinfo$??1ImDrawList@@QAE@XZ 100bf4f8     imgui.obj
 0002:0001f51c       __unwindtable$??1ImDrawList@@QAE@XZ 100bf51c     imgui.obj
 0002:0001f51c       __unwindtable$??1ImGuiDrawContext@@QAE@XZ 100bf51c     imgui.obj
 0002:0001f554       __unwindtable$?ImFileOpen@@YAPAU_iobuf@@PBD0@Z 100bf554     imgui.obj
 0002:0001f564       __ehfuncinfo$?ImFileOpen@@YAPAU_iobuf@@PBD0@Z 100bf564     imgui.obj
 0002:0001f588       __unwindtable$??1ImGuiTextEditState@@QAE@XZ 100bf588     imgui.obj
 0002:0001f588       __unwindtable$??1ImFont@@QAE@XZ 100bf588     imgui_draw.obj
 0002:0001f5a0       __ehfuncinfo$??1ImGuiTextEditState@@QAE@XZ 100bf5a0     imgui.obj
 0002:0001f5a0       __ehfuncinfo$??1ImFont@@QAE@XZ 100bf5a0     imgui_draw.obj
 0002:0001f5c4       __ehfuncinfo$??0ImGuiContext@@QAE@XZ 100bf5c4     imgui.obj
 0002:0001f5e8       __unwindtable$??0ImGuiContext@@QAE@XZ 100bf5e8     imgui.obj
 0002:0001f648       __ehfuncinfo$??1ImGuiContext@@QAE@XZ 100bf648     imgui.obj
 0002:0001f66c       __unwindtable$??1ImGuiContext@@QAE@XZ 100bf66c     imgui.obj
 0002:0001f6bc       __unwindtable$??0ImGuiWindow@@QAE@PBD@Z 100bf6bc     imgui.obj
 0002:0001f6dc       __ehfuncinfo$??0ImGuiWindow@@QAE@PBD@Z 100bf6dc     imgui.obj
 0002:0001f700       __unwindtable$?CreateNewWindow@@YAPAUImGuiWindow@@PBDUImVec2@@H@Z 100bf700     imgui.obj
 0002:0001f708       __ehfuncinfo$?CreateNewWindow@@YAPAUImGuiWindow@@PBDUImVec2@@H@Z 100bf708     imgui.obj
 0002:0001f72c       __ehfuncinfo$??1ImFontAtlas@@QAE@XZ 100bf72c     imgui_draw.obj
 0002:0001f750       __unwindtable$??1ImFontAtlas@@QAE@XZ 100bf750     imgui_draw.obj
 0002:0001f780       __unwindtable$?AddFont@ImFontAtlas@@QAEPAUImFont@@PBUImFontConfig@@@Z 100bf780     imgui_draw.obj
 0002:0001f7a0       __ehfuncinfo$?AddFont@ImFontAtlas@@QAEPAUImFont@@PBUImFontConfig@@@Z 100bf7a0     imgui_draw.obj
 0002:0001f7c4       __unwindtable$?Build@ImFontAtlas@@QAE_NXZ 100bf7c4     imgui_draw.obj
 0002:0001f7d4       __ehfuncinfo$?Build@ImFontAtlas@@QAE_NXZ 100bf7d4     imgui_draw.obj
 0002:0001f7f8       __unwindtable$??0ImFont@@QAE@XZ 100bf7f8     imgui_draw.obj
 0002:0001f810       __ehfuncinfo$??0ImFont@@QAE@XZ 100bf810     imgui_draw.obj
 0002:0001f834       __unwindtable$??__EItemDefinitionIndexMap@@YAXXZ 100bf834     Interfaces.obj
 0002:0001f83c       __ehfuncinfo$??__EItemDefinitionIndexMap@@YAXXZ 100bf83c     Interfaces.obj
 0002:0001f860       __unwindtable$?InitialiseInterfaces@@YAXXZ 100bf860     Interfaces.obj
 0002:0001f870       __ehfuncinfo$?InitialiseInterfaces@@YAXXZ 100bf870     Interfaces.obj
 0002:0001f894       __unwindtable$??__EItemDefinitionIndexMap@@YAXXZ 100bf894     LagComp.obj
 0002:0001f89c       __ehfuncinfo$??__EItemDefinitionIndexMap@@YAXXZ 100bf89c     LagComp.obj
 0002:0001f8c0       __unwindtable$??__EItemDefinitionIndexMap@@YAXXZ 100bf8c0     LegitBot.obj
 0002:0001f8c8       __ehfuncinfo$??__EItemDefinitionIndexMap@@YAXXZ 100bf8c8     LegitBot.obj
 0002:0001f8ec       __unwindtable$?m_iShotsFired@C_BaseEntity@@QAEHXZ 100bf8ec     LegitBot.obj
 0002:0001f8f4       __ehfuncinfo$?m_iShotsFired@C_BaseEntity@@QAEHXZ 100bf8f4     LegitBot.obj
 0002:0001f918       __unwindtable$?get_hitbox@legitbot@@AAE_NPAVC_BaseEntity@@0AAVVector@@@Z 100bf918     LegitBot.obj
 0002:0001f920       __ehfuncinfo$?get_hitbox@legitbot@@AAE_NPAVC_BaseEntity@@0AAVVector@@@Z 100bf920     LegitBot.obj
 0002:0001f944       __unwindtable$?get_target@legitbot@@AAEHPAVC_BaseEntity@@PAVCBaseCombatWeapon@@PAVCUserCmd@CInput@@AAVVector@@@Z 100bf944     LegitBot.obj
 0002:0001f94c       __ehfuncinfo$?get_target@legitbot@@AAEHPAVC_BaseEntity@@PAVCBaseCombatWeapon@@PAVCUserCmd@CInput@@AAVVector@@@Z 100bf94c     LegitBot.obj
 0002:0001f970       __unwindtable$??__EItemDefinitionIndexMap@@YAXXZ 100bf970     memesets.obj
 0002:0001f978       __ehfuncinfo$??__EItemDefinitionIndexMap@@YAXXZ 100bf978     memesets.obj
 0002:0001f99c       __unwindtable$??__EItemDefinitionIndexMap@@YAXXZ 100bf99c     Misc.obj
 0002:0001f9a4       __ehfuncinfo$??__EItemDefinitionIndexMap@@YAXXZ 100bf9a4     Misc.obj
 0002:0001f9c8       __unwindtable$?OnCreateMove@misc@@QAEXPAVCUserCmd@CInput@@PAVC_BaseEntity@@AA_N@Z 100bf9c8     Misc.obj
 0002:0001f9d0       __ehfuncinfo$?OnCreateMove@misc@@QAEXPAVCUserCmd@CInput@@PAVC_BaseEntity@@AA_N@Z 100bf9d0     Misc.obj
 0002:0001f9f4       __unwindtable$?logsrun@misc@@QAEXXZ 100bf9f4     Misc.obj
 0002:0001fa14       __ehfuncinfo$?logsrun@misc@@QAEXXZ 100bfa14     Misc.obj
 0002:0001fa38       __unwindtable$?logsrun2@misc@@QAEXXZ 100bfa38     Misc.obj
 0002:0001fa58       __ehfuncinfo$?logsrun2@misc@@QAEXXZ 100bfa58     Misc.obj
 0002:0001fa7c       __unwindtable$?setclantag@@YAXPBD@Z 100bfa7c     Misc.obj
 0002:0001fa8c       __ehfuncinfo$?setclantag@@YAXPBD@Z 100bfa8c     Misc.obj
 0002:0001fab0       __unwindtable$??__EItemDefinitionIndexMap@@YAXXZ 100bfab0     NetVarManager.obj
 0002:0001fab8       __ehfuncinfo$??__EItemDefinitionIndexMap@@YAXXZ 100bfab8     NetVarManager.obj
 0002:0001fadc       __unwindtable$??__EItemDefinitionIndexMap@@YAXXZ 100bfadc     RageBot.obj
 0002:0001fae4       __ehfuncinfo$??__EItemDefinitionIndexMap@@YAXXZ 100bfae4     RageBot.obj
 0002:0001fb08       __unwindtable$?HitScan@ragebot@@AAEHPAVC_BaseEntity@@@Z 100bfb08     RageBot.obj
 0002:0001fb18       __ehfuncinfo$?HitScan@ragebot@@AAEHPAVC_BaseEntity@@@Z 100bfb18     RageBot.obj
 0002:0001fb3c       __unwindtable$?DoAimbot@ragebot@@AAEXPAVCUserCmd@CInput@@AA_N@Z 100bfb3c     RageBot.obj
 0002:0001fb44       __ehfuncinfo$?DoAimbot@ragebot@@AAEXPAVCUserCmd@CInput@@AA_N@Z 100bfb44     RageBot.obj
 0002:0001fb68       __unwindtable$??__EItemDefinitionIndexMap@@YAXXZ 100bfb68     Render.obj
 0002:0001fb70       __ehfuncinfo$??__EItemDefinitionIndexMap@@YAXXZ 100bfb70     Render.obj
 0002:0001fb94       __unwindtable$??__EItemDefinitionIndexMap@@YAXXZ 100bfb94     SpoofedConvar.obj
 0002:0001fb9c       __ehfuncinfo$??__EItemDefinitionIndexMap@@YAXXZ 100bfb9c     SpoofedConvar.obj
 0002:0001fbc0       __unwindtable$??__EItemDefinitionIndexMap@@YAXXZ 100bfbc0     MiscFunctions.obj
 0002:0001fbc8       __ehfuncinfo$??__EItemDefinitionIndexMap@@YAXXZ 100bfbc8     MiscFunctions.obj
 0002:0001fbec       __unwindtable$?TraceToExit@@YA_NAAVVector@@AAVCGameTrace@@V1@2PAV2@@Z 100bfbec     MiscFunctions.obj
 0002:0001fbf4       __ehfuncinfo$?TraceToExit@@YA_NAAVVector@@AAVCGameTrace@@V1@2PAV2@@Z 100bfbf4     MiscFunctions.obj
 0002:0001fc18       __ehfuncinfo$??0_Locinfo@std@@QAE@PBD@Z 100bfc18     Utilities.obj
 0002:0001fc3c       __unwindtable$??0_Locinfo@std@@QAE@PBD@Z 100bfc3c     Utilities.obj
 0002:0001fc74       __unwindtable$??$use_facet@V?$ctype@D@std@@@std@@YAABV?$ctype@D@0@ABVlocale@0@@Z 100bfc74     Utilities.obj
 0002:0001fc84       __ehfuncinfo$??$use_facet@V?$ctype@D@std@@@std@@YAABV?$ctype@D@0@ABVlocale@0@@Z 100bfc84     Utilities.obj
 0002:0001fca8       __unwindtable$?_Makestr@_System_error@std@@CA?AV?$basic_string@DU?$char_traits@D@std@@V?$allocator@D@2@@2@Verror_code@2@V32@@Z 100bfca8     Utilities.obj
 0002:0001fcb8       __ehfuncinfo$?_Makestr@_System_error@std@@CA?AV?$basic_string@DU?$char_traits@D@std@@V?$allocator@D@2@@2@Verror_code@2@V32@@Z 100bfcb8     Utilities.obj
 0002:0001fcdc       __unwindtable$?FindPattern@U@@YAKV?$basic_string@DU?$char_traits@D@std@@V?$allocator@D@2@@std@@PAEPAD@Z 100bfcdc     Utilities.obj
 0002:0001fce4       __ehfuncinfo$?FindPattern@U@@YAKV?$basic_string@DU?$char_traits@D@std@@V?$allocator@D@2@@std@@PAEPAD@Z 100bfce4     Utilities.obj
 0002:0001fd08       __catchsym$?setup@vfunc_hook@@QAE_NPAX@Z$3 100bfd08     Utilities.obj
 0002:0001fd18       __unwindtable$?setup@vfunc_hook@@QAE_NPAX@Z 100bfd18     Utilities.obj
 0002:0001fd28       __tryblocktable$?setup@vfunc_hook@@QAE_NPAX@Z 100bfd28     Utilities.obj
 0002:0001fd3c       __ehfuncinfo$?setup@vfunc_hook@@QAE_NPAX@Z 100bfd3c     Utilities.obj
 0002:0001fd60       __unwindtable$?widen@?$basic_ios@DU?$char_traits@D@std@@@std@@QBEDD@Z 100bfd60     Utilities.obj
 0002:0001fd78       __ehfuncinfo$?widen@?$basic_ios@DU?$char_traits@D@std@@@std@@QBEDD@Z 100bfd78     Utilities.obj
 0002:0001fd9c       __unwindtable$??0?$basic_ostream@DU?$char_traits@D@std@@@std@@QAE@PAV?$basic_streambuf@DU?$char_traits@D@std@@@1@_N@Z 100bfd9c     Utilities.obj
 0002:0001fdac       __ehfuncinfo$??0?$basic_ostream@DU?$char_traits@D@std@@@std@@QAE@PAV?$basic_streambuf@DU?$char_traits@D@std@@@1@_N@Z 100bfdac     Utilities.obj
 0002:0001fdd0       __unwindtable$?overflow@?$basic_filebuf@DU?$char_traits@D@std@@@std@@MAEHH@Z 100bfdd0     Utilities.obj
 0002:0001fdd8       __ehfuncinfo$?overflow@?$basic_filebuf@DU?$char_traits@D@std@@@std@@MAEHH@Z 100bfdd8     Utilities.obj
 0002:0001fdfc       __unwindtable$?uflow@?$basic_filebuf@DU?$char_traits@D@std@@@std@@MAEHXZ 100bfdfc     Utilities.obj
 0002:0001fe04       __ehfuncinfo$?uflow@?$basic_filebuf@DU?$char_traits@D@std@@@std@@MAEHXZ 100bfe04     Utilities.obj
 0002:0001fe28       __unwindtable$??__ElogFile@@YAXXZ 100bfe28     Utilities.obj
 0002:0001fe40       __ehfuncinfo$??__ElogFile@@YAXXZ 100bfe40     Utilities.obj
 0002:0001fe64       __unwindtable$??R<lambda_7ed3db406aacb01baf79d13e7359de19>@@QBE?AV?$vector@HV?$allocator@H@std@@@std@@PBD@Z 100bfe64     Utilities.obj
 0002:0001fe6c       __ehfuncinfo$??R<lambda_7ed3db406aacb01baf79d13e7359de19>@@QBE?AV?$vector@HV?$allocator@H@std@@@std@@PBD@Z 100bfe6c     Utilities.obj
 0002:0001fe90       __unwindtable$??$use_facet@V?$codecvt@DDU_Mbstatet@@@std@@@std@@YAABV?$codecvt@DDU_Mbstatet@@@0@ABVlocale@0@@Z 100bfe90     Utilities.obj
 0002:0001fea0       __ehfuncinfo$??$use_facet@V?$codecvt@DDU_Mbstatet@@@std@@@std@@YAABV?$codecvt@DDU_Mbstatet@@@0@ABVlocale@0@@Z 100bfea0     Utilities.obj
 0002:0001ff40       __sehtable$___scrt_is_nonwritable_in_current_image 100bff40     LIBCMT:utility.obj
 0002:0001ff60       __sehtable$??_M@YGXPAXIIP6EX0@Z@Z 100bff60     LIBCMT:ehvecdtr.obj
 0002:0001ff80       __sehtable$?__ArrayUnwind@@YGXPAXIIP6EX0@Z@Z 100bff80     LIBCMT:ehvecdtr.obj
 0002:0001ffa0       __sehtable$??_L@YGXPAXIIP6EX0@Z1@Z 100bffa0     LIBCMT:ehvecctr.obj
 0002:0001ffc0       __sehtable$?dllmain_crt_process_attach@@YAHQAUHINSTANCE__@@QAX@Z 100bffc0     LIBCMT:dll_dllmain.obj
 0002:0001ffe0       __sehtable$?dllmain_crt_process_detach@@YAH_N@Z 100bffe0     LIBCMT:dll_dllmain.obj
 0002:00020000       __sehtable$?dllmain_dispatch@@YAHQAUHINSTANCE__@@KQAX@Z 100c0000     LIBCMT:dll_dllmain.obj
 0002:00020160       __unwindtable$?_Locimp_dtor@_Locimp@locale@std@@CAXPAV123@@Z 100c0160     libcpmt:locale0.obj
 0002:00020168       __ehfuncinfo$?_Locimp_dtor@_Locimp@locale@std@@CAXPAV123@@Z 100c0168     libcpmt:locale0.obj
 0002:0002018c       __unwindtable$?_Init@locale@std@@CAPAV_Locimp@12@_N@Z 100c018c     libcpmt:locale0.obj
 0002:00020194       __ehfuncinfo$?_Init@locale@std@@CAPAV_Locimp@12@_N@Z 100c0194     libcpmt:locale0.obj
 0002:000201b8       __sehtable$___DestructExceptionObject 100c01b8     libvcruntime:ehhelpers.obj
 0002:000201d8       __sehtable$___BuildCatchObject 100c01d8     libvcruntime:frame.obj
 0002:000201f8       __sehtable$___FrameUnwindToState 100c01f8     libvcruntime:frame.obj
 0002:00020220       __sehtable$?CallCatchBlock@@YAPAXPAUEHExceptionRecord@@PAUEHRegistrationNode@@PAU_CONTEXT@@PBU_s_FuncInfo@@PAXHK@Z 100c0220     libvcruntime:frame.obj
 0002:00020248       __catchsym$?CallUnexpected@@YAXPBU_s_ESTypeList@@@Z$2 100c0248     libvcruntime:frame.obj
 0002:00020258       __unwindtable$?CallUnexpected@@YAXPBU_s_ESTypeList@@@Z 100c0258     libvcruntime:frame.obj
 0002:00020268       __tryblocktable$?CallUnexpected@@YAXPBU_s_ESTypeList@@@Z 100c0268     libvcruntime:frame.obj
 0002:0002027c       __ehfuncinfo$?CallUnexpected@@YAXPBU_s_ESTypeList@@@Z 100c027c     libvcruntime:frame.obj
 0002:000202a0       __sehtable$___BuildCatchObjectHelper 100c02a0     libvcruntime:frame.obj
 0002:000202f8       __sehtable$??$?RV<lambda_80d7abc6eae2375db70be92ccaaf9b57>@@AAV<lambda_df52180bf14694d51fdefd82613e8f07>@@V<lambda_4fa1155033dff2042363dba4e2dc3802>@@@?$__crt_seh_guarded_call@H@@QAEH$$QAV<lambda_80d7abc6eae2375db70be92ccaaf9b57>@@AAV<lambda_df52180bf14694d51fdefd82613e8f07>@@$$QAV<lambda_4fa1155033dff2042363dba4e2dc3802>@@@Z 100c02f8     libucrt:output.obj
 0002:00020318       __sehtable$??$?RV<lambda_cd71a80a2e07be5c049dbac2d42b50cf>@@AAV<lambda_3126a0d026c48c72336a1719c85146ae>@@V<lambda_054a4245c223b8b973249f076dad6b96>@@@?$__crt_seh_guarded_call@H@@QAEH$$QAV<lambda_cd71a80a2e07be5c049dbac2d42b50cf>@@AAV<lambda_3126a0d026c48c72336a1719c85146ae>@@$$QAV<lambda_054a4245c223b8b973249f076dad6b96>@@@Z 100c0318     libucrt:puts.obj
 0002:00020338       __sehtable$_fclose         100c0338     libucrt:fclose.obj
 0002:00020358       __sehtable$??$common_fsopen@D@@YAPAU_iobuf@@QBD0H@Z 100c0358     libucrt:fopen.obj
 0002:00020378       __sehtable$??$common_fsopen@_W@@YAPAU_iobuf@@QB_W0H@Z 100c0378     libucrt:fopen.obj
 0002:00020398       __sehtable$_fread_s        100c0398     libucrt:fread.obj
 0002:000203b8       __sehtable$?common_fseek@@YAHV__crt_stdio_stream@@_JH@Z 100c03b8     libucrt:fseek.obj
 0002:000203d8       __sehtable$??$common_ftell@J@@YAJV__crt_stdio_stream@@@Z 100c03d8     libucrt:ftell.obj
 0002:000203f8       __sehtable$??$common_ftell@_J@@YA_JV__crt_stdio_stream@@@Z 100c03f8     libucrt:ftell.obj
 0002:00020418       __sehtable$??$?RV<lambda_2866be3712abc81a800a822484c830d8>@@AAV<lambda_39ca0ed439415581b5b15c265174cece>@@V<lambda_2b24c74d71094a6cd0cb82e44167d71b>@@@?$__crt_seh_guarded_call@X@@QAEX$$QAV<lambda_2866be3712abc81a800a822484c830d8>@@AAV<lambda_39ca0ed439415581b5b15c265174cece>@@$$QAV<lambda_2b24c74d71094a6cd0cb82e44167d71b>@@@Z 100c0418     libucrt:fflush.obj
 0002:00020438       __sehtable$??$?RV<lambda_2cc53f568c5a2bb6f192f930a45d44ea>@@AAV<lambda_ab61a845afdef5b7c387490eaf3616ee>@@V<lambda_c2ffc0b7726aa6be21d5f0026187e748>@@@?$__crt_seh_guarded_call@X@@QAEX$$QAV<lambda_2cc53f568c5a2bb6f192f930a45d44ea>@@AAV<lambda_ab61a845afdef5b7c387490eaf3616ee>@@$$QAV<lambda_c2ffc0b7726aa6be21d5f0026187e748>@@@Z 100c0438     libucrt:fflush.obj
 0002:00020458       __sehtable$??$?RV<lambda_6d20deecaf4856105ebacbad442d1079>@@AAV<lambda_9a32fed5bf61b6b509b2d3f6003082a1>@@V<lambda_63ea2239ed67c638ddbae41947fdf875>@@@?$__crt_seh_guarded_call@H@@QAEH$$QAV<lambda_6d20deecaf4856105ebacbad442d1079>@@AAV<lambda_9a32fed5bf61b6b509b2d3f6003082a1>@@$$QAV<lambda_63ea2239ed67c638ddbae41947fdf875>@@@Z 100c0458     libucrt:fflush.obj
 0002:00020478       __sehtable$_fgetc          100c0478     libucrt:fgetc.obj
 0002:00020498       __sehtable$_fputc          100c0498     libucrt:fputc.obj
 0002:000204b8       __sehtable$??$?RV<lambda_cd3bfd923e8d1349099e544c97b1bd8e>@@AAV<lambda_54dcfcba6f8e0c549fa430f4d53fb7dd>@@V<lambda_5e1d0fa2aa2b73b187bf8b7e1d30c7f8>@@@?$__crt_seh_guarded_call@I@@QAEI$$QAV<lambda_cd3bfd923e8d1349099e544c97b1bd8e>@@AAV<lambda_54dcfcba6f8e0c549fa430f4d53fb7dd>@@$$QAV<lambda_5e1d0fa2aa2b73b187bf8b7e1d30c7f8>@@@Z 100c04b8     libucrt:fwrite.obj
 0002:000204d8       __sehtable$??$?RV<lambda_70c0770dcc4f6ec6272bb01dc82d3c91>@@AAV<lambda_ca71763b3c0644891230e4f79ea54fa6>@@V<lambda_ca266f0f09348b8765c113e3a39a2bc1>@@@?$__crt_seh_guarded_call@H@@QAEH$$QAV<lambda_70c0770dcc4f6ec6272bb01dc82d3c91>@@AAV<lambda_ca71763b3c0644891230e4f79ea54fa6>@@$$QAV<lambda_ca266f0f09348b8765c113e3a39a2bc1>@@@Z 100c04d8     libucrt:setvbuf.obj
 0002:000204f8       __sehtable$_ungetc         100c04f8     libucrt:ungetc.obj
 0002:00020518       __sehtable$_terminate      100c0518     libucrt:terminate.obj
 0002:00020538       __sehtable$__query_new_handler 100c0538     libucrt:new_handler.obj
 0002:00020558       __sehtable$??R<lambda_6e4b09c48022b2350581041d5f6b0c4c>@@QBE@XZ 100c0558     libucrt:exit.obj
 0002:00020578       __sehtable$??$?RV<lambda_03b1d95aef87969028cfba75ccab2455>@@AAV<lambda_6e4b09c48022b2350581041d5f6b0c4c>@@V<lambda_22bdf7517842c4b3e53723af5aa32b9e>@@@?$__crt_seh_guarded_call@X@@QAEX$$QAV<lambda_03b1d95aef87969028cfba75ccab2455>@@AAV<lambda_6e4b09c48022b2350581041d5f6b0c4c>@@$$QAV<lambda_22bdf7517842c4b3e53723af5aa32b9e>@@@Z 100c0578     libucrt:exit.obj
 0002:00020598       __sehtable$??$?RV<lambda_7ac4055421038abea736e08bd20712a4>@@AAV<lambda_a10e4b102d4a2c3aac6f4f48bbdf488f>@@V<lambda_1da61822885009acd1bf848af4f9644b>@@@?$__crt_seh_guarded_call@H@@QAEH$$QAV<lambda_7ac4055421038abea736e08bd20712a4>@@AAV<lambda_a10e4b102d4a2c3aac6f4f48bbdf488f>@@$$QAV<lambda_1da61822885009acd1bf848af4f9644b>@@@Z 100c0598     libucrt:onexit.obj
 0002:000205b8       __sehtable$??$?RV<lambda_69a2805e680e0e292e8ba93315fe43a8>@@AAV<lambda_f03950bc5685219e0bcd2087efbe011e>@@V<lambda_03fcd07e894ec930e3f35da366ca99d6>@@@?$__crt_seh_guarded_call@H@@QAEH$$QAV<lambda_69a2805e680e0e292e8ba93315fe43a8>@@AAV<lambda_f03950bc5685219e0bcd2087efbe011e>@@$$QAV<lambda_03fcd07e894ec930e3f35da366ca99d6>@@@Z 100c05b8     libucrt:onexit.obj
 0002:000205d8       __sehtable$??$?RV<lambda_0fef6fff2b5e6b53303c9058db11ae1f>@@AAV<lambda_082c17da81b0962e08c0587ee0fac50c>@@V<lambda_fa6e051aed0a38726081083cc7c328e9>@@@?$__crt_seh_guarded_call@PAD@@QAEPAD$$QAV<lambda_0fef6fff2b5e6b53303c9058db11ae1f>@@AAV<lambda_082c17da81b0962e08c0587ee0fac50c>@@$$QAV<lambda_fa6e051aed0a38726081083cc7c328e9>@@@Z 100c05d8     libucrt:setlocale.obj
 0002:000205f8       __sehtable$??$?RV<lambda_15ade71b0218206bbe3333a0c9b79046>@@AAV<lambda_da44e0f8b0f19ba52fefafb335991732>@@V<lambda_207f2d024fc103971653565357d6cd41>@@@?$__crt_seh_guarded_call@X@@QAEX$$QAV<lambda_15ade71b0218206bbe3333a0c9b79046>@@AAV<lambda_da44e0f8b0f19ba52fefafb335991732>@@$$QAV<lambda_207f2d024fc103971653565357d6cd41>@@@Z 100c05f8     libucrt:per_thread_data.obj
 0002:00020618       __sehtable$??$?RV<lambda_a7e850c220f1c8d1e6efeecdedd162c6>@@AAV<lambda_46720907175c18b6c9d2717bc0d2d362>@@V<lambda_9048902d66e8d99359bc9897bbb930a8>@@@?$__crt_seh_guarded_call@X@@QAEX$$QAV<lambda_a7e850c220f1c8d1e6efeecdedd162c6>@@AAV<lambda_46720907175c18b6c9d2717bc0d2d362>@@$$QAV<lambda_9048902d66e8d99359bc9897bbb930a8>@@@Z 100c0618     libucrt:per_thread_data.obj
 0002:00020638       __sehtable$??$?RV<lambda_38edbb1296d33220d7e4dd0ed76b244a>@@AAV<lambda_5ce1d447e08cb34b2473517608e21441>@@V<lambda_fb385d3da700c9147fc39e65dd577a8c>@@@?$__crt_seh_guarded_call@X@@QAEX$$QAV<lambda_38edbb1296d33220d7e4dd0ed76b244a>@@AAV<lambda_5ce1d447e08cb34b2473517608e21441>@@$$QAV<lambda_fb385d3da700c9147fc39e65dd577a8c>@@@Z 100c0638     libucrt:per_thread_data.obj
 0002:00020658       __sehtable$??$?RV<lambda_6affb1475c98b40b75cdec977db92e3c>@@AAV<lambda_b8d4b9c228a6ecc3f80208dbb4b4a104>@@V<lambda_608742c3c92a14382c1684fc64f96c88>@@@?$__crt_seh_guarded_call@X@@QAEX$$QAV<lambda_6affb1475c98b40b75cdec977db92e3c>@@AAV<lambda_b8d4b9c228a6ecc3f80208dbb4b4a104>@@$$QAV<lambda_608742c3c92a14382c1684fc64f96c88>@@@Z 100c0658     libucrt:per_thread_data.obj
 0002:00020678       __sehtable$??$?RV<lambda_e5124f882df8998aaf41531e079ba474>@@AAV<lambda_3e16ef9562a7dcce91392c22ab16ea36>@@V<lambda_e25ca0880e6ef98be67edffd8c599615>@@@?$__crt_seh_guarded_call@X@@QAEX$$QAV<lambda_e5124f882df8998aaf41531e079ba474>@@AAV<lambda_3e16ef9562a7dcce91392c22ab16ea36>@@$$QAV<lambda_e25ca0880e6ef98be67edffd8c599615>@@@Z 100c0678     libucrt:wsetlocale.obj
 0002:00020698       __sehtable$??$?RV<lambda_303d0ad9bde654cb3f803a73716ce7a4>@@AAV<lambda_92fe181106aff629c9a2e25713a64969>@@V<lambda_184325e10b6cff6f771390cbceab281b>@@@?$__crt_seh_guarded_call@X@@QAEX$$QAV<lambda_303d0ad9bde654cb3f803a73716ce7a4>@@AAV<lambda_92fe181106aff629c9a2e25713a64969>@@$$QAV<lambda_184325e10b6cff6f771390cbceab281b>@@@Z 100c0698     libucrt:wsetlocale.obj
 0002:000206b8       __sehtable$??$?RV<lambda_38c1253c7a74f5d2d430989951395d98>@@AAV<lambda_b163b37eafe0a13f2c371fafeb0365c9>@@AAV<lambda_8dff2cf36a5417162780cd64fa2883ef>@@@?$__crt_seh_guarded_call@X@@QAEX$$QAV<lambda_38c1253c7a74f5d2d430989951395d98>@@AAV<lambda_b163b37eafe0a13f2c371fafeb0365c9>@@AAV<lambda_8dff2cf36a5417162780cd64fa2883ef>@@@Z 100c06b8     libucrt:wsetlocale.obj
 0002:000206d8       __sehtable$___acrt_initialize_lowio 100c06d8     libucrt:ioinit.obj
 0002:000206f8       __sehtable$??$?RV<lambda_218ce3db14220d0be481dae8ef3383b6>@@AAV<lambda_628dfdc04ba53c8bfc02c9951375f3f5>@@V<lambda_57dc472bd5c9d5f3b2cbca59b8a843ae>@@@?$__crt_seh_guarded_call@H@@QAEH$$QAV<lambda_218ce3db14220d0be481dae8ef3383b6>@@AAV<lambda_628dfdc04ba53c8bfc02c9951375f3f5>@@$$QAV<lambda_57dc472bd5c9d5f3b2cbca59b8a843ae>@@@Z 100c06f8     libucrt:close.obj
 0002:00020718       __sehtable$?__acrt_stdio_allocate_stream@@YA?AV__crt_stdio_stream@@XZ 100c0718     libucrt:stream.obj
 0002:00020738       __sehtable$__read          100c0738     libucrt:read.obj
 0002:00020758       __sehtable$??$common_lseek@_J@@YA_JH_JH@Z 100c0758     libucrt:lseek.obj
 0002:00020778       __sehtable$__isindst       100c0778     libucrt:tzset.obj
 0002:00020798       __sehtable$___tzset        100c0798     libucrt:tzset.obj
 0002:000207b8       __sehtable$??$?RV<lambda_93797fb4802c957ba6a7f08e1250235b>@@AAV<lambda_1f3ce6bd48e0aa2e72a71c02eee379d3>@@V<lambda_56cae30c9364c9b6c15aeaac05d0418e>@@@?$__crt_seh_guarded_call@H@@QAEH$$QAV<lambda_93797fb4802c957ba6a7f08e1250235b>@@AAV<lambda_1f3ce6bd48e0aa2e72a71c02eee379d3>@@$$QAV<lambda_56cae30c9364c9b6c15aeaac05d0418e>@@@Z 100c07b8     libucrt:winapi_thunks.obj
 0002:000207d8       __sehtable$__fcloseall     100c07d8     libucrt:closeall.obj
 0002:000207f8       __sehtable$??$?RV<lambda_9e9de3de5fa147e2223d7db92bc10aa6>@@AAV<lambda_38ce7e780aa69e748d6df282ebc68efe>@@V<lambda_8ca6da459f0f6780f1cff60fdc3d00e5>@@@?$__crt_seh_guarded_call@H@@QAEH$$QAV<lambda_9e9de3de5fa147e2223d7db92bc10aa6>@@AAV<lambda_38ce7e780aa69e748d6df282ebc68efe>@@$$QAV<lambda_8ca6da459f0f6780f1cff60fdc3d00e5>@@@Z 100c07f8     libucrt:commit.obj
 0002:00020818       __sehtable$__write         100c0818     libucrt:write.obj
 0002:00020838       __sehtable$?update_thread_multibyte_data_internal@@YAPAU__crt_multibyte_data@@QAU__acrt_ptd@@QAPAU1@@Z 100c0838     libucrt:mbctype.obj
 0002:00020858       __sehtable$??$?RV<lambda_ceb1ee4838e85a9d631eb091e2fbe199>@@AAV<lambda_ae742caa10f662c28703da3d2ea5e57e>@@V<lambda_cd08b5d6af4937fe54fc07d0c9bf6b37>@@@?$__crt_seh_guarded_call@X@@QAEX$$QAV<lambda_ceb1ee4838e85a9d631eb091e2fbe199>@@AAV<lambda_ae742caa10f662c28703da3d2ea5e57e>@@$$QAV<lambda_cd08b5d6af4937fe54fc07d0c9bf6b37>@@@Z 100c0858     libucrt:mbctype.obj
 0002:00020878       __sehtable$_raise          100c0878     libucrt:signal.obj
 0002:00020898       __sehtable$??$?RV<lambda_cbab9ec6f41b0180b23cc171c22676b0>@@AAV<lambda_44731a7d0e6d81c3e6aa82d741081786>@@V<lambda_4b292cb8dd18144e164572427af410ab>@@@?$__crt_seh_guarded_call@P6AXH@Z@@QAEP6AXH@Z$$QAV<lambda_cbab9ec6f41b0180b23cc171c22676b0>@@AAV<lambda_44731a7d0e6d81c3e6aa82d741081786>@@$$QAV<lambda_4b292cb8dd18144e164572427af410ab>@@@Z 100c0898     libucrt:signal.obj
 0002:000208b8       __sehtable$___acrt_update_thread_locale_data 100c08b8     libucrt:locale_refcounting.obj
 0002:000208d8       __sehtable$__alloc_osfhnd  100c08d8     libucrt:osfinfo.obj
 0002:000208f8       __sehtable$___acrt_lowio_ensure_fh_exists 100c08f8     libucrt:osfinfo.obj
 0002:00020918       __sehtable$??$common_sopen_dispatch@D@@YAHQBDHHHQAHH@Z 100c0918     libucrt:open.obj
 0002:00020938       __sehtable$??$common_sopen_dispatch@_W@@YAHQB_WHHHQAHH@Z 100c0938     libucrt:open.obj
 0002:00020958       __sehtable$??$common_getenv_s@D@@YAHQAIQADIQBD@Z 100c0958     libucrt:getenv.obj
 0002:00020978       __sehtable$__IsNonwritableInCurrentImage 100c0978     LIBCMT:pesect.obj
 0002:00020dae       .idata$6                   100c0dae     kernel32:KERNEL32.dll
 0002:00020e88       .idata$6                   100c0e88     user32:USER32.dll
 0002:00020ea8       .idata$6                   100c0ea8     shell32:SHELL32.dll
 0002:00020ec2       .idata$6                   100c0ec2     winmm:WINMM.dll
 0002:00020ef6       .idata$6                   100c0ef6     imm32:IMM32.dll
 0003:00000000       ?vec2_invalid@@3VVector2D@@B 100c2000     recvproxy.obj
 0003:00000008       ?vec2_invalid@@3VVector2D@@B 100c2008     Autowall.obj
 0003:00000010       ?vec2_invalid@@3VVector2D@@B 100c2010     Chams.obj
 0003:00000018       ?vec2_invalid@@3VVector2D@@B 100c2018     Configuration.obj
 0003:00000020       ?vec2_invalid@@3VVector2D@@B 100c2020     DLLMain.obj
 0003:00000028       ?vec2_invalid@@3VVector2D@@B 100c2028     EnginePrediction.obj
 0003:00000030       ?vec2_invalid@@3VVector2D@@B 100c2030     ESP.obj
 0003:00000038       ?colors@?1??OnPaintTraverse@visuals@@QAEXPAVC_BaseEntity@@@Z@4PAMA 100c2038     ESP.obj
 0003:00000050       ?vec2_invalid@@3VVector2D@@B 100c2050     Global.obj
 0003:00000058       ?vec2_invalid@@3VVector2D@@B 100c2058     GrenadePrediction.obj
 0003:000d9c4c       ?vec2_invalid@@3VVector2D@@B 1019bc4c     Hooks.obj
 0003:000d9c58       ?new_pos@?BH@??GloveChanger@@YAXXZ@4VVector@@B 1019bc58     Hooks.obj
 0003:000d9c64       ?hue@?1??RenderDefault@@YAXPAUIDirect3DDevice9@@@Z@4HA 1019bc64     Hooks.obj
 0003:000d9c68       ?r@?1??SubTab@@YAXPBDPAHH@Z@4MA 1019bc68     Hooks.obj
 0003:000d9c6c       ?r@?BF@??RenderInterface@@YAXXZ@4MA 1019bc6c     Hooks.obj
 0003:000d9c70       ?r@?DP@??RenderInterface@@YAXXZ@4MA 1019bc70     Hooks.obj
 0003:000d9c74       ?r@?HC@??RenderInterface@@YAXXZ@4MA 1019bc74     Hooks.obj
 0003:000d9c78       ?r@?KA@??RenderInterface@@YAXXZ@4MA 1019bc78     Hooks.obj
 0003:000d9c7c       ?r@?ME@??RenderInterface@@YAXXZ@4MA 1019bc7c     Hooks.obj
 0003:000d9c80       ?r@?PC@??RenderInterface@@YAXXZ@4MA 1019bc80     Hooks.obj
 0003:000d9c84       ?r@?BIF@??RenderInterface@@YAXXZ@4MA 1019bc84     Hooks.obj
 0003:000d9c88       ?g_VertexBufferSize@@3HA   1019bc88     imgui_impl_dx9.obj
 0003:000d9c8c       ?g_IndexBufferSize@@3HA    1019bc8c     imgui_impl_dx9.obj
 0003:000d9c94       ?STB_TEXTEDIT_NEWLINE@ImGuiStb@@3GA 1019bc94     imgui.obj
 0003:000d9c98       ?GNullClipRect@@3UImVec4@@B 1019bc98     imgui_draw.obj
 0003:000d9ca8       ?vec2_invalid@@3VVector2D@@B 1019bca8     Interfaces.obj
 0003:000d9cb0       ?vec2_invalid@@3VVector2D@@B 1019bcb0     LagComp.obj
 0003:000d9cb8       ?vec2_invalid@@3VVector2D@@B 1019bcb8     LegitBot.obj
 0003:000d9cc0       ?ChokedPackets@?6??LegitAA@legitbot@@QAEXPAVCUserCmd@CInput@@AA_N@Z@4HA 1019bcc0     LegitBot.obj
 0003:000d9cc4       ?vec2_invalid@@3VVector2D@@B 1019bcc4     memesets.obj
 0003:000d9ccc       ?vec2_invalid@@3VVector2D@@B 1019bccc     Misc.obj
 0003:000d9cec       ?ChokedPackets@?BBJ@??OnCreateMove@misc@@QAEXPAVCUserCmd@CInput@@PAVC_BaseEntity@@AA_N@Z@4HA 1019bcec     Misc.obj
 0003:000d9cf0       ?vec2_invalid@@3VVector2D@@B 1019bcf0     NetVarManager.obj
 0003:000d9cf8       ?vec2_invalid@@3VVector2D@@B 1019bcf8     RageBot.obj
 0003:000d9d00       ?iFakeLag@?1??FakeLag@ragebot@@AAEXPAVCUserCmd@CInput@@@Z@4HA 1019bd00     RageBot.obj
 0003:000d9d04       ?vec2_invalid@@3VVector2D@@B 1019bd04     Render.obj
 0003:000d9d0c       ?vec2_invalid@@3VVector2D@@B 1019bd0c     SpoofedConvar.obj
 0003:000d9d14       ?vec2_invalid@@3VVector2D@@B 1019bd14     MiscFunctions.obj
 0003:000d9e04       ?init@std@@3JA             1019be04     libcpmt:xlock.obj
 0003:000d9e08       ?atcount_cdecl@@3IA        1019be08     libcpmt:iosptrs.obj
 0003:000d9e70       ?__vcrt_flsindex@@3KA      1019be70     libvcruntime:per_thread_data.obj
 0003:000d9e90       ?errno_no_memory@@3HA      1019be90     libucrt:errno.obj
 0003:000d9e94       ?doserrno_no_memory@@3KA   1019be94     libucrt:errno.obj
 0003:000d9fc0       ?__acrt_flsindex@@3KA      1019bfc0     libucrt:per_thread_data.obj
 0003:000d9fc4       __ctype_loc_style          1019bfc4     libucrt:wsetlocale.obj
 0003:000da1d0       ?tzstd_program@@3PADA      1019c1d0     libucrt:timeset.obj
 0003:000da210       ?tzdst_program@@3PADA      1019c210     libucrt:timeset.obj
 0003:000da250       ?tzname_states@@3PAY01PADA 1019c250     libucrt:timeset.obj
 0003:000da258       ?dststart@@3Utransitiondate@?A0x7639d0b4@@A 1019c258     libucrt:tzset.obj
 0003:000da264       ?dstend@@3Utransitiondate@?A0x7639d0b4@@A 1019c264     libucrt:tzset.obj
 0003:000da270       __mbctypes                 1019c270     libucrt:mbctype.obj
 0003:000da378       __mbcasemaps               1019c378     libucrt:mbctype.obj
 0003:000da478       ?__rgctypeflag@@3PADA      1019c478     libucrt:mbctype.obj
 0003:000da480       ?__rgcode_page_info@@3PAUcode_page_info@@A 1019c480     libucrt:mbctype.obj
 0003:000da7a0       ?__dcrt_lowio_console_output_handle@@3PAXA 1019c7a0     libucrt:initcon.obj
 0003:000dae4c       ?w_printf@XorCompileTime@@3V<lambda>@@A 1019ce4c     recvproxy.obj
 0003:000dae4d       ?w_printf_s@XorCompileTime@@3V<lambda>@@A 1019ce4d     recvproxy.obj
 0003:000dae4e       ?w_sprintf_s@XorCompileTime@@3V<lambda>@@A 1019ce4e     recvproxy.obj
 0003:000dae4f       ?w_sprintf@XorCompileTime@@3V<lambda>@@A 1019ce4f     recvproxy.obj
 0003:000dae50       ?ItemDefinitionIndexMap@@3V?$map@W4ItemDefinitionIndexx@@UDefItem_t@@U?$less@W4ItemDefinitionIndexx@@@std@@V?$allocator@U?$pair@$$CBW4ItemDefinitionIndexx@@UDefItem_t@@@std@@@4@@std@@B 1019ce50     recvproxy.obj
 0003:000dae58       ?vec2_origin@@3VVector2D@@B 1019ce58     recvproxy.obj
 0003:000dae60       ?w_printf@XorCompileTime@@3V<lambda>@@A 1019ce60     Autowall.obj
 0003:000dae61       ?w_printf_s@XorCompileTime@@3V<lambda>@@A 1019ce61     Autowall.obj
 0003:000dae62       ?w_sprintf_s@XorCompileTime@@3V<lambda>@@A 1019ce62     Autowall.obj
 0003:000dae63       ?w_sprintf@XorCompileTime@@3V<lambda>@@A 1019ce63     Autowall.obj
 0003:000dae64       ?ItemDefinitionIndexMap@@3V?$map@W4ItemDefinitionIndexx@@UDefItem_t@@U?$less@W4ItemDefinitionIndexx@@@std@@V?$allocator@U?$pair@$$CBW4ItemDefinitionIndexx@@UDefItem_t@@@std@@@4@@std@@B 1019ce64     Autowall.obj
 0003:000dae6c       ?vec2_origin@@3VVector2D@@B 1019ce6c     Autowall.obj
 0003:000dae80       ?w_printf@XorCompileTime@@3V<lambda>@@A 1019ce80     Chams.obj
 0003:000dae81       ?w_printf_s@XorCompileTime@@3V<lambda>@@A 1019ce81     Chams.obj
 0003:000dae82       ?w_sprintf_s@XorCompileTime@@3V<lambda>@@A 1019ce82     Chams.obj
 0003:000dae83       ?w_sprintf@XorCompileTime@@3V<lambda>@@A 1019ce83     Chams.obj
 0003:000dae84       ?ItemDefinitionIndexMap@@3V?$map@W4ItemDefinitionIndexx@@UDefItem_t@@U?$less@W4ItemDefinitionIndexx@@@std@@V?$allocator@U?$pair@$$CBW4ItemDefinitionIndexx@@UDefItem_t@@@std@@@4@@std@@B 1019ce84     Chams.obj
 0003:000dae8c       ?vec2_origin@@3VVector2D@@B 1019ce8c     Chams.obj
 0003:000dae94       ?sig1@?1??InitKeyValues@@YAXPAVKeyValues@@PBD@Z@4PAEA 1019ce94     Chams.obj
 0003:000dae98       ?function@?1??InitKeyValues@@YAXPAVKeyValues@@PBD@Z@4P6EX01@ZA 1019ce98     Chams.obj
 0003:000dae9c       ?$TSS0@?1??InitKeyValues@@YAXPAVKeyValues@@PBD@Z@4HA 1019ce9c     Chams.obj
 0003:000daea0       ?offset@?1??LoadFromBuffer@@YAXPAVKeyValues@@PBD1@Z@4PAEA 1019cea0     Chams.obj
 0003:000daea4       ?function@?1??LoadFromBuffer@@YAXPAVKeyValues@@PBD1@Z@4P6EX011PAX12@ZA 1019cea4     Chams.obj
 0003:000daea8       ?$TSS0@?1??LoadFromBuffer@@YAXPAVKeyValues@@PBD1@Z@4HA 1019cea8     Chams.obj
 0003:000daeac       ?created@?1??CreateMaterial@@YAPAVIMaterial@@_N00@Z@4HA 1019ceac     Chams.obj
 0003:000daeb0       ?w_printf@XorCompileTime@@3V<lambda>@@A 1019ceb0     Configuration.obj
 0003:000daeb1       ?w_printf_s@XorCompileTime@@3V<lambda>@@A 1019ceb1     Configuration.obj
 0003:000daeb2       ?w_sprintf_s@XorCompileTime@@3V<lambda>@@A 1019ceb2     Configuration.obj
 0003:000daeb3       ?w_sprintf@XorCompileTime@@3V<lambda>@@A 1019ceb3     Configuration.obj
 0003:000daeb4       ?ItemDefinitionIndexMap@@3V?$map@W4ItemDefinitionIndexx@@UDefItem_t@@U?$less@W4ItemDefinitionIndexx@@@std@@V?$allocator@U?$pair@$$CBW4ItemDefinitionIndexx@@UDefItem_t@@@std@@@4@@std@@B 1019ceb4     Configuration.obj
 0003:000e1d24       ?vec2_origin@@3VVector2D@@B 101a3d24     Configuration.obj
 0003:000e1d30       ?path@?1??Save@CConfig@@QAEXXZ@4PADA 101a3d30     Configuration.obj
 0003:000e1e38       ?path@?1??Load@CConfig@@QAEXXZ@4PADA 101a3e38     Configuration.obj
 0003:000e1f3d       ?w_printf@XorCompileTime@@3V<lambda>@@A 101a3f3d     DLLMain.obj
 0003:000e1f3e       ?w_printf_s@XorCompileTime@@3V<lambda>@@A 101a3f3e     DLLMain.obj
 0003:000e1f3f       ?w_sprintf_s@XorCompileTime@@3V<lambda>@@A 101a3f3f     DLLMain.obj
 0003:000e1f40       ?ItemDefinitionIndexMap@@3V?$map@W4ItemDefinitionIndexx@@UDefItem_t@@U?$less@W4ItemDefinitionIndexx@@@std@@V?$allocator@U?$pair@$$CBW4ItemDefinitionIndexx@@UDefItem_t@@@std@@@4@@std@@B 101a3f40     DLLMain.obj
 0003:000e1f48       ?w_sprintf@XorCompileTime@@3V<lambda>@@A 101a3f48     DLLMain.obj
 0003:000e1f4c       ?vec2_origin@@3VVector2D@@B 101a3f4c     DLLMain.obj
 0003:000e1f64       ?w_printf@XorCompileTime@@3V<lambda>@@A 101a3f64     EnginePrediction.obj
 0003:000e1f65       ?w_printf_s@XorCompileTime@@3V<lambda>@@A 101a3f65     EnginePrediction.obj
 0003:000e1f66       ?w_sprintf_s@XorCompileTime@@3V<lambda>@@A 101a3f66     EnginePrediction.obj
 0003:000e1f67       ?w_sprintf@XorCompileTime@@3V<lambda>@@A 101a3f67     EnginePrediction.obj
 0003:000e1f68       ?ItemDefinitionIndexMap@@3V?$map@W4ItemDefinitionIndexx@@UDefItem_t@@U?$less@W4ItemDefinitionIndexx@@@std@@V?$allocator@U?$pair@$$CBW4ItemDefinitionIndexx@@UDefItem_t@@@std@@@4@@std@@B 101a3f68     EnginePrediction.obj
 0003:000e2028       ?vec2_origin@@3VVector2D@@B 101a4028     EnginePrediction.obj
 0003:000e2070       ?w_printf@XorCompileTime@@3V<lambda>@@A 101a4070     ESP.obj
 0003:000e2071       ?w_printf_s@XorCompileTime@@3V<lambda>@@A 101a4071     ESP.obj
 0003:000e2072       ?w_sprintf_s@XorCompileTime@@3V<lambda>@@A 101a4072     ESP.obj
 0003:000e2073       ?w_sprintf@XorCompileTime@@3V<lambda>@@A 101a4073     ESP.obj
 0003:000e2074       ?ItemDefinitionIndexMap@@3V?$map@W4ItemDefinitionIndexx@@UDefItem_t@@U?$less@W4ItemDefinitionIndexx@@@std@@V?$allocator@U?$pair@$$CBW4ItemDefinitionIndexx@@UDefItem_t@@@std@@@4@@std@@B 101a4074     ESP.obj
 0003:000e207c       ?vec2_origin@@3VVector2D@@B 101a407c     ESP.obj
 0003:000e2084       ?counter@?1??OnPaintTraverse@visuals@@QAEXPAVC_BaseEntity@@@Z@4HA 101a4084     ESP.obj
 0003:000e2088       ?ViewAngles@?CF@??OnPaintTraverse@visuals@@QAEXPAVC_BaseEntity@@@Z@4VVector@@A 101a4088     ESP.obj
 0003:000e2094       ?fowardVec@?CF@??OnPaintTraverse@visuals@@QAEXPAVC_BaseEntity@@@Z@4VVector@@A 101a4094     ESP.obj
 0003:000e20a0       ?ViewAngles@?DD@??OnPaintTraverse@visuals@@QAEXPAVC_BaseEntity@@@Z@4VVector@@A 101a40a0     ESP.obj
 0003:000e20ac       ?enabledbox@?BH@??OnPaintTraverse@visuals@@QAEXPAVC_BaseEntity@@@Z@4_NA 101a40ac     ESP.obj
 0003:000e20ad       ?check@?BH@??OnPaintTraverse@visuals@@QAEXPAVC_BaseEntity@@@Z@4_NA 101a40ad     ESP.obj
 0003:000e20ae       ?enabledradar@?BH@??OnPaintTraverse@visuals@@QAEXPAVC_BaseEntity@@@Z@4_NA 101a40ae     ESP.obj
 0003:000e20af       ?check3@?BH@??OnPaintTraverse@visuals@@QAEXPAVC_BaseEntity@@@Z@4_NA 101a40af     ESP.obj
 0003:000e20b0       ?enabledskele@?BH@??OnPaintTraverse@visuals@@QAEXPAVC_BaseEntity@@@Z@4_NA 101a40b0     ESP.obj
 0003:000e20b1       ?check2@?BH@??OnPaintTraverse@visuals@@QAEXPAVC_BaseEntity@@@Z@4_NA 101a40b1     ESP.obj
 0003:000e20b4       ?sv_skyname@?7??NightMode@visuals@@AAEXXZ@4PAVConVar@@A 101a40b4     ESP.obj
 0003:000e20b8       ?$TSS0@?7??NightMode@visuals@@AAEXXZ@4HA 101a40b8     ESP.obj
 0003:000e20bc       ?r_DrawSpecificStaticProp@?7??NightMode@visuals@@AAEXXZ@4PAVConVar@@A 101a40bc     ESP.obj
 0003:000e20c0       ?$TSS1@?7??NightMode@visuals@@AAEXXZ@4HA 101a40c0     ESP.obj
 0003:000e2288       ?w_printf@XorCompileTime@@3V<lambda>@@A 101a4288     Global.obj
 0003:000e2289       ?w_printf_s@XorCompileTime@@3V<lambda>@@A 101a4289     Global.obj
 0003:000e228a       ?w_sprintf_s@XorCompileTime@@3V<lambda>@@A 101a428a     Global.obj
 0003:000e228b       ?w_sprintf@XorCompileTime@@3V<lambda>@@A 101a428b     Global.obj
 0003:000e228c       ?ItemDefinitionIndexMap@@3V?$map@W4ItemDefinitionIndexx@@UDefItem_t@@U?$less@W4ItemDefinitionIndexx@@@std@@V?$allocator@U?$pair@$$CBW4ItemDefinitionIndexx@@UDefItem_t@@@std@@@4@@std@@B 101a428c     Global.obj
 0003:000e2298       ?vec2_origin@@3VVector2D@@B 101a4298     Global.obj
 0003:000e22a0       ?w_printf@XorCompileTime@@3V<lambda>@@A 101a42a0     GrenadePrediction.obj
 0003:000e22a1       ?w_printf_s@XorCompileTime@@3V<lambda>@@A 101a42a1     GrenadePrediction.obj
 0003:000e22a2       ?w_sprintf_s@XorCompileTime@@3V<lambda>@@A 101a42a2     GrenadePrediction.obj
 0003:000e22a3       ?w_sprintf@XorCompileTime@@3V<lambda>@@A 101a42a3     GrenadePrediction.obj
 0003:000e22a4       ?ItemDefinitionIndexMap@@3V?$map@W4ItemDefinitionIndexx@@UDefItem_t@@U?$less@W4ItemDefinitionIndexx@@@std@@V?$allocator@U?$pair@$$CBW4ItemDefinitionIndexx@@UDefItem_t@@@std@@@4@@std@@B 101a42a4     GrenadePrediction.obj
 0003:000e22ac       ?vec2_origin@@3VVector2D@@B 101a42ac     GrenadePrediction.obj
 0003:000e2484       ?w_printf@XorCompileTime@@3V<lambda>@@A 101a4484     Hooks.obj
 0003:000e2485       ?w_printf_s@XorCompileTime@@3V<lambda>@@A 101a4485     Hooks.obj
 0003:000e2486       ?w_sprintf_s@XorCompileTime@@3V<lambda>@@A 101a4486     Hooks.obj
 0003:000e2487       ?w_sprintf@XorCompileTime@@3V<lambda>@@A 101a4487     Hooks.obj
 0003:00514878       ?ItemDefinitionIndexMap@@3V?$map@W4ItemDefinitionIndexx@@UDefItem_t@@U?$less@W4ItemDefinitionIndexx@@@std@@V?$allocator@U?$pair@$$CBW4ItemDefinitionIndexx@@UDefItem_t@@@std@@@4@@std@@B 105d6878     Hooks.obj
 0003:005148e0       ?vec2_origin@@3VVector2D@@B 105d68e0     Hooks.obj
 0003:00514928       ?ofunc@?1??CHLCreateMove@@YGXHM_NAA_N@Z@4P6EXPAVIBaseClientDLL@@HM0@ZA 105d6928     Hooks.obj
 0003:0051492c       ?$TSS0@?1??CHLCreateMove@@YGXHM_NAA_N@Z@4HA 105d692c     Hooks.obj
 0003:00514930       ?next_time@?1??CHLCreateMove@@YGXHM_NAA_N@Z@4MA 105d6930     Hooks.obj
 0003:00514934       ?glove_handle@?1??GloveChanger@@YAXXZ@4KA 105d6934     Hooks.obj
 0003:00514938       ?set_abs_origin_fn@?BH@??GloveChanger@@YAXXZ@4P6EXPAXABVVector@@@ZA 105d6938     Hooks.obj
 0003:0051493c       ?$TSS0@?BH@??GloveChanger@@YAXXZ@4HA 105d693c     Hooks.obj
 0003:00514940       ?ofunc@?1??hkFrameStageNotify@@YGXW4ClientFrameStage_t@@@Z@4P6GX0@ZA 105d6940     Hooks.obj
 0003:00514944       ?$TSS0@?1??hkFrameStageNotify@@YGXW4ClientFrameStage_t@@@Z@4HA 105d6944     Hooks.obj
 0003:00514948       ?mat@?1??GetCurrentMaterial@@YAPAVIMaterial@@H@Z@4PAV2@A 105d6948     Hooks.obj
 0003:0051494c       ?zmat@?1??GetCurrentZMaterial@@YAPAVIMaterial@@H@Z@4PAV2@A 105d694c     Hooks.obj
 0003:00514950       ?DontDraw@?1??hkDrawModelExecute@@YIXPAXH00ABUModelRenderInfo_t@@PAY123M@Z@4_NA 105d6950     Hooks.obj
 0003:00514954       ?ofunc@?1??hkDrawModelExecute@@YIXPAXH00ABUModelRenderInfo_t@@PAY123M@Z@4P6EX00012@ZA 105d6954     Hooks.obj
 0003:00514958       ?$TSS0@?1??hkDrawModelExecute@@YIXPAXH00ABUModelRenderInfo_t@@PAY123M@Z@4HA 105d6958     Hooks.obj
 0003:0051495c       ?norm@?1??hkDrawModelExecute@@YIXPAXH00ABUModelRenderInfo_t@@PAY123M@Z@4PAVIMaterial@@A 105d695c     Hooks.obj
 0003:00514960       ?$TSS1@?1??hkDrawModelExecute@@YIXPAXH00ABUModelRenderInfo_t@@PAY123M@Z@4HA 105d6960     Hooks.obj
 0003:00514964       ?flat@?1??hkDrawModelExecute@@YIXPAXH00ABUModelRenderInfo_t@@PAY123M@Z@4PAVIMaterial@@A 105d6964     Hooks.obj
 0003:00514968       ?$TSS2@?1??hkDrawModelExecute@@YIXPAXH00ABUModelRenderInfo_t@@PAY123M@Z@4HA 105d6968     Hooks.obj
 0003:0051496c       ?wire@?1??hkDrawModelExecute@@YIXPAXH00ABUModelRenderInfo_t@@PAY123M@Z@4PAVIMaterial@@A 105d696c     Hooks.obj
 0003:00514970       ?$TSS3@?1??hkDrawModelExecute@@YIXPAXH00ABUModelRenderInfo_t@@PAY123M@Z@4HA 105d6970     Hooks.obj
 0003:00514974       ?notignorez@?1??hkDrawModelExecute@@YIXPAXH00ABUModelRenderInfo_t@@PAY123M@Z@4PAVIMaterial@@A 105d6974     Hooks.obj
 0003:00514978       ?$TSS4@?1??hkDrawModelExecute@@YIXPAXH00ABUModelRenderInfo_t@@PAY123M@Z@4HA 105d6978     Hooks.obj
 0003:0051497c       ?znorm@?1??hkDrawModelExecute@@YIXPAXH00ABUModelRenderInfo_t@@PAY123M@Z@4PAVIMaterial@@A 105d697c     Hooks.obj
 0003:00514980       ?$TSS5@?1??hkDrawModelExecute@@YIXPAXH00ABUModelRenderInfo_t@@PAY123M@Z@4HA 105d6980     Hooks.obj
 0003:00514984       ?zflat@?1??hkDrawModelExecute@@YIXPAXH00ABUModelRenderInfo_t@@PAY123M@Z@4PAVIMaterial@@A 105d6984     Hooks.obj
 0003:00514988       ?$TSS6@?1??hkDrawModelExecute@@YIXPAXH00ABUModelRenderInfo_t@@PAY123M@Z@4HA 105d6988     Hooks.obj
 0003:0051498c       ?zwire@?1??hkDrawModelExecute@@YIXPAXH00ABUModelRenderInfo_t@@PAY123M@Z@4PAVIMaterial@@A 105d698c     Hooks.obj
 0003:00514990       ?$TSS7@?1??hkDrawModelExecute@@YIXPAXH00ABUModelRenderInfo_t@@PAY123M@Z@4HA 105d6990     Hooks.obj
 0003:00514994       ?Outline@?1??hkDrawModelExecute@@YIXPAXH00ABUModelRenderInfo_t@@PAY123M@Z@4PAVIMaterial@@A 105d6994     Hooks.obj
 0003:00514998       ?$TSS8@?1??hkDrawModelExecute@@YIXPAXH00ABUModelRenderInfo_t@@PAY123M@Z@4HA 105d6998     Hooks.obj
 0003:0051499c       ?ofunc@?1??hkPaintTraverse@@YIXPAXHI_N1@Z@4P6EX0I11@ZA 105d699c     Hooks.obj
 0003:005149a0       ?$TSS0@?1??hkPaintTraverse@@YIXPAXHI_N1@Z@4HA 105d69a0     Hooks.obj
 0003:005149a4       ?FocusOverlayPanel@?1??hkPaintTraverse@@YIXPAXHI_N1@Z@4IA 105d69a4     Hooks.obj
 0003:005149a8       ?FoundPanel@?1??hkPaintTraverse@@YIXPAXHI_N1@Z@4_NA 105d69a8     Hooks.obj
 0003:005149ac       ?linegoesthrusmoke@?BF@??hkPaintTraverse@@YIXPAXHI_N1@Z@4KA 105d69ac     Hooks.obj
 0003:005149b0       ?$TSS1@?BF@??hkPaintTraverse@@YIXPAXHI_N1@Z@4HA 105d69b0     Hooks.obj
 0003:005149b4       ?smokecout@?BF@??hkPaintTraverse@@YIXPAXHI_N1@Z@4KA 105d69b4     Hooks.obj
 0003:005149b8       ?ofunc@?1??hkGetViewModelFOV@@YIMPAX0@Z@4P6EM0@ZA 105d69b8     Hooks.obj
 0003:005149bc       ?$TSS0@?1??hkGetViewModelFOV@@YIMPAX0@Z@4HA 105d69bc     Hooks.obj
 0003:005149c0       ?ofunc@?1??hkOverrideView@@YIXPAX0PAUCViewSetup@@@Z@4P6EX01@ZA 105d69c0     Hooks.obj
 0003:005149c4       ?$TSS0@?1??hkOverrideView@@YIXPAX0PAUCViewSetup@@@Z@4HA 105d69c4     Hooks.obj
 0003:005149c8       ?enabledtp@?4??hkOverrideView@@YIXPAX0PAUCViewSetup@@@Z@4_NA 105d69c8     Hooks.obj
 0003:005149c9       ?check@?4??hkOverrideView@@YIXPAX0PAUCViewSetup@@@Z@4_NA 105d69c9     Hooks.obj
 0003:005149cc       ?ofunc@?1??hkSvCheatsGetBool@@YI_NPAX0@Z@4P6E_N0@ZA 105d69cc     Hooks.obj
 0003:005149d0       ?$TSS0@?1??hkSvCheatsGetBool@@YI_NPAX0@Z@4HA 105d69d0     Hooks.obj
 0003:005149fc       ?CL_FullUpdate@?1??FullUpdate@@YAXXZ@4P6AXXZA 105d69fc     Hooks.obj
 0003:00514a00       ?$TSS0@?1??FullUpdate@@YAXXZ@4HA 105d6a00     Hooks.obj
 0003:00514a04       ?g@?1??SubTab@@YAXPBDPAHH@Z@4MA 105d6a04     Hooks.obj
 0003:00514a08       ?b@?1??SubTab@@YAXPBDPAHH@Z@4MA 105d6a08     Hooks.obj
 0003:00514a0c       ?g@?BF@??RenderInterface@@YAXXZ@4MA 105d6a0c     Hooks.obj
 0003:00514a10       ?b@?BF@??RenderInterface@@YAXXZ@4MA 105d6a10     Hooks.obj
 0003:00514a14       ?g@?DP@??RenderInterface@@YAXXZ@4MA 105d6a14     Hooks.obj
 0003:00514a18       ?b@?DP@??RenderInterface@@YAXXZ@4MA 105d6a18     Hooks.obj
 0003:00514a1c       ?g@?HC@??RenderInterface@@YAXXZ@4MA 105d6a1c     Hooks.obj
 0003:00514a20       ?b@?HC@??RenderInterface@@YAXXZ@4MA 105d6a20     Hooks.obj
 0003:00514a24       ?subtab1@?HC@??RenderInterface@@YAXXZ@4HA 105d6a24     Hooks.obj
 0003:00514a28       ?g@?KA@??RenderInterface@@YAXXZ@4MA 105d6a28     Hooks.obj
 0003:00514a2c       ?b@?KA@??RenderInterface@@YAXXZ@4MA 105d6a2c     Hooks.obj
 0003:00514a30       ?g@?ME@??RenderInterface@@YAXXZ@4MA 105d6a30     Hooks.obj
 0003:00514a34       ?b@?ME@??RenderInterface@@YAXXZ@4MA 105d6a34     Hooks.obj
 0003:00514a38       ?name@?OG@??RenderInterface@@YAXXZ@4PAVConVar@@A 105d6a38     Hooks.obj
 0003:00514a3c       ?$TSS0@?OG@??RenderInterface@@YAXXZ@4HA 105d6a3c     Hooks.obj
 0003:00514a40       ?filterWeapons@?OP@??RenderInterface@@YAXXZ@4PADA 105d6a40     Hooks.obj
 0003:00514a60       ?filterSkins@?OP@??RenderInterface@@YAXXZ@4PADA 105d6a60     Hooks.obj
 0003:00514a80       ?g@?PC@??RenderInterface@@YAXXZ@4MA 105d6a80     Hooks.obj
 0003:00514a84       ?b@?PC@??RenderInterface@@YAXXZ@4MA 105d6a84     Hooks.obj
 0003:00514a88       ?g@?BIF@??RenderInterface@@YAXXZ@4MA 105d6a88     Hooks.obj
 0003:00514a8c       ?b@?BIF@??RenderInterface@@YAXXZ@4MA 105d6a8c     Hooks.obj
 0003:00514a90       ?mouse_enabled@?1??hkPresent@@YGJPAUIDirect3DDevice9@@PAUtagRECT@@1PAUHWND__@@PAU_RGNDATA@@@Z@4_NA 105d6a90     Hooks.obj
 0003:00514a94       ?ofunc@?1??hkPlaySound@@YGXPBD@Z@4P6EXPAX0@ZA 105d6a94     Hooks.obj
 0003:00514a98       ?$TSS0@?1??hkPlaySound@@YGXPBD@Z@4HA 105d6a98     Hooks.obj
 0003:00514a9c       ?CServerConfirmedReservationCheckCallback__IsReady@?6??hkPlaySound@@YGXPBD@Z@4P6AXXZA 105d6a9c     Hooks.obj
 0003:00514aa0       ?$TSS1@?6??hkPlaySound@@YGXPBD@Z@4HA 105d6aa0     Hooks.obj
 0003:00514aa4       ?ofunc@?1??hkDoPostScreenSpaceEffects@@YI_NPAX0PAUCViewSetup@@@Z@4P6E_N01@ZA 105d6aa4     Hooks.obj
 0003:00514aa8       ?$TSS0@?1??hkDoPostScreenSpaceEffects@@YI_NPAX0PAUCViewSetup@@@Z@4HA 105d6aa8     Hooks.obj
 0003:00514aac       ?unk@?1??IsConnected@@YG_NXZ@4PAXA 105d6aac     Hooks.obj
 0003:00514ab0       ?$TSS0@?1??IsConnected@@YG_NXZ@4HA 105d6ab0     Hooks.obj
 0003:00514b58       ?g_Time@@3_JA              105d6b58     imgui_impl_dx9.obj
 0003:00514b60       ?g_TicksPerSecond@@3_JA    105d6b60     imgui_impl_dx9.obj
 0003:00514b68       ?g_pVB@@3PAUIDirect3DVertexBuffer9@@A 105d6b68     imgui_impl_dx9.obj
 0003:00514b6c       ?g_pIB@@3PAUIDirect3DIndexBuffer9@@A 105d6b6c     imgui_impl_dx9.obj
 0003:00514b70       ?g_FontTexture@@3PAUIDirect3DTexture9@@A 105d6b70     imgui_impl_dx9.obj
 0003:00514b74       ?g_hWnd@@3PAUHWND__@@A     105d6b74     imgui_impl_dx9.obj
 0003:00514b78       ?g_pd3dDevice@@3PAUIDirect3DDevice9@@A 105d6b78     imgui_impl_dx9.obj
 0003:00514b80       ?GImDefaultFontAtlas@@3UImFontAtlas@@A 105d6b80     imgui.obj
 0003:00514bb8       ?GImDefaultContext@@3UImGuiContext@@A 105d6bb8     imgui.obj
 0003:00518158       ?crc32_lut@?1??ImHash@@YAIPBXHI@Z@4PAIA 105da158     imgui.obj
 0003:00518558       ?buf_local@?1??GetClipboardTextFn_DefaultImpl@@YAPBDPAX@Z@4V?$ImVector@D@@A 105da558     imgui.obj
 0003:00518564       ?$TSS0@?1??GetClipboardTextFn_DefaultImpl@@YAPBDPAX@Z@4HA 105da564     imgui.obj
 0003:00518568       ?circle_vtx@?1??PathArcToFast@ImDrawList@@QAEXABUImVec2@@MHH@Z@4PAU3@A 105da568     imgui_draw.obj
 0003:005185c8       ?$TSS0@?1??PathArcToFast@ImDrawList@@QAEXABUImVec2@@MHH@Z@4HA 105da5c8     imgui_draw.obj
 0003:005185cc       ?circle_vtx_builds@?1??PathArcToFast@ImDrawList@@QAEXABUImVec2@@MHH@Z@4_NA 105da5cc     imgui_draw.obj
 0003:005185d0       ?stb__barrier@@3PAEA       105da5d0     imgui_draw.obj
 0003:005185d4       ?stb__barrier2@@3PAEA      105da5d4     imgui_draw.obj
 0003:005185d8       ?stb__barrier3@@3PAEA      105da5d8     imgui_draw.obj
 0003:005185dc       ?stb__barrier4@@3PAEA      105da5dc     imgui_draw.obj
 0003:005185e0       ?stb__dout@@3PAEA          105da5e0     imgui_draw.obj
 0003:00518654       ?w_printf@XorCompileTime@@3V<lambda>@@A 105da654     Interfaces.obj
 0003:00518655       ?w_printf_s@XorCompileTime@@3V<lambda>@@A 105da655     Interfaces.obj
 0003:00518656       ?w_sprintf_s@XorCompileTime@@3V<lambda>@@A 105da656     Interfaces.obj
 0003:00518657       ?w_sprintf@XorCompileTime@@3V<lambda>@@A 105da657     Interfaces.obj
 0003:00518658       ?ItemDefinitionIndexMap@@3V?$map@W4ItemDefinitionIndexx@@UDefItem_t@@U?$less@W4ItemDefinitionIndexx@@@std@@V?$allocator@U?$pair@$$CBW4ItemDefinitionIndexx@@UDefItem_t@@@std@@@4@@std@@B 105da658     Interfaces.obj
 0003:00518660       ?vec2_origin@@3VVector2D@@B 105da660     Interfaces.obj
 0003:00518668       ?pThis@?1???$FindHudElement@VCHudChat@@@@YAPAVCHudChat@@PBD@Z@4PAKA 105da668     Interfaces.obj
 0003:0051866c       ?$TSS0@?1???$FindHudElement@VCHudChat@@@@YAPAVCHudChat@@PBD@Z@4HA 105da66c     Interfaces.obj
 0003:00518670       ?find_hud_element@?1???$FindHudElement@VCHudChat@@@@YAPAVCHudChat@@PBD@Z@4P6EKPAX0@ZA 105da670     Interfaces.obj
 0003:00518674       ?$TSS1@?1???$FindHudElement@VCHudChat@@@@YAPAVCHudChat@@PBD@Z@4HA 105da674     Interfaces.obj
 0003:00518678       ?sequences@@3V?$deque@UCIncomingSequence@@V?$allocator@UCIncomingSequence@@@std@@@std@@A 105da678     LagComp.obj
 0003:0051868c       ?w_printf@XorCompileTime@@3V<lambda>@@A 105da68c     LagComp.obj
 0003:0051868d       ?w_printf_s@XorCompileTime@@3V<lambda>@@A 105da68d     LagComp.obj
 0003:0051868e       ?w_sprintf_s@XorCompileTime@@3V<lambda>@@A 105da68e     LagComp.obj
 0003:0051868f       ?w_sprintf@XorCompileTime@@3V<lambda>@@A 105da68f     LagComp.obj
 0003:00518690       ?ItemDefinitionIndexMap@@3V?$map@W4ItemDefinitionIndexx@@UDefItem_t@@U?$less@W4ItemDefinitionIndexx@@@std@@V?$allocator@U?$pair@$$CBW4ItemDefinitionIndexx@@UDefItem_t@@@std@@@4@@std@@B 105da690     LagComp.obj
 0003:0051b6a0       ?vec2_origin@@3VVector2D@@B 105dd6a0     LagComp.obj
 0003:0051b6a9       ?w_printf@XorCompileTime@@3V<lambda>@@A 105dd6a9     LegitBot.obj
 0003:0051b6aa       ?w_printf_s@XorCompileTime@@3V<lambda>@@A 105dd6aa     LegitBot.obj
 0003:0051b6ab       ?w_sprintf_s@XorCompileTime@@3V<lambda>@@A 105dd6ab     LegitBot.obj
 0003:0051b6ac       ?ItemDefinitionIndexMap@@3V?$map@W4ItemDefinitionIndexx@@UDefItem_t@@U?$less@W4ItemDefinitionIndexx@@@std@@V?$allocator@U?$pair@$$CBW4ItemDefinitionIndexx@@UDefItem_t@@@std@@@4@@std@@B 105dd6ac     LegitBot.obj
 0003:0051b6b4       ?w_sprintf@XorCompileTime@@3V<lambda>@@A 105dd6b4     LegitBot.obj
 0003:0051b6b8       ?vec2_origin@@3VVector2D@@B 105dd6b8     LegitBot.obj
 0003:0051b6c0       ?custom_delay@@3HA         105dd6c0     LegitBot.obj
 0003:0051b6dc       ?yFlip@?6??LegitAA@legitbot@@QAEXPAVCUserCmd@CInput@@AA_N@Z@4_NA 105dd6dc     LegitBot.obj
 0003:0051b6e0       ?hitboxes@?1??get_hitbox@legitbot@@AAE_NPAVC_BaseEntity@@0AAVVector@@@Z@4V?$vector@HV?$allocator@H@std@@@std@@B 105dd6e0     LegitBot.obj
 0003:0051b6ec       ?$TSS0@?1??get_hitbox@legitbot@@AAE_NPAVC_BaseEntity@@0AAVVector@@@Z@4HA 105dd6ec     LegitBot.obj
 0003:0051b6f0       ?GoesThroughSmokeOffset@?L@??get_target@legitbot@@AAEHPAVC_BaseEntity@@PAVCBaseCombatWeapon@@PAVCUserCmd@CInput@@AAVVector@@@Z@4IA 105dd6f0     LegitBot.obj
 0003:0051b6f4       ?$TSS0@?L@??get_target@legitbot@@AAEHPAVC_BaseEntity@@PAVCBaseCombatWeapon@@PAVCUserCmd@CInput@@AAVVector@@@Z@4HA 105dd6f4     LegitBot.obj
 0003:0051b6f8       ?GoesThroughSmokeFunction@?L@??get_target@legitbot@@AAEHPAVC_BaseEntity@@PAVCBaseCombatWeapon@@PAVCUserCmd@CInput@@AAVVector@@@Z@4P6A_NV7@4@ZA 105dd6f8     LegitBot.obj
 0003:0051ba38       ?w_printf@XorCompileTime@@3V<lambda>@@A 105dda38     memesets.obj
 0003:0051ba39       ?w_printf_s@XorCompileTime@@3V<lambda>@@A 105dda39     memesets.obj
 0003:0051ba3a       ?w_sprintf_s@XorCompileTime@@3V<lambda>@@A 105dda3a     memesets.obj
 0003:0051ba3b       ?w_sprintf@XorCompileTime@@3V<lambda>@@A 105dda3b     memesets.obj
 0003:0051ba3c       ?ItemDefinitionIndexMap@@3V?$map@W4ItemDefinitionIndexx@@UDefItem_t@@U?$less@W4ItemDefinitionIndexx@@@std@@V?$allocator@U?$pair@$$CBW4ItemDefinitionIndexx@@UDefItem_t@@@std@@@4@@std@@B 105dda3c     memesets.obj
 0003:0051ba48       ?vec2_origin@@3VVector2D@@B 105dda48     memesets.obj
 0003:0051ba55       ?w_printf@XorCompileTime@@3V<lambda>@@A 105dda55     Misc.obj
 0003:0051ba56       ?w_printf_s@XorCompileTime@@3V<lambda>@@A 105dda56     Misc.obj
 0003:0051ba57       ?w_sprintf_s@XorCompileTime@@3V<lambda>@@A 105dda57     Misc.obj
 0003:0051ba58       ?ItemDefinitionIndexMap@@3V?$map@W4ItemDefinitionIndexx@@UDefItem_t@@U?$less@W4ItemDefinitionIndexx@@@std@@V?$allocator@U?$pair@$$CBW4ItemDefinitionIndexx@@UDefItem_t@@@std@@@4@@std@@B 105dda58     Misc.obj
 0003:0051ba60       ?w_sprintf@XorCompileTime@@3V<lambda>@@A 105dda60     Misc.obj
 0003:0051ba64       ?vec2_origin@@3VVector2D@@B 105dda64     Misc.obj
 0003:0051ba7c       ?jumped_last_tick@?EF@??OnCreateMove@misc@@QAEXPAVCUserCmd@CInput@@PAVC_BaseEntity@@AA_N@Z@4_NA 105dda7c     Misc.obj
 0003:0051ba7d       ?should_fake_jump@?EF@??OnCreateMove@misc@@QAEXPAVCUserCmd@CInput@@PAVC_BaseEntity@@AA_N@Z@4_NA 105dda7d     Misc.obj
 0003:0051ba80       ?counter@?FI@??OnCreateMove@misc@@QAEXPAVCUserCmd@CInput@@PAVC_BaseEntity@@AA_N@Z@4HA 105dda80     Misc.obj
 0003:0051ba84       ?motion@?FI@??OnCreateMove@misc@@QAEXPAVCUserCmd@CInput@@PAVC_BaseEntity@@AA_N@Z@4HA 105dda84     Misc.obj
 0003:0051ba88       ?counter@?GH@??OnCreateMove@misc@@QAEXPAVCUserCmd@CInput@@PAVC_BaseEntity@@AA_N@Z@4HA 105dda88     Misc.obj
 0003:0051ba8c       ?motion@?GH@??OnCreateMove@misc@@QAEXPAVCUserCmd@CInput@@PAVC_BaseEntity@@AA_N@Z@4HA 105dda8c     Misc.obj
 0003:0051ba90       ?counter@?HG@??OnCreateMove@misc@@QAEXPAVCUserCmd@CInput@@PAVC_BaseEntity@@AA_N@Z@4HA 105dda90     Misc.obj
 0003:0051ba94       ?motion@?HG@??OnCreateMove@misc@@QAEXPAVCUserCmd@CInput@@PAVC_BaseEntity@@AA_N@Z@4HA 105dda94     Misc.obj
 0003:0051ba98       ?counter@?IF@??OnCreateMove@misc@@QAEXPAVCUserCmd@CInput@@PAVC_BaseEntity@@AA_N@Z@4HA 105dda98     Misc.obj
 0003:0051ba9c       ?motion@?IF@??OnCreateMove@misc@@QAEXPAVCUserCmd@CInput@@PAVC_BaseEntity@@AA_N@Z@4HA 105dda9c     Misc.obj
 0003:0051baa0       ?counter@?JE@??OnCreateMove@misc@@QAEXPAVCUserCmd@CInput@@PAVC_BaseEntity@@AA_N@Z@4HA 105ddaa0     Misc.obj
 0003:0051baa4       ?motion@?JE@??OnCreateMove@misc@@QAEXPAVCUserCmd@CInput@@PAVC_BaseEntity@@AA_N@Z@4HA 105ddaa4     Misc.obj
 0003:0051baa8       ?WasFiring@?1??OnCreateMove@misc@@QAEXPAVCUserCmd@CInput@@PAVC_BaseEntity@@AA_N@Z@4_NA 105ddaa8     Misc.obj
 0003:0051baac       ?lastTime@?1??OnCreateMove@misc@@QAEXPAVCUserCmd@CInput@@PAVC_BaseEntity@@AA_N@Z@4IA 105ddaac     Misc.obj
 0003:0051bab0       ?counter@?1??OnCreateMove@misc@@QAEXPAVCUserCmd@CInput@@PAVC_BaseEntity@@AA_N@Z@4HA 105ddab0     Misc.obj
 0003:0051bab4       ?name@?NJ@??OnCreateMove@misc@@QAEXPAVCUserCmd@CInput@@PAVC_BaseEntity@@AA_N@Z@4PAVConVar@@A 105ddab4     Misc.obj
 0003:0051bab8       ?$TSS0@?NJ@??OnCreateMove@misc@@QAEXPAVCUserCmd@CInput@@PAVC_BaseEntity@@AA_N@Z@4HA 105ddab8     Misc.obj
 0003:0051babc       ?developer@?1??logsrun@misc@@QAEXXZ@4PAVConVar@@A 105ddabc     Misc.obj
 0003:0051bac0       ?$TSS0@?1??logsrun@misc@@QAEXXZ@4HA 105ddac0     Misc.obj
 0003:0051bac4       ?con_filter_text@?1??logsrun@misc@@QAEXXZ@4PAVConVar@@A 105ddac4     Misc.obj
 0003:0051bac8       ?$TSS1@?1??logsrun@misc@@QAEXXZ@4HA 105ddac8     Misc.obj
 0003:0051bacc       ?con_filter_text_out@?1??logsrun@misc@@QAEXXZ@4PAVConVar@@A 105ddacc     Misc.obj
 0003:0051bad0       ?$TSS2@?1??logsrun@misc@@QAEXXZ@4HA 105ddad0     Misc.obj
 0003:0051bad4       ?con_filter_enable@?1??logsrun@misc@@QAEXXZ@4PAVConVar@@A 105ddad4     Misc.obj
 0003:0051bad8       ?$TSS3@?1??logsrun@misc@@QAEXXZ@4HA 105ddad8     Misc.obj
 0003:0051badc       ?developer@?1??logsrun2@misc@@QAEXXZ@4PAVConVar@@A 105ddadc     Misc.obj
 0003:0051bae0       ?$TSS0@?1??logsrun2@misc@@QAEXXZ@4HA 105ddae0     Misc.obj
 0003:0051bae4       ?con_filter_text@?1??logsrun2@misc@@QAEXXZ@4PAVConVar@@A 105ddae4     Misc.obj
 0003:0051bae8       ?$TSS1@?1??logsrun2@misc@@QAEXXZ@4HA 105ddae8     Misc.obj
 0003:0051baec       ?con_filter_text_out@?1??logsrun2@misc@@QAEXXZ@4PAVConVar@@A 105ddaec     Misc.obj
 0003:0051baf0       ?$TSS2@?1??logsrun2@misc@@QAEXXZ@4HA 105ddaf0     Misc.obj
 0003:0051baf4       ?con_filter_enable@?1??logsrun2@misc@@QAEXXZ@4PAVConVar@@A 105ddaf4     Misc.obj
 0003:0051baf8       ?$TSS3@?1??logsrun2@misc@@QAEXXZ@4HA 105ddaf8     Misc.obj
 0003:0051bafc       ?Strafer@?1??AutoStrafe@misc@@SAXPAVCUserCmd@CInput@@PAVC_BaseEntity@@VVector@@@Z@4VAutoStrafer@@A 105ddafc     Misc.obj
 0003:0051bb00       ?zhop@?BF@??AutoStrafe@misc@@SAXPAVCUserCmd@CInput@@PAVC_BaseEntity@@VVector@@@Z@4HA 105ddb00     Misc.obj
 0003:0051bb04       ?w_printf@XorCompileTime@@3V<lambda>@@A 105ddb04     NetVarManager.obj
 0003:0051bb05       ?w_printf_s@XorCompileTime@@3V<lambda>@@A 105ddb05     NetVarManager.obj
 0003:0051bb06       ?w_sprintf_s@XorCompileTime@@3V<lambda>@@A 105ddb06     NetVarManager.obj
 0003:0051bb07       ?w_sprintf@XorCompileTime@@3V<lambda>@@A 105ddb07     NetVarManager.obj
 0003:0051bb08       ?ItemDefinitionIndexMap@@3V?$map@W4ItemDefinitionIndexx@@UDefItem_t@@U?$less@W4ItemDefinitionIndexx@@@std@@V?$allocator@U?$pair@$$CBW4ItemDefinitionIndexx@@UDefItem_t@@@std@@@4@@std@@B 105ddb08     NetVarManager.obj
 0003:0051bb14       ?vec2_origin@@3VVector2D@@B 105ddb14     NetVarManager.obj
 0003:0051bb1d       ?w_printf@XorCompileTime@@3V<lambda>@@A 105ddb1d     RageBot.obj
 0003:0051bb1e       ?w_printf_s@XorCompileTime@@3V<lambda>@@A 105ddb1e     RageBot.obj
 0003:0051bb1f       ?w_sprintf_s@XorCompileTime@@3V<lambda>@@A 105ddb1f     RageBot.obj
 0003:0051bb20       ?ItemDefinitionIndexMap@@3V?$map@W4ItemDefinitionIndexx@@UDefItem_t@@U?$less@W4ItemDefinitionIndexx@@@std@@V?$allocator@U?$pair@$$CBW4ItemDefinitionIndexx@@UDefItem_t@@@std@@@4@@std@@B 105ddb20     RageBot.obj
 0003:0051bb28       ?w_sprintf@XorCompileTime@@3V<lambda>@@A 105ddb28     RageBot.obj
 0003:0051bb2c       ?vec2_origin@@3VVector2D@@B 105ddb2c     RageBot.obj
 0003:0051bb34       ?WasFiring@?1??DoAimbot@ragebot@@AAEXPAVCUserCmd@CInput@@AA_N@Z@4_NA 105ddb34     RageBot.obj
 0003:0051bb38       ?baim@?1??HitScan@ragebot@@AAEHPAVC_BaseEntity@@@Z@4V?$vector@HV?$allocator@H@std@@@std@@A 105ddb38     RageBot.obj
 0003:0051bb44       ?$TSS0@?1??HitScan@ragebot@@AAEHPAVC_BaseEntity@@@Z@4HA 105ddb44     RageBot.obj
 0003:0051bb48       ?ticks@?1??DoAntiAim@ragebot@@AAEXPAVCUserCmd@CInput@@AA_N@Z@4HA 105ddb48     RageBot.obj
 0003:0051bb4c       ?flip@?1??DoAntiAim@ragebot@@AAEXPAVCUserCmd@CInput@@AA_N@Z@4_NA 105ddb4c     RageBot.obj
 0003:0051bb4d       ?dir@?CC@??DoAntiAim@ragebot@@AAEXPAVCUserCmd@CInput@@AA_N@Z@4_NA 105ddb4d     RageBot.obj
 0003:0051bb4e       ?dir@?DO@??DoAntiAim@ragebot@@AAEXPAVCUserCmd@CInput@@AA_N@Z@4_NA 105ddb4e     RageBot.obj
 0003:0051bb50       ?jitterangle@?DO@??DoAntiAim@ragebot@@AAEXPAVCUserCmd@CInput@@AA_N@Z@4HA 105ddb50     RageBot.obj
 0003:0051bb54       ?llamaflip@?HI@??DoAntiAim@ragebot@@AAEXPAVCUserCmd@CInput@@AA_N@Z@4_NA 105ddb54     RageBot.obj
 0003:0051bb58       ?oldLBY@?HI@??DoAntiAim@ragebot@@AAEXPAVCUserCmd@CInput@@AA_N@Z@4MA 105ddb58     RageBot.obj
 0003:0051bb5c       ?dir@?HM@??DoAntiAim@ragebot@@AAEXPAVCUserCmd@CInput@@AA_N@Z@4_NA 105ddb5c     RageBot.obj
 0003:0051bb5d       ?dir@?IO@??DoAntiAim@ragebot@@AAEXPAVCUserCmd@CInput@@AA_N@Z@4_NA 105ddb5d     RageBot.obj
 0003:0051bb60       ?jitterangle@?IO@??DoAntiAim@ragebot@@AAEXPAVCUserCmd@CInput@@AA_N@Z@4HA 105ddb60     RageBot.obj
 0003:0051bb64       ?jitterangle@?LK@??DoAntiAim@ragebot@@AAEXPAVCUserCmd@CInput@@AA_N@Z@4HA 105ddb64     RageBot.obj
 0003:0051bb68       ?jitterangle@?MO@??DoAntiAim@ragebot@@AAEXPAVCUserCmd@CInput@@AA_N@Z@4HA 105ddb68     RageBot.obj
 0003:0051bb78       ?w_printf@XorCompileTime@@3V<lambda>@@A 105ddb78     Render.obj
 0003:0051bb79       ?w_printf_s@XorCompileTime@@3V<lambda>@@A 105ddb79     Render.obj
 0003:0051bb7a       ?w_sprintf_s@XorCompileTime@@3V<lambda>@@A 105ddb7a     Render.obj
 0003:0051bb7b       ?w_sprintf@XorCompileTime@@3V<lambda>@@A 105ddb7b     Render.obj
 0003:0051bb7c       ?ItemDefinitionIndexMap@@3V?$map@W4ItemDefinitionIndexx@@UDefItem_t@@U?$less@W4ItemDefinitionIndexx@@@std@@V?$allocator@U?$pair@$$CBW4ItemDefinitionIndexx@@UDefItem_t@@@std@@@4@@std@@B 105ddb7c     Render.obj
 0003:0051bb84       ?vec2_origin@@3VVector2D@@B 105ddb84     Render.obj
 0003:0051bb8c       ?w_printf@XorCompileTime@@3V<lambda>@@A 105ddb8c     SpoofedConvar.obj
 0003:0051bb8d       ?w_printf_s@XorCompileTime@@3V<lambda>@@A 105ddb8d     SpoofedConvar.obj
 0003:0051bb8e       ?w_sprintf_s@XorCompileTime@@3V<lambda>@@A 105ddb8e     SpoofedConvar.obj
 0003:0051bb8f       ?w_sprintf@XorCompileTime@@3V<lambda>@@A 105ddb8f     SpoofedConvar.obj
 0003:0051bb90       ?ItemDefinitionIndexMap@@3V?$map@W4ItemDefinitionIndexx@@UDefItem_t@@U?$less@W4ItemDefinitionIndexx@@@std@@V?$allocator@U?$pair@$$CBW4ItemDefinitionIndexx@@UDefItem_t@@@std@@@4@@std@@B 105ddb90     SpoofedConvar.obj
 0003:0051bb98       ?vec2_origin@@3VVector2D@@B 105ddb98     SpoofedConvar.obj
 0003:0051bbc4       ?w_printf@XorCompileTime@@3V<lambda>@@A 105ddbc4     MiscFunctions.obj
 0003:0051bbc5       ?w_printf_s@XorCompileTime@@3V<lambda>@@A 105ddbc5     MiscFunctions.obj
 0003:0051bbc6       ?w_sprintf_s@XorCompileTime@@3V<lambda>@@A 105ddbc6     MiscFunctions.obj
 0003:0051bbc7       ?w_sprintf@XorCompileTime@@3V<lambda>@@A 105ddbc7     MiscFunctions.obj
 0003:0051bbc8       ?ItemDefinitionIndexMap@@3V?$map@W4ItemDefinitionIndexx@@UDefItem_t@@U?$less@W4ItemDefinitionIndexx@@@std@@V?$allocator@U?$pair@$$CBW4ItemDefinitionIndexx@@UDefItem_t@@@std@@@4@@std@@B 105ddbc8     MiscFunctions.obj
 0003:0051bc48       ?vec2_origin@@3VVector2D@@B 105ddc48     MiscFunctions.obj
 0003:0051bc50       ?TraceToExit@?1??0@YA_NAAVVector@@AAVCGameTrace@@V1@2PAV2@@Z@4KA 105ddc50     MiscFunctions.obj
 0003:0051bc54       ?$TSS0@?1??TraceToExit@@YA_NAAVVector@@AAVCGameTrace@@V2@2PAV3@@Z@4HA 105ddc54     MiscFunctions.obj
 0003:0051bc59       ?pattern_to_byte@?1??pattern_scan@U@@YAPAEPAXPBD@Z@4V<lambda>@@A 105ddc59     Utilities.obj
 0003:0051bc84       ?module_local_atexit_table@@3U_onexit_table_t@@A 105ddc84     LIBCMT:utility.obj
 0003:0051bc90       ?module_local_at_quick_exit_table@@3U_onexit_table_t@@A 105ddc90     LIBCMT:utility.obj
 0003:0051bc9c       ?module_local_atexit_table_initialized@@3_NA 105ddc9c     LIBCMT:utility.obj
 0003:0051bc9d       ?is_initialized_as_dll@@3_NA 105ddc9d     LIBCMT:utility.obj
 0003:0051bca0       ?_Tss_mutex@@3U_RTL_CRITICAL_SECTION@@A 105ddca0     LIBCMT:thread_safe_statics.obj
 0003:0051bcb8       ?_Tss_cv@@3U_RTL_CONDITION_VARIABLE@@A 105ddcb8     LIBCMT:thread_safe_statics.obj
 0003:0051bcbc       ?_Tss_event@@3PAXA         105ddcbc     LIBCMT:thread_safe_statics.obj
 0003:0051bcc0       ?encoded_sleep_condition_variable_cs@@3P6GHPAU_RTL_CONDITION_VARIABLE@@PAU_RTL_CRITICAL_SECTION@@K@ZA 105ddcc0     LIBCMT:thread_safe_statics.obj
 0003:0051bcc4       ?encoded_wake_all_condition_variable@@3P6GXPAU_RTL_CONDITION_VARIABLE@@@ZA 105ddcc4     LIBCMT:thread_safe_statics.obj
 0003:0051bcd0       _GS_ExceptionRecord        105ddcd0     LIBCMT:gs_report.obj
 0003:0051bd20       _GS_ContextRecord          105ddd20     LIBCMT:gs_report.obj
 0003:0051bfec       ?__proc_attached@@3HA      105ddfec     LIBCMT:dll_dllmain.obj
 0003:0051c00c       ?stdstr@std@@3PAPAVios_base@1@A 105de00c     libcpmt:ios.obj
 0003:0051c034       ?stdopens@std@@3PADA       105de034     libcpmt:ios.obj
 0003:0051c040       ?initlocks@std@@3V_Init_locks@1@A 105de040     libcpmt:xlock.obj
 0003:0051c048       ?mtx@std@@3PAU_RTL_CRITICAL_SECTION@@A 105de048     libcpmt:xlock.obj
 0003:0051c10c       _global_locale             105de10c     libcpmt:locale0.obj
 0003:0051c110       ?_Fac_head@std@@3PAU_Fac_node@1@A 105de110     libcpmt:locale0.obj
 0003:0051c12c       ?classic_locale@std@@3Vlocale@1@A 105de12c     libcpmt:locale0.obj
 0003:0051c134       ?_Fac_tidy_reg@std@@3U_Fac_tidy_reg_t@1@B 105de134     libcpmt:locale0.obj
 0003:0051c135       ?registered@?1??_Setgloballocale@locale@std@@CAXPAX@Z@4_NA 105de135     libcpmt:locale0.obj
 0003:0051c158       ?atfuns_cdecl@@3PAP6AXXZA  105de158     libcpmt:iosptrs.obj
 0003:0051c180       ?initlocks@std@@3V_Init_locks@1@A 105de180     libcpmt:iosptrs.obj
 0003:0051c181       ?init_atexit@@3U_Init_atexit@@A 105de181     libcpmt:iosptrs.obj
 0003:0051c2ac       ?module_handles@@3PAPAUHINSTANCE__@@A 105de2ac     libvcruntime:winapi_downlevel.obj
 0003:0051c2b8       ?encoded_function_pointers@@3PAPAXA 105de2b8     libvcruntime:winapi_downlevel.obj
 0003:0051c2d0       ?__vcrt_startup_thread_ptd@@3U__vcrt_ptd@@A 105de2d0     libvcruntime:per_thread_data.obj
 0003:0051c2f8       ___vcrt_lock_table         105de2f8     libvcruntime:locks.obj
 0003:0051c310       ___vcrt_locks_initialized  105de310     libvcruntime:locks.obj
 0003:0051c33c       ?heap@@3V_HeapManager@@A   105de33c     libvcruntime:undname.obj
 0003:0051c350       ?__acrt_invalid_parameter_handler@@3V?$dual_state_global@P6AXPB_W00II@Z@__crt_state_management@@A 105de350     libucrt:invalid_parameter.obj
 0003:0051c354       ?static_buffer@?1???$common_asctime@D@@YAPADQBUtm@@@Z@4PADA 105de354     libucrt:asctime.obj
 0003:0051c37c       ?__acrt_new_handler@@3V?$dual_state_global@P6AHI@Z@__crt_state_management@@A 105de37c     libucrt:new_handler.obj
 0003:0051c380       ?c_termination_complete@@3JA 105de380     libucrt:exit.obj
 0003:0051c384       ?thread_local_exit_callback_func@@3P6GXPAXK0@ZA 105de384     libucrt:exit.obj
 0003:0051c390       ?program_name@?1???$common_configure_argv@D@@YAHW4_crt_argv_mode@@@Z@4PADA 105de390     libucrt:argv_parsing.obj
 0003:0051c4c0       ?__acrt_lock_table@@3PAU_RTL_CRITICAL_SECTION@@A 105de4c0     libucrt:locks.obj
 0003:0051c610       ?__acrt_locks_initialized@@3IA 105de610     libucrt:locks.obj
 0003:0051c82c       __pmatherr_set             105de82c     libucrt:libm_error.obj
 0003:0051c830       ?enable_percent_n@@3IA     105de830     libucrt:printf_count_output.obj
 0003:0051c848       ?_tzname@@3V?$dual_state_global@PAPAD@__crt_state_management@@A 105de848     libucrt:timeset.obj
 0003:0051c84c       ?last_tz@@3PADA            105de84c     libucrt:tzset.obj
 0003:0051c850       ?tz_api_used@@3HA          105de850     libucrt:tzset.obj
 0003:0051c858       ?tz_info@@3U_TIME_ZONE_INFORMATION@@A 105de858     libucrt:tzset.obj
 0003:0051c904       ?first_time@?1??__tzset@@9@4JA 105de904     libucrt:tzset.obj
 0003:0051c908       ?module_handles@@3PAPAUHINSTANCE__@@A 105de908     libucrt:winapi_thunks.obj
 0003:0051c958       ?encoded_function_pointers@@3PAPAXA 105de958     libucrt:winapi_thunks.obj
 0003:0051c9e0       ?static_enum_proc@?1??enum_system_locales_ex_nolock@@YAHQ6GHPA_WKJ@Z@Z@4P6GH0KJ@ZA 105de9e0     libucrt:winapi_thunks.obj
 0003:0051c9f0       ?fSystemSet@@3HA           105de9f0     libucrt:mbctype.obj
 0003:0051c9f4       ?initialized@?1??__acrt_initialize_multibyte@@9@4_NA 105de9f4     libucrt:mbctype.obj
 0003:0051ca14       ?ctrlc_action@@3V?$dual_state_global@P6AXH@Z@__crt_state_management@@A 105dea14     libucrt:signal.obj
 0003:0051ca18       ?ctrlbreak_action@@3V?$dual_state_global@P6AXH@Z@__crt_state_management@@A 105dea18     libucrt:signal.obj
 0003:0051ca1c       ?abort_action@@3V?$dual_state_global@P6AXH@Z@__crt_state_management@@A 105dea1c     libucrt:signal.obj
 0003:0051ca20       ?term_action@@3V?$dual_state_global@P6AXH@Z@__crt_state_management@@A 105dea20     libucrt:signal.obj
 0003:0051ca24       ?user_matherr@@3V?$dual_state_global@P6AHPAU_exception@@@Z@__crt_state_management@@A 105dea24     libucrt:matherr.obj
 0003:0051ca28       ?__acrt_global_new_mode@@3V?$dual_state_global@J@__crt_state_management@@A 105dea28     libucrt:new_mode.obj
 0003:0051ca34       ?__acrt_app_type@@3W4_crt_app_type@@A 105dea34     libucrt:report_runtime_error.obj
 0004:00000000       _static_const_table        105df000     LIBCMT:_svml_dcos2_sse2_.obj
 0004:00000200       _static_const_table        105df200     LIBCMT:_svml_dsin2_sse2_.obj
 0004:00000400       __e02PI                    105df400     LIBCMT:_svml_dtrig_.obj
 0004:000005a0       __e04PI                    105df5a0     LIBCMT:_svml_dtrig_.obj
 0004:00000730       _2il0floatpacket_2         105df730     LIBCMT:_svml_dtrig_.obj
 0004:00000740       _2il0floatpacket_9         105df740     LIBCMT:_svml_dtrig_.obj
 0004:00000750       _2il0floatpacket_12        105df750     LIBCMT:_svml_dtrig_.obj
 0004:00000760       __dPI02                    105df760     LIBCMT:_svml_dtrig_.obj
 0004:00000770       __d02PI                    105df770     LIBCMT:_svml_dtrig_.obj
 0004:00000780       __DP4                      105df780     LIBCMT:_svml_dtrig_.obj
 0004:000007a0       __dPI04                    105df7a0     LIBCMT:_svml_dtrig_.obj
 0004:000007b0       __d04PI                    105df7b0     LIBCMT:_svml_dtrig_.obj
 0004:000007c0       __QP4                      105df7c0     LIBCMT:_svml_dtrig_.obj
 0005:00000060       $R000000                   105e0060     FROSTY v2.res
